Archive member included to satisfy reference by file (symbol)

NuttX/nuttx/arch/arm/src/libarch.a(stm32_start.o)
                              (__start)
NuttX/nuttx/arch/arm/src/libarch.a(stm32_rcc.o)
                              NuttX/nuttx/arch/arm/src/libarch.a(stm32_start.o) (stm32_clockconfig)
NuttX/nuttx/arch/arm/src/libarch.a(stm32_gpio.o)
                              NuttX/nuttx/arch/arm/src/libarch.a(stm32_start.o) (stm32_gpioinit)
NuttX/nuttx/arch/arm/src/libarch.a(stm32_lowputc.o)
                              NuttX/nuttx/arch/arm/src/libarch.a(stm32_start.o) (stm32_lowsetup)
NuttX/nuttx/arch/arm/src/libarch.a(stm32_serial.o)
                              NuttX/nuttx/arch/arm/src/libarch.a(stm32_start.o) (up_earlyserialinit)
NuttX/nuttx/arch/arm/src/libarch.a(up_modifyreg32.o)
                              NuttX/nuttx/arch/arm/src/libarch.a(stm32_serial.o) (modifyreg32)
NuttX/nuttx/arch/arm/src/libarch.a(up_vectors.o)
                              (_vectors)
NuttX/nuttx/arch/arm/src/libarch.a(up_exception.o)
                              NuttX/nuttx/arch/arm/src/libarch.a(up_vectors.o) (exception_common)
NuttX/nuttx/arch/arm/src/libarch.a(stm32_irq.o)
                              NuttX/nuttx/arch/arm/src/libarch.a(stm32_serial.o) (up_disable_irq)
NuttX/nuttx/arch/arm/src/libarch.a(stm32_dma.o)
                              NuttX/nuttx/arch/arm/src/libarch.a(stm32_serial.o) (stm32_dmachannel)
NuttX/nuttx/arch/arm/src/libarch.a(up_hardfault.o)
                              NuttX/nuttx/arch/arm/src/libarch.a(stm32_irq.o) (up_hardfault)
NuttX/nuttx/arch/arm/src/libarch.a(up_svcall.o)
                              NuttX/nuttx/arch/arm/src/libarch.a(stm32_irq.o) (up_svcall)
NuttX/nuttx/arch/arm/src/libarch.a(up_doirq.o)
                              NuttX/nuttx/arch/arm/src/libarch.a(up_exception.o) (up_doirq)
NuttX/nuttx/arch/arm/src/libarch.a(up_assert.o)
                              NuttX/nuttx/arch/arm/src/libarch.a(up_hardfault.o) (up_assert)
NuttX/nuttx/arch/arm/src/libarch.a(up_interruptcontext.o)
                              NuttX/nuttx/arch/arm/src/libarch.a(up_assert.o) (up_interrupt_context)
NuttX/nuttx/libs/libc/libc.a(sem_init.o)
                              NuttX/nuttx/arch/arm/src/libarch.a(stm32_dma.o) (nxsem_init)
NuttX/nuttx/libs/libc/libc.a(lib_abort.o)
                              (abort)
NuttX/nuttx/libs/libc/libc.a(lib_strcpy.o)
                              NuttX/nuttx/arch/arm/src/libarch.a(stm32_serial.o) (strcpy)
NuttX/nuttx/libs/libc/libc.a(lib_memcpy.o)
                              NuttX/nuttx/arch/arm/src/libarch.a(up_svcall.o) (memcpy)
NuttX/nuttx/libs/libc/libc.a(lib_cfgetspeed.o)
                              NuttX/nuttx/arch/arm/src/libarch.a(stm32_serial.o) (cfgetspeed)
NuttX/nuttx/libs/libc/libc.a(lib_cfsetspeed.o)
                              NuttX/nuttx/arch/arm/src/libarch.a(stm32_serial.o) (cfsetspeed)
NuttX/nuttx/drivers/libdrivers.a(serial.o)
                              NuttX/nuttx/arch/arm/src/libarch.a(stm32_serial.o) (uart_register)
NuttX/nuttx/drivers/libdrivers.a(serial_io.o)
                              NuttX/nuttx/arch/arm/src/libarch.a(stm32_serial.o) (uart_xmitchars)
NuttX/nuttx/drivers/libdrivers.a(syslog_flush.o)
                              NuttX/nuttx/arch/arm/src/libarch.a(up_assert.o) (syslog_flush)
NuttX/nuttx/drivers/libdrivers.a(syslog_channel.o)
                              NuttX/nuttx/drivers/libdrivers.a(syslog_flush.o) (g_syslog_channel)
NuttX/nuttx/fs/libfs.a(fs_registerdriver.o)
                              NuttX/nuttx/drivers/libdrivers.a(serial.o) (register_driver)
NuttX/nuttx/fs/libfs.a(fs_inode.o)
                              NuttX/nuttx/fs/libfs.a(fs_registerdriver.o) (inode_semtake)
NuttX/nuttx/fs/libfs.a(fs_inodereserve.o)
                              NuttX/nuttx/fs/libfs.a(fs_registerdriver.o) (inode_reserve)
NuttX/nuttx/fs/libfs.a(fs_inodesearch.o)
                              NuttX/nuttx/fs/libfs.a(fs_inodereserve.o) (inode_nextname)
NuttX/nuttx/mm/libmm.a(umm_zalloc.o)
                              NuttX/nuttx/fs/libfs.a(fs_inodereserve.o) (zalloc)
NuttX/nuttx/mm/libmm.a(umm_globals.o)
                              NuttX/nuttx/mm/libmm.a(umm_zalloc.o) (g_mmheap)
NuttX/nuttx/mm/libmm.a(mm_zalloc.o)
                              NuttX/nuttx/mm/libmm.a(umm_zalloc.o) (mm_zalloc)
NuttX/nuttx/mm/libmm.a(mm_malloc.o)
                              NuttX/nuttx/mm/libmm.a(mm_zalloc.o) (mm_malloc)
NuttX/nuttx/mm/libmm.a(mm_sem.o)
                              NuttX/nuttx/mm/libmm.a(mm_malloc.o) (mm_takesemaphore)
NuttX/nuttx/mm/libmm.a(mm_addfreechunk.o)
                              NuttX/nuttx/mm/libmm.a(mm_malloc.o) (mm_addfreechunk)
NuttX/nuttx/mm/libmm.a(mm_size2ndx.o)
                              NuttX/nuttx/mm/libmm.a(mm_malloc.o) (mm_size2ndx)
NuttX/nuttx/sched/libsched.a(clock_initialize.o)
                              NuttX/nuttx/drivers/libdrivers.a(serial.o) (g_system_timer)
NuttX/nuttx/sched/libsched.a(clock_ticks2time.o)
                              NuttX/nuttx/sched/libsched.a(clock_initialize.o) (clock_ticks2time)
NuttX/nuttx/sched/libsched.a(errno_getptr.o)
                              NuttX/nuttx/libs/libc/libc.a(sem_init.o) (get_errno_ptr)
NuttX/nuttx/sched/libsched.a(nx_start.o)
                              NuttX/nuttx/arch/arm/src/libarch.a(stm32_start.o) (nx_start)
NuttX/nuttx/sched/libsched.a(nx_bringup.o)
                              NuttX/nuttx/sched/libsched.a(nx_start.o) (nx_bringup)
NuttX/nuttx/sched/libsched.a(irq_attach.o)
                              NuttX/nuttx/arch/arm/src/libarch.a(stm32_serial.o) (irq_attach)
NuttX/nuttx/sched/libsched.a(irq_dispatch.o)
                              NuttX/nuttx/arch/arm/src/libarch.a(up_doirq.o) (irq_dispatch)
NuttX/nuttx/sched/libsched.a(irq_unexpectedisr.o)
                              NuttX/nuttx/sched/libsched.a(irq_attach.o) (irq_unexpected_isr)
NuttX/nuttx/sched/libsched.a(sched_garbage.o)
                              NuttX/nuttx/sched/libsched.a(nx_start.o) (sched_garbage_collection)
NuttX/nuttx/sched/libsched.a(sched_idletask.o)
                              NuttX/nuttx/drivers/libdrivers.a(serial.o) (sched_idletask)
NuttX/nuttx/sched/libsched.a(sem_wait.o)
                              NuttX/nuttx/arch/arm/src/libarch.a(stm32_dma.o) (nxsem_wait)
NuttX/nuttx/sched/libsched.a(sem_trywait.o)
                              NuttX/nuttx/mm/libmm.a(mm_sem.o) (sem_trywait)
NuttX/nuttx/sched/libsched.a(sem_post.o)
                              NuttX/nuttx/arch/arm/src/libarch.a(stm32_dma.o) (nxsem_post)
NuttX/nuttx/sched/libsched.a(sem_reset.o)
                              NuttX/nuttx/drivers/libdrivers.a(serial.o) (nxsem_reset)
NuttX/nuttx/sched/libsched.a(sig_usleep.o)
                              NuttX/nuttx/drivers/libdrivers.a(serial.o) (nxsig_usleep)
NuttX/nuttx/sched/libsched.a(task_create.o)
                              NuttX/nuttx/sched/libsched.a(nx_bringup.o) (nxtask_create)
NuttX/nuttx/sched/libsched.a(task_setup.o)
                              NuttX/nuttx/sched/libsched.a(task_create.o) (nxtask_schedsetup)
NuttX/nuttx/sched/libsched.a(task_activate.o)
                              NuttX/nuttx/sched/libsched.a(task_create.o) (task_activate)
NuttX/nuttx/sched/libsched.a(task_start.o)
                              NuttX/nuttx/sched/libsched.a(task_create.o) (nxtask_start)
NuttX/nuttx/sched/libsched.a(task_getpid.o)
                              NuttX/nuttx/fs/libfs.a(fs_inode.o) (getpid)
NuttX/nuttx/sched/libsched.a(exit.o)
                              NuttX/nuttx/arch/arm/src/libarch.a(up_assert.o) (exit)
NuttX/nuttx/sched/libsched.a(group_create.o)
                              NuttX/nuttx/sched/libsched.a(nx_start.o) (group_allocate)
NuttX/nuttx/sched/libsched.a(group_setupidlefiles.o)
                              NuttX/nuttx/sched/libsched.a(nx_start.o) (group_setupidlefiles)
NuttX/nuttx/sched/libsched.a(group_setuptaskfiles.o)
                              NuttX/nuttx/sched/libsched.a(task_create.o) (group_setuptaskfiles)
NuttX/nuttx/sched/libsched.a(irq_initialize.o)
                              NuttX/nuttx/sched/libsched.a(irq_attach.o) (g_irqvector)
NuttX/nuttx/sched/libsched.a(sched_releasetcb.o)
                              NuttX/nuttx/sched/libsched.a(task_create.o) (sched_releasetcb)
NuttX/nuttx/sched/libsched.a(sched_lock.o)
                              NuttX/nuttx/sched/libsched.a(sem_reset.o) (sched_lock)
NuttX/nuttx/sched/libsched.a(sched_unlock.o)
                              NuttX/nuttx/sched/libsched.a(sem_reset.o) (sched_unlock)
NuttX/nuttx/sched/libsched.a(sig_procmask.o)
                              NuttX/nuttx/sched/libsched.a(task_setup.o) (nxsig_procmask)
NuttX/nuttx/sched/libsched.a(sig_unmaskpendingsignal.o)
                              NuttX/nuttx/sched/libsched.a(sig_procmask.o) (nxsig_unmask_pendingsignal)
NuttX/nuttx/sched/libsched.a(sig_removependingsignal.o)
                              NuttX/nuttx/sched/libsched.a(sig_unmaskpendingsignal.o) (nxsig_remove_pendingsignal)
NuttX/nuttx/sched/libsched.a(sig_releasependingsignal.o)
                              NuttX/nuttx/sched/libsched.a(sig_unmaskpendingsignal.o) (nxsig_release_pendingsignal)
NuttX/nuttx/sched/libsched.a(sig_lowest.o)
                              NuttX/nuttx/sched/libsched.a(sig_unmaskpendingsignal.o) (nxsig_lowest)
NuttX/nuttx/sched/libsched.a(sig_dispatch.o)
                              NuttX/nuttx/sched/libsched.a(sig_unmaskpendingsignal.o) (nxsig_tcbdispatch)
NuttX/nuttx/sched/libsched.a(sig_deliver.o)
                              NuttX/nuttx/sched/libsched.a(sig_dispatch.o) (nxsig_deliver)
NuttX/nuttx/sched/libsched.a(sig_nanosleep.o)
                              NuttX/nuttx/sched/libsched.a(sig_usleep.o) (nxsig_nanosleep)
NuttX/nuttx/sched/libsched.a(task_exithook.o)
                              NuttX/nuttx/sched/libsched.a(exit.o) (nxtask_exithook)
NuttX/nuttx/sched/libsched.a(task_recover.o)
                              NuttX/nuttx/sched/libsched.a(task_exithook.o) (nxtask_recover)
NuttX/nuttx/sched/libsched.a(wd_recover.o)
                              NuttX/nuttx/sched/libsched.a(task_recover.o) (wd_recover)
NuttX/nuttx/sched/libsched.a(clock_gettime.o)
                              NuttX/nuttx/sched/libsched.a(sig_nanosleep.o) (clock_gettime)
NuttX/nuttx/sched/libsched.a(clock_time2ticks.o)
                              NuttX/nuttx/sched/libsched.a(sig_nanosleep.o) (clock_time2ticks)
NuttX/nuttx/sched/libsched.a(clock_systimespec.o)
                              NuttX/nuttx/sched/libsched.a(clock_gettime.o) (clock_systimespec)
NuttX/nuttx/sched/libsched.a(clock_timespec_subtract.o)
                              NuttX/nuttx/sched/libsched.a(sig_nanosleep.o) (clock_timespec_subtract)
NuttX/nuttx/sched/libsched.a(group_leave.o)
                              NuttX/nuttx/sched/libsched.a(sched_releasetcb.o) (group_leave)
NuttX/nuttx/sched/libsched.a(sched_free.o)
                              NuttX/nuttx/sched/libsched.a(sched_releasetcb.o) (sched_ufree)
NuttX/nuttx/sched/libsched.a(sched_gettcb.o)
                              NuttX/nuttx/sched/libsched.a(sig_dispatch.o) (sched_gettcb)
NuttX/nuttx/sched/libsched.a(sem_recover.o)
                              NuttX/nuttx/sched/libsched.a(task_recover.o) (nxsem_recover)
NuttX/nuttx/sched/libsched.a(sem_waitirq.o)
                              NuttX/nuttx/sched/libsched.a(sig_dispatch.o) (nxsem_wait_irq)
NuttX/nuttx/sched/libsched.a(sig_initialize.o)
                              NuttX/nuttx/sched/libsched.a(sig_releasependingsignal.o) (g_sigpendingirqsignal)
NuttX/nuttx/sched/libsched.a(sig_pending.o)
                              NuttX/nuttx/sched/libsched.a(sig_unmaskpendingsignal.o) (nxsig_pendingset)
NuttX/nuttx/sched/libsched.a(sig_timedwait.o)
                              NuttX/nuttx/sched/libsched.a(sig_nanosleep.o) (nxsig_timedwait)
NuttX/nuttx/sched/libsched.a(sig_findaction.o)
                              NuttX/nuttx/sched/libsched.a(sig_dispatch.o) (nxsig_find_action)
NuttX/nuttx/sched/libsched.a(sig_allocpendingsigaction.o)
                              NuttX/nuttx/sched/libsched.a(sig_dispatch.o) (nxsig_alloc_pendingsigaction)
NuttX/nuttx/sched/libsched.a(sig_releasependingsigaction.o)
                              NuttX/nuttx/sched/libsched.a(sig_deliver.o) (nxsig_release_pendingsigaction)
NuttX/nuttx/sched/libsched.a(sig_cleanup.o)
                              NuttX/nuttx/sched/libsched.a(task_exithook.o) (nxsig_cleanup)
NuttX/nuttx/sched/libsched.a(wd_create.o)
                              NuttX/nuttx/sched/libsched.a(sig_timedwait.o) (wd_create)
NuttX/nuttx/sched/libsched.a(wd_start.o)
                              NuttX/nuttx/sched/libsched.a(sig_timedwait.o) (wd_start)
NuttX/nuttx/sched/libsched.a(wd_cancel.o)
                              NuttX/nuttx/sched/libsched.a(wd_recover.o) (wd_cancel)
NuttX/nuttx/sched/libsched.a(wd_delete.o)
                              NuttX/nuttx/sched/libsched.a(wd_recover.o) (wd_delete)
NuttX/nuttx/sched/libsched.a(sig_action.o)
                              NuttX/nuttx/sched/libsched.a(sig_cleanup.o) (nxsig_release_action)
NuttX/nuttx/sched/libsched.a(wd_initialize.o)
                              NuttX/nuttx/sched/libsched.a(wd_create.o) (g_wdnfree)
NuttX/nuttx/arch/arm/src/libarch.a(stm32_allocateheap.o)
                              NuttX/nuttx/sched/libsched.a(nx_start.o) (up_allocate_heap)
NuttX/nuttx/arch/arm/src/libarch.a(stm32_idle.o)
                              NuttX/nuttx/sched/libsched.a(nx_start.o) (up_idle)
NuttX/nuttx/arch/arm/src/libarch.a(up_blocktask.o)
                              NuttX/nuttx/sched/libsched.a(sem_wait.o) (up_block_task)
NuttX/nuttx/arch/arm/src/libarch.a(up_copyfullstate.o)
                              NuttX/nuttx/arch/arm/src/libarch.a(up_blocktask.o) (up_copyfullstate)
NuttX/nuttx/arch/arm/src/libarch.a(up_createstack.o)
                              NuttX/nuttx/sched/libsched.a(task_create.o) (up_create_stack)
NuttX/nuttx/arch/arm/src/libarch.a(up_exit.o)
                              NuttX/nuttx/sched/libsched.a(exit.o) (_exit)
NuttX/nuttx/arch/arm/src/libarch.a(up_initialize.o)
                              NuttX/nuttx/sched/libsched.a(nx_start.o) (up_initialize)
NuttX/nuttx/arch/arm/src/libarch.a(up_initialstate.o)
                              NuttX/nuttx/sched/libsched.a(nx_start.o) (up_initial_state)
NuttX/nuttx/arch/arm/src/libarch.a(up_releasepending.o)
                              NuttX/nuttx/sched/libsched.a(sched_unlock.o) (up_release_pending)
NuttX/nuttx/arch/arm/src/libarch.a(up_releasestack.o)
                              NuttX/nuttx/sched/libsched.a(sched_releasetcb.o) (up_release_stack)
NuttX/nuttx/arch/arm/src/libarch.a(up_schedulesigaction.o)
                              NuttX/nuttx/sched/libsched.a(sig_dispatch.o) (up_schedule_sigaction)
NuttX/nuttx/arch/arm/src/libarch.a(up_sigdeliver.o)
                              NuttX/nuttx/arch/arm/src/libarch.a(up_schedulesigaction.o) (up_sigdeliver)
NuttX/nuttx/arch/arm/src/libarch.a(up_stackframe.o)
                              NuttX/nuttx/sched/libsched.a(task_setup.o) (up_stack_frame)
NuttX/nuttx/arch/arm/src/libarch.a(up_unblocktask.o)
                              NuttX/nuttx/sched/libsched.a(sem_post.o) (up_unblock_task)
NuttX/nuttx/arch/arm/src/libarch.a(up_fullcontextrestore.o)
                              NuttX/nuttx/arch/arm/src/libarch.a(up_exit.o) (up_fullcontextrestore)
NuttX/nuttx/arch/arm/src/libarch.a(up_switchcontext.o)
                              NuttX/nuttx/arch/arm/src/libarch.a(up_blocktask.o) (up_switchcontext)
NuttX/nuttx/arch/arm/src/libarch.a(stm32_timerisr.o)
                              NuttX/nuttx/arch/arm/src/libarch.a(up_initialize.o) (arm_timer_initialize)
NuttX/nuttx/libs/libc/libc.a(sq_addlast.o)
                              NuttX/nuttx/sched/libsched.a(sig_releasependingsignal.o) (sq_addlast)
NuttX/nuttx/libs/libc/libc.a(sq_addfirst.o)
                              NuttX/nuttx/sched/libsched.a(wd_start.o) (sq_addfirst)
NuttX/nuttx/libs/libc/libc.a(sq_addafter.o)
                              NuttX/nuttx/sched/libsched.a(wd_start.o) (sq_addafter)
NuttX/nuttx/libs/libc/libc.a(sq_rem.o)
                              NuttX/nuttx/sched/libsched.a(sig_deliver.o) (sq_rem)
NuttX/nuttx/libs/libc/libc.a(sq_remfirst.o)
                              NuttX/nuttx/sched/libsched.a(sched_garbage.o) (sq_remfirst)
NuttX/nuttx/libs/libc/libc.a(sq_remafter.o)
                              NuttX/nuttx/sched/libsched.a(sig_removependingsignal.o) (sq_remafter)
NuttX/nuttx/libs/libc/libc.a(dq_addfirst.o)
                              NuttX/nuttx/sched/libsched.a(nx_start.o) (dq_addfirst)
NuttX/nuttx/libs/libc/libc.a(dq_rem.o)
                              NuttX/nuttx/sched/libsched.a(task_create.o) (dq_rem)
NuttX/nuttx/libs/libc/libc.a(sem_getvalue.o)
                              NuttX/nuttx/drivers/libdrivers.a(serial.o) (nxsem_getvalue)
NuttX/nuttx/libs/libc/libc.a(sem_setprotocol.o)
                              NuttX/nuttx/drivers/libdrivers.a(serial.o) (nxsem_setprotocol)
NuttX/nuttx/libs/libc/libc.a(sig_addset.o)
                              NuttX/nuttx/sched/libsched.a(sig_pending.o) (sigaddset)
NuttX/nuttx/libs/libc/libc.a(sig_delset.o)
                              NuttX/nuttx/sched/libsched.a(sig_unmaskpendingsignal.o) (sigdelset)
NuttX/nuttx/libs/libc/libc.a(sig_emptyset.o)
                              NuttX/nuttx/sched/libsched.a(sig_nanosleep.o) (sigemptyset)
NuttX/nuttx/libs/libc/libc.a(sig_ismember.o)
                              NuttX/nuttx/sched/libsched.a(sig_lowest.o) (sigismember)
NuttX/nuttx/libs/libc/libc.a(lib_memset.o)
                              NuttX/nuttx/mm/libmm.a(mm_zalloc.o) (memset)
NuttX/nuttx/libs/libc/libc.a(lib_strlen.o)
                              NuttX/nuttx/sched/libsched.a(task_setup.o) (strlen)
NuttX/nuttx/libs/libc/libc.a(lib_calendar2utc.o)
                              NuttX/nuttx/sched/libsched.a(clock_initialize.o) (clock_calendar2utc)
NuttX/nuttx/libs/libc/libc.a(lib_daysbeforemonth.o)
                              NuttX/nuttx/libs/libc/libc.a(lib_calendar2utc.o) (clock_daysbeforemonth)
NuttX/nuttx/libs/libc/libc.a(lib_isleapyear.o)
                              NuttX/nuttx/libs/libc/libc.a(lib_calendar2utc.o) (clock_isleapyear)
NuttX/nuttx/drivers/libdrivers.a(syslog_initialize.o)
                              NuttX/nuttx/sched/libsched.a(nx_start.o) (syslog_initialize)
NuttX/nuttx/drivers/libdrivers.a(syslog_consolechannel.o)
                              NuttX/nuttx/drivers/libdrivers.a(syslog_initialize.o) (syslog_console_channel)
NuttX/nuttx/drivers/libdrivers.a(syslog_device.o)
                              NuttX/nuttx/drivers/libdrivers.a(syslog_consolechannel.o) (syslog_dev_initialize)
NuttX/nuttx/fs/libfs.a(fs_initialize.o)
                              NuttX/nuttx/sched/libsched.a(nx_start.o) (fs_initialize)
NuttX/nuttx/fs/libfs.a(fs_files.o)
                              NuttX/nuttx/sched/libsched.a(group_setupidlefiles.o) (files_initlist)
NuttX/nuttx/fs/libfs.a(fs_inodeaddref.o)
                              NuttX/nuttx/fs/libfs.a(fs_files.o) (inode_addref)
NuttX/nuttx/fs/libfs.a(fs_inoderelease.o)
                              NuttX/nuttx/fs/libfs.a(fs_files.o) (inode_release)
NuttX/nuttx/fs/libfs.a(fs_fileopen.o)
                              NuttX/nuttx/drivers/libdrivers.a(syslog_device.o) (file_open)
NuttX/nuttx/fs/libfs.a(fs_filedetach.o)
                              NuttX/nuttx/fs/libfs.a(fs_fileopen.o) (file_detach)
NuttX/nuttx/fs/libfs.a(fs_close.o)
                              NuttX/nuttx/sched/libsched.a(group_setupidlefiles.o) (close)
NuttX/nuttx/fs/libfs.a(fs_dupfd2.o)
                              NuttX/nuttx/sched/libsched.a(group_setupidlefiles.o) (dup2)
NuttX/nuttx/fs/libfs.a(fs_getfilep.o)
                              NuttX/nuttx/fs/libfs.a(fs_dupfd2.o) (fs_getfilep)
NuttX/nuttx/fs/libfs.a(fs_open.o)
                              NuttX/nuttx/fs/libfs.a(fs_fileopen.o) (nx_vopen)
NuttX/nuttx/fs/libfs.a(fs_write.o)
                              NuttX/nuttx/drivers/libdrivers.a(syslog_device.o) (file_write)
NuttX/nuttx/fs/libfs.a(fs_inodefind.o)
                              NuttX/nuttx/fs/libfs.a(fs_open.o) (inode_find)
NuttX/nuttx/fs/libfs.a(fs_inodefree.o)
                              NuttX/nuttx/fs/libfs.a(fs_inoderelease.o) (inode_free)
NuttX/nuttx/mm/libmm.a(umm_initialize.o)
                              NuttX/nuttx/sched/libsched.a(nx_start.o) (umm_initialize)
NuttX/nuttx/mm/libmm.a(umm_sem.o)
                              NuttX/nuttx/sched/libsched.a(nx_start.o) (umm_trysemaphore)
NuttX/nuttx/mm/libmm.a(umm_free.o)
                              NuttX/nuttx/sched/libsched.a(sched_garbage.o) (free)
NuttX/nuttx/mm/libmm.a(umm_malloc.o)
                              NuttX/nuttx/sched/libsched.a(sig_dispatch.o) (malloc)
NuttX/nuttx/mm/libmm.a(umm_heapmember.o)
                              NuttX/nuttx/arch/arm/src/libarch.a(up_releasestack.o) (umm_heapmember)
NuttX/nuttx/mm/libmm.a(mm_initialize.o)
                              NuttX/nuttx/mm/libmm.a(umm_initialize.o) (mm_initialize)
NuttX/nuttx/mm/libmm.a(mm_free.o)
                              NuttX/nuttx/mm/libmm.a(umm_free.o) (mm_free)
NuttX/nuttx/mm/libmm.a(mm_heapmember.o)
                              NuttX/nuttx/mm/libmm.a(umm_heapmember.o) (mm_heapmember)
NuttX/nuttx/sched/libsched.a(sched_getfiles.o)
                              NuttX/nuttx/fs/libfs.a(fs_files.o) (sched_getfiles)
NuttX/nuttx/sched/libsched.a(sched_addreadytorun.o)
                              NuttX/nuttx/arch/arm/src/libarch.a(up_unblocktask.o) (sched_addreadytorun)
NuttX/nuttx/sched/libsched.a(sched_removereadytorun.o)
                              NuttX/nuttx/arch/arm/src/libarch.a(up_blocktask.o) (sched_removereadytorun)
NuttX/nuttx/sched/libsched.a(sched_addprioritized.o)
                              NuttX/nuttx/sched/libsched.a(sched_addreadytorun.o) (sched_addprioritized)
NuttX/nuttx/sched/libsched.a(sched_mergepending.o)
                              NuttX/nuttx/arch/arm/src/libarch.a(up_blocktask.o) (sched_mergepending)
NuttX/nuttx/sched/libsched.a(sched_addblocked.o)
                              NuttX/nuttx/arch/arm/src/libarch.a(up_blocktask.o) (sched_addblocked)
NuttX/nuttx/sched/libsched.a(sched_removeblocked.o)
                              NuttX/nuttx/arch/arm/src/libarch.a(up_unblocktask.o) (sched_removeblocked)
NuttX/nuttx/sched/libsched.a(sched_processtimer.o)
                              NuttX/nuttx/arch/arm/src/libarch.a(stm32_timerisr.o) (nxsched_process_timer)
NuttX/nuttx/sched/libsched.a(sem_destroy.o)
                              NuttX/nuttx/fs/libfs.a(fs_files.o) (nxsem_destroy)
NuttX/nuttx/sched/libsched.a(task_exit.o)
                              NuttX/nuttx/arch/arm/src/libarch.a(up_exit.o) (nxtask_exit)
NuttX/nuttx/sched/libsched.a(task_terminate.o)
                              NuttX/nuttx/sched/libsched.a(task_exit.o) (nxtask_terminate)
NuttX/nuttx/libs/libc/libc.a(dq_addlast.o)
                              NuttX/nuttx/sched/libsched.a(sched_addblocked.o) (dq_addlast)
NuttX/nuttx/libs/libc/libc.a(lib_strdup.o)
                              NuttX/nuttx/drivers/libdrivers.a(syslog_device.o) (strdup)
/opt/gcc-arm-none-eabi-7-2017-q4-major/bin/../lib/gcc/arm-none-eabi/7.2.1/thumb/v7-m/libgcc.a(_aeabi_ldivmod.o)
                              NuttX/nuttx/sched/libsched.a(clock_time2ticks.o) (__aeabi_ldivmod)
/opt/gcc-arm-none-eabi-7-2017-q4-major/bin/../lib/gcc/arm-none-eabi/7.2.1/thumb/v7-m/libgcc.a(_aeabi_uldivmod.o)
                              NuttX/nuttx/sched/libsched.a(clock_systimespec.o) (__aeabi_uldivmod)
/opt/gcc-arm-none-eabi-7-2017-q4-major/bin/../lib/gcc/arm-none-eabi/7.2.1/thumb/v7-m/libgcc.a(_udivmoddi4.o)
                              /opt/gcc-arm-none-eabi-7-2017-q4-major/bin/../lib/gcc/arm-none-eabi/7.2.1/thumb/v7-m/libgcc.a(_aeabi_ldivmod.o) (__udivmoddi4)
/opt/gcc-arm-none-eabi-7-2017-q4-major/bin/../lib/gcc/arm-none-eabi/7.2.1/thumb/v7-m/libgcc.a(_dvmd_tls.o)
                              /opt/gcc-arm-none-eabi-7-2017-q4-major/bin/../lib/gcc/arm-none-eabi/7.2.1/thumb/v7-m/libgcc.a(_aeabi_ldivmod.o) (__aeabi_ldiv0)
src/modules/px4iofirmware/libpx4iofirmware.a(px4io.c.obj)
                              NuttX/nuttx/sched/libsched.a(nx_bringup.o) (user_start)
src/modules/px4iofirmware/libpx4iofirmware.a(registers.c.obj)
                              src/modules/px4iofirmware/libpx4iofirmware.a(px4io.c.obj) (r_page_setup)
src/modules/px4iofirmware/libpx4iofirmware.a(safety.c.obj)
                              src/modules/px4iofirmware/libpx4iofirmware.a(px4io.c.obj) (safety_init)
src/modules/px4iofirmware/libpx4iofirmware.a(serial.c.obj)
                              src/modules/px4iofirmware/libpx4iofirmware.a(px4io.c.obj) (interface_init)
src/modules/px4iofirmware/libpx4iofirmware.a(adc.c.obj)
                              src/modules/px4iofirmware/libpx4iofirmware.a(px4io.c.obj) (adc_init)
src/modules/px4iofirmware/libpx4iofirmware.a(controls.c.obj)
                              src/modules/px4iofirmware/libpx4iofirmware.a(px4io.c.obj) (controls_init)
src/modules/px4iofirmware/libpx4iofirmware.a(mixer.cpp.obj)
                              src/modules/px4iofirmware/libpx4iofirmware.a(px4io.c.obj) (mixer_tick)
NuttX/apps/libapps.a(gnu_cxxinitialize.o)
                              src/modules/px4iofirmware/libpx4iofirmware.a(px4io.c.obj) (up_cxxinitialize)
platforms/nuttx/src/px4/stm/stm32f1/io_pins/libarch_io_pins.a(pwm_servo.c.obj)
                              src/modules/px4iofirmware/libpx4iofirmware.a(mixer.cpp.obj) (up_pwm_servo_set)
platforms/nuttx/src/px4/stm/stm32f1/io_pins/libarch_io_pins.a(io_timer.c.obj)
                              platforms/nuttx/src/px4/stm/stm32f1/io_pins/libarch_io_pins.a(pwm_servo.c.obj) (io_timer_is_channel_free)
src/lib/mixer/libmixer.a(MixerGroup.cpp.obj)
                              src/modules/px4iofirmware/libpx4iofirmware.a(mixer.cpp.obj) (MixerGroup::load_from_buf(int (*)(unsigned int, unsigned char, unsigned char, float&), unsigned int, char const*, unsigned int&))
src/lib/mixer/HelicopterMixer/libHelicopterMixer.a(HelicopterMixer.cpp.obj)
                              src/lib/mixer/libmixer.a(MixerGroup.cpp.obj) (HelicopterMixer::from_text(int (*)(unsigned int, unsigned char, unsigned char, float&), unsigned int, char const*, unsigned int&))
src/lib/mixer/MultirotorMixer/libMultirotorMixer.a(MultirotorMixer.cpp.obj)
                              src/lib/mixer/libmixer.a(MixerGroup.cpp.obj) (MultirotorMixer::from_text(int (*)(unsigned int, unsigned char, unsigned char, float&), unsigned int, char const*, unsigned int&))
src/lib/mixer/NullMixer/libNullMixer.a(NullMixer.cpp.obj)
                              src/lib/mixer/libmixer.a(MixerGroup.cpp.obj) (NullMixer::from_text(char const*, unsigned int&))
src/lib/mixer/SimpleMixer/libSimpleMixer.a(SimpleMixer.cpp.obj)
                              src/lib/mixer/libmixer.a(MixerGroup.cpp.obj) (SimpleMixer::from_text(int (*)(unsigned int, unsigned char, unsigned char, float&), unsigned int, char const*, unsigned int&))
src/lib/mixer/MixerBase/libMixerBase.a(Mixer.cpp.obj)
                              src/lib/mixer/HelicopterMixer/libHelicopterMixer.a(HelicopterMixer.cpp.obj) (Mixer::get_control(unsigned char, unsigned char))
src/lib/rc/librc.a(st24.cpp.obj)
                              src/modules/px4iofirmware/libpx4iofirmware.a(controls.c.obj) (st24_decode)
src/lib/rc/librc.a(sumd.cpp.obj)
                              src/modules/px4iofirmware/libpx4iofirmware.a(controls.c.obj) (sumd_decode)
src/lib/rc/librc.a(sbus.cpp.obj)
                              src/modules/px4iofirmware/libpx4iofirmware.a(controls.c.obj) (sbus_init)
src/lib/rc/librc.a(dsm.cpp.obj)
                              src/modules/px4iofirmware/libpx4iofirmware.a(controls.c.obj) (dsm_init)
src/lib/rc/librc.a(common_rc.cpp.obj)
                              src/lib/rc/librc.a(st24.cpp.obj) (rc_decode_buf)
src/lib/output_limit/liboutput_limit.a(output_limit.cpp.obj)
                              src/modules/px4iofirmware/libpx4iofirmware.a(px4io.c.obj) (output_limit_init)
NuttX/nuttx/arch/arm/src/libarch.a(up_systemreset.o)
                              src/modules/px4iofirmware/libpx4iofirmware.a(px4io.c.obj) (up_systemreset)
NuttX/nuttx/arch/arm/src/libarch.a(up_udelay.o)
                              src/modules/px4iofirmware/libpx4iofirmware.a(px4io.c.obj) (up_udelay)
boards/px4/io-v2/src/libdrivers_board.a(init.c.obj)
                              NuttX/nuttx/arch/arm/src/libarch.a(stm32_start.o) (stm32_boardinitialize)
boards/px4/io-v2/src/libdrivers_board.a(timer_config.cpp.obj)
                              platforms/nuttx/src/px4/stm/stm32f1/io_pins/libarch_io_pins.a(io_timer.c.obj) (io_timers_channel_mapping)
platforms/nuttx/src/px4/stm/stm32f1/hrt/libarch_hrt.a(hrt.c.obj)
                              src/modules/px4iofirmware/libpx4iofirmware.a(px4io.c.obj) (hrt_absolute_time)
NuttX/nuttx/libs/libxx/libxx.a(libxx_eabi_atexit.o)
                              src/modules/px4iofirmware/libpx4iofirmware.a(mixer.cpp.obj) (__aeabi_atexit)
NuttX/nuttx/libs/libxx/libxx.a(libxx_cxa_atexit.o)
                              NuttX/nuttx/libs/libxx/libxx.a(libxx_eabi_atexit.o) (__cxa_atexit)
NuttX/nuttx/libs/libxx/libxx.a(libxx_delete.o)
                              src/lib/mixer/HelicopterMixer/libHelicopterMixer.a(HelicopterMixer.cpp.obj) (operator delete(void*))
NuttX/nuttx/libs/libxx/libxx.a(libxx_deletea.o)
                              src/lib/mixer/MultirotorMixer/libMultirotorMixer.a(MultirotorMixer.cpp.obj) (operator delete[](void*))
NuttX/nuttx/libs/libxx/libxx.a(libxx_new.o)
                              src/lib/mixer/HelicopterMixer/libHelicopterMixer.a(HelicopterMixer.cpp.obj) (operator new(unsigned int))
NuttX/nuttx/libs/libxx/libxx.a(libxx_newa.o)
                              src/lib/mixer/MultirotorMixer/libMultirotorMixer.a(MultirotorMixer.cpp.obj) (operator new[](unsigned int))
NuttX/nuttx/libs/libc/libc.a(lib_crc32.o)
                              src/modules/px4iofirmware/libpx4iofirmware.a(px4io.c.obj) (crc32part)
NuttX/nuttx/libs/libc/libc.a(lib_printf.o)
                              src/lib/rc/librc.a(sumd.cpp.obj) (printf)
NuttX/nuttx/libs/libc/libc.a(lib_vsnprintf.o)
                              src/modules/px4iofirmware/libpx4iofirmware.a(px4io.c.obj) (vsnprintf)
NuttX/nuttx/libs/libc/libc.a(lib_memoutstream.o)
                              NuttX/nuttx/libs/libc/libc.a(lib_vsnprintf.o) (lib_memoutstream)
NuttX/nuttx/libs/libc/libc.a(lib_nulloutstream.o)
                              NuttX/nuttx/libs/libc/libc.a(lib_vsnprintf.o) (lib_nulloutstream)
NuttX/nuttx/libs/libc/libc.a(lib_sscanf.o)
                              src/lib/mixer/HelicopterMixer/libHelicopterMixer.a(HelicopterMixer.cpp.obj) (sscanf)
NuttX/nuttx/libs/libc/libc.a(lib_vsscanf.o)
                              NuttX/nuttx/libs/libc/libc.a(lib_sscanf.o) (vsscanf)
NuttX/nuttx/libs/libc/libc.a(lib_libvscanf.o)
                              NuttX/nuttx/libs/libc/libc.a(lib_vsscanf.o) (lib_vscanf)
NuttX/nuttx/libs/libc/libc.a(lib_libnoflush.o)
                              NuttX/nuttx/libs/libc/libc.a(lib_memoutstream.o) (lib_noflush)
NuttX/nuttx/libs/libc/libc.a(lib_libvsprintf.o)
                              NuttX/nuttx/libs/libc/libc.a(lib_vsnprintf.o) (lib_vsprintf)
NuttX/nuttx/libs/libc/libc.a(lib_ultoa_invert.o)
                              NuttX/nuttx/libs/libc/libc.a(lib_libvsprintf.o) (__ultoa_invert)
NuttX/nuttx/libs/libc/libc.a(lib_strtol.o)
                              NuttX/nuttx/libs/libc/libc.a(lib_libvscanf.o) (strtol)
NuttX/nuttx/libs/libc/libc.a(lib_strtoul.o)
                              NuttX/nuttx/libs/libc/libc.a(lib_libvscanf.o) (strtoul)
NuttX/nuttx/libs/libc/libc.a(lib_checkbase.o)
                              NuttX/nuttx/libs/libc/libc.a(lib_strtoul.o) (lib_checkbase)
NuttX/nuttx/libs/libc/libc.a(lib_isbasedigit.o)
                              NuttX/nuttx/libs/libc/libc.a(lib_strtoul.o) (lib_isbasedigit)
NuttX/nuttx/libs/libc/libc.a(lib_memchr.o)
                              src/lib/mixer/MixerBase/libMixerBase.a(Mixer.cpp.obj) (memchr)
NuttX/nuttx/libs/libc/libc.a(lib_memmove.o)
                              src/modules/px4iofirmware/libpx4iofirmware.a(mixer.cpp.obj) (memmove)
NuttX/nuttx/libs/libc/libc.a(lib_skipspace.o)
                              NuttX/nuttx/libs/libc/libc.a(lib_strtol.o) (lib_skipspace)
NuttX/nuttx/libs/libc/libc.a(lib_strchr.o)
                              NuttX/nuttx/libs/libc/libc.a(lib_libvscanf.o) (strchr)
NuttX/nuttx/libs/libc/libc.a(lib_strcmp.o)
                              src/lib/mixer/MultirotorMixer/libMultirotorMixer.a(MultirotorMixer.cpp.obj) (strcmp)
NuttX/nuttx/libs/libc/libc.a(lib_strnlen.o)
                              NuttX/nuttx/libs/libc/libc.a(lib_libvsprintf.o) (strnlen)
NuttX/nuttx/libs/libc/libc.a(lib_strncpy.o)
                              NuttX/nuttx/libs/libc/libc.a(lib_libvscanf.o) (strncpy)
NuttX/nuttx/libs/libc/libc.a(lib_syslog.o)
                              src/modules/px4iofirmware/libpx4iofirmware.a(px4io.c.obj) (syslog)
NuttX/nuttx/libs/libc/libc.a(lib_setlogmask.o)
                              NuttX/nuttx/libs/libc/libc.a(lib_syslog.o) (g_syslog_mask)
NuttX/nuttx/libs/libc/libc.a(lib_tcgetattr.o)
                              src/lib/rc/librc.a(sbus.cpp.obj) (tcgetattr)
NuttX/nuttx/libs/libc/libc.a(lib_tcsetattr.o)
                              src/lib/rc/librc.a(sbus.cpp.obj) (tcsetattr)
NuttX/nuttx/libs/libc/libc.a(lib_meminstream.o)
                              NuttX/nuttx/libs/libc/libc.a(lib_vsscanf.o) (lib_meminstream)
NuttX/nuttx/drivers/libdrivers.a(vsyslog.o)
                              NuttX/nuttx/libs/libc/libc.a(lib_printf.o) (nx_vsyslog)
NuttX/nuttx/drivers/libdrivers.a(syslog_stream.o)
                              NuttX/nuttx/drivers/libdrivers.a(vsyslog.o) (syslogstream_create)
NuttX/nuttx/drivers/libdrivers.a(syslog_emergstream.o)
                              NuttX/nuttx/drivers/libdrivers.a(vsyslog.o) (emergstream)
NuttX/nuttx/drivers/libdrivers.a(syslog_putc.o)
                              NuttX/nuttx/drivers/libdrivers.a(syslog_stream.o) (syslog_putc)
NuttX/nuttx/drivers/libdrivers.a(syslog_force.o)
                              NuttX/nuttx/drivers/libdrivers.a(syslog_emergstream.o) (syslog_force)
NuttX/nuttx/fs/libfs.a(fs_ioctl.o)
                              src/lib/rc/librc.a(sbus.cpp.obj) (ioctl)
NuttX/nuttx/fs/libfs.a(fs_read.o)
                              src/lib/rc/librc.a(sbus.cpp.obj) (read)
NuttX/nuttx/mm/libmm.a(umm_mallinfo.o)
                              src/modules/px4iofirmware/libpx4iofirmware.a(px4io.c.obj) (mallinfo)
NuttX/nuttx/mm/libmm.a(mm_mallinfo.o)
                              NuttX/nuttx/mm/libmm.a(umm_mallinfo.o) (mm_mallinfo)
/opt/gcc-arm-none-eabi-7-2017-q4-major/bin/../lib/gcc/arm-none-eabi/7.2.1/../../../../arm-none-eabi/lib/thumb/v7-m/libm.a(lib_a-sf_cos.o)
                              src/lib/mixer/HelicopterMixer/libHelicopterMixer.a(HelicopterMixer.cpp.obj) (cosf)
/opt/gcc-arm-none-eabi-7-2017-q4-major/bin/../lib/gcc/arm-none-eabi/7.2.1/../../../../arm-none-eabi/lib/thumb/v7-m/libm.a(lib_a-sf_floor.o)
                              src/modules/px4iofirmware/libpx4iofirmware.a(mixer.cpp.obj) (floorf)
/opt/gcc-arm-none-eabi-7-2017-q4-major/bin/../lib/gcc/arm-none-eabi/7.2.1/../../../../arm-none-eabi/lib/thumb/v7-m/libm.a(lib_a-sf_round.o)
                              src/lib/rc/librc.a(dsm.cpp.obj) (roundf)
/opt/gcc-arm-none-eabi-7-2017-q4-major/bin/../lib/gcc/arm-none-eabi/7.2.1/../../../../arm-none-eabi/lib/thumb/v7-m/libm.a(lib_a-sf_sin.o)
                              src/lib/mixer/HelicopterMixer/libHelicopterMixer.a(HelicopterMixer.cpp.obj) (sinf)
/opt/gcc-arm-none-eabi-7-2017-q4-major/bin/../lib/gcc/arm-none-eabi/7.2.1/../../../../arm-none-eabi/lib/thumb/v7-m/libm.a(lib_a-wf_sqrt.o)
                              src/lib/mixer/MultirotorMixer/libMultirotorMixer.a(MultirotorMixer.cpp.obj) (sqrtf)
/opt/gcc-arm-none-eabi-7-2017-q4-major/bin/../lib/gcc/arm-none-eabi/7.2.1/../../../../arm-none-eabi/lib/thumb/v7-m/libm.a(lib_a-ef_rem_pio2.o)
                              /opt/gcc-arm-none-eabi-7-2017-q4-major/bin/../lib/gcc/arm-none-eabi/7.2.1/../../../../arm-none-eabi/lib/thumb/v7-m/libm.a(lib_a-sf_cos.o) (__ieee754_rem_pio2f)
/opt/gcc-arm-none-eabi-7-2017-q4-major/bin/../lib/gcc/arm-none-eabi/7.2.1/../../../../arm-none-eabi/lib/thumb/v7-m/libm.a(lib_a-ef_sqrt.o)
                              /opt/gcc-arm-none-eabi-7-2017-q4-major/bin/../lib/gcc/arm-none-eabi/7.2.1/../../../../arm-none-eabi/lib/thumb/v7-m/libm.a(lib_a-wf_sqrt.o) (__ieee754_sqrtf)
/opt/gcc-arm-none-eabi-7-2017-q4-major/bin/../lib/gcc/arm-none-eabi/7.2.1/../../../../arm-none-eabi/lib/thumb/v7-m/libm.a(lib_a-kf_cos.o)
                              /opt/gcc-arm-none-eabi-7-2017-q4-major/bin/../lib/gcc/arm-none-eabi/7.2.1/../../../../arm-none-eabi/lib/thumb/v7-m/libm.a(lib_a-sf_cos.o) (__kernel_cosf)
/opt/gcc-arm-none-eabi-7-2017-q4-major/bin/../lib/gcc/arm-none-eabi/7.2.1/../../../../arm-none-eabi/lib/thumb/v7-m/libm.a(lib_a-kf_rem_pio2.o)
                              /opt/gcc-arm-none-eabi-7-2017-q4-major/bin/../lib/gcc/arm-none-eabi/7.2.1/../../../../arm-none-eabi/lib/thumb/v7-m/libm.a(lib_a-ef_rem_pio2.o) (__kernel_rem_pio2f)
/opt/gcc-arm-none-eabi-7-2017-q4-major/bin/../lib/gcc/arm-none-eabi/7.2.1/../../../../arm-none-eabi/lib/thumb/v7-m/libm.a(lib_a-kf_sin.o)
                              /opt/gcc-arm-none-eabi-7-2017-q4-major/bin/../lib/gcc/arm-none-eabi/7.2.1/../../../../arm-none-eabi/lib/thumb/v7-m/libm.a(lib_a-sf_cos.o) (__kernel_sinf)
/opt/gcc-arm-none-eabi-7-2017-q4-major/bin/../lib/gcc/arm-none-eabi/7.2.1/../../../../arm-none-eabi/lib/thumb/v7-m/libm.a(lib_a-s_lib_ver.o)
                              /opt/gcc-arm-none-eabi-7-2017-q4-major/bin/../lib/gcc/arm-none-eabi/7.2.1/../../../../arm-none-eabi/lib/thumb/v7-m/libm.a(lib_a-wf_sqrt.o) (__fdlib_version)
/opt/gcc-arm-none-eabi-7-2017-q4-major/bin/../lib/gcc/arm-none-eabi/7.2.1/../../../../arm-none-eabi/lib/thumb/v7-m/libm.a(lib_a-s_matherr.o)
                              /opt/gcc-arm-none-eabi-7-2017-q4-major/bin/../lib/gcc/arm-none-eabi/7.2.1/../../../../arm-none-eabi/lib/thumb/v7-m/libm.a(lib_a-wf_sqrt.o) (matherr)
/opt/gcc-arm-none-eabi-7-2017-q4-major/bin/../lib/gcc/arm-none-eabi/7.2.1/../../../../arm-none-eabi/lib/thumb/v7-m/libm.a(lib_a-sf_fabs.o)
                              /opt/gcc-arm-none-eabi-7-2017-q4-major/bin/../lib/gcc/arm-none-eabi/7.2.1/../../../../arm-none-eabi/lib/thumb/v7-m/libm.a(lib_a-ef_rem_pio2.o) (fabsf)
/opt/gcc-arm-none-eabi-7-2017-q4-major/bin/../lib/gcc/arm-none-eabi/7.2.1/../../../../arm-none-eabi/lib/thumb/v7-m/libm.a(lib_a-sf_scalbn.o)
                              /opt/gcc-arm-none-eabi-7-2017-q4-major/bin/../lib/gcc/arm-none-eabi/7.2.1/../../../../arm-none-eabi/lib/thumb/v7-m/libm.a(lib_a-kf_rem_pio2.o) (scalbnf)
/opt/gcc-arm-none-eabi-7-2017-q4-major/bin/../lib/gcc/arm-none-eabi/7.2.1/../../../../arm-none-eabi/lib/thumb/v7-m/libm.a(lib_a-sf_copysign.o)
                              /opt/gcc-arm-none-eabi-7-2017-q4-major/bin/../lib/gcc/arm-none-eabi/7.2.1/../../../../arm-none-eabi/lib/thumb/v7-m/libm.a(lib_a-sf_scalbn.o) (copysignf)
/opt/gcc-arm-none-eabi-7-2017-q4-major/bin/../lib/gcc/arm-none-eabi/7.2.1/thumb/v7-m/libgcc.a(_arm_addsubdf3.o)
                              /opt/gcc-arm-none-eabi-7-2017-q4-major/bin/../lib/gcc/arm-none-eabi/7.2.1/../../../../arm-none-eabi/lib/thumb/v7-m/libm.a(lib_a-wf_sqrt.o) (__aeabi_f2d)
/opt/gcc-arm-none-eabi-7-2017-q4-major/bin/../lib/gcc/arm-none-eabi/7.2.1/thumb/v7-m/libgcc.a(_arm_muldivdf3.o)
                              /opt/gcc-arm-none-eabi-7-2017-q4-major/bin/../lib/gcc/arm-none-eabi/7.2.1/../../../../arm-none-eabi/lib/thumb/v7-m/libm.a(lib_a-wf_sqrt.o) (__aeabi_ddiv)
/opt/gcc-arm-none-eabi-7-2017-q4-major/bin/../lib/gcc/arm-none-eabi/7.2.1/thumb/v7-m/libgcc.a(_arm_truncdfsf2.o)
                              /opt/gcc-arm-none-eabi-7-2017-q4-major/bin/../lib/gcc/arm-none-eabi/7.2.1/../../../../arm-none-eabi/lib/thumb/v7-m/libm.a(lib_a-wf_sqrt.o) (__aeabi_d2f)
/opt/gcc-arm-none-eabi-7-2017-q4-major/bin/../lib/gcc/arm-none-eabi/7.2.1/thumb/v7-m/libgcc.a(_arm_addsubsf3.o)
                              src/lib/mixer/HelicopterMixer/libHelicopterMixer.a(HelicopterMixer.cpp.obj) (__aeabi_fsub)
/opt/gcc-arm-none-eabi-7-2017-q4-major/bin/../lib/gcc/arm-none-eabi/7.2.1/thumb/v7-m/libgcc.a(_arm_muldivsf3.o)
                              src/modules/px4iofirmware/libpx4iofirmware.a(px4io.c.obj) (__aeabi_fmul)
/opt/gcc-arm-none-eabi-7-2017-q4-major/bin/../lib/gcc/arm-none-eabi/7.2.1/thumb/v7-m/libgcc.a(_arm_cmpsf2.o)
                              /opt/gcc-arm-none-eabi-7-2017-q4-major/bin/../lib/gcc/arm-none-eabi/7.2.1/../../../../arm-none-eabi/lib/thumb/v7-m/libm.a(lib_a-ef_rem_pio2.o) (__aeabi_fcmpeq)
/opt/gcc-arm-none-eabi-7-2017-q4-major/bin/../lib/gcc/arm-none-eabi/7.2.1/thumb/v7-m/libgcc.a(_arm_unordsf2.o)
                              src/lib/mixer/libmixer.a(MixerGroup.cpp.obj) (__aeabi_fcmpun)
/opt/gcc-arm-none-eabi-7-2017-q4-major/bin/../lib/gcc/arm-none-eabi/7.2.1/thumb/v7-m/libgcc.a(_arm_fixsfsi.o)
                              src/modules/px4iofirmware/libpx4iofirmware.a(controls.c.obj) (__aeabi_f2iz)
/opt/gcc-arm-none-eabi-7-2017-q4-major/bin/../lib/gcc/arm-none-eabi/7.2.1/thumb/v7-m/libgcc.a(_arm_fixunssfsi.o)
                              src/modules/px4iofirmware/libpx4iofirmware.a(controls.c.obj) (__aeabi_f2uiz)

Discarded input sections

 .text          0x0000000000000000        0x0 platforms/nuttx/CMakeFiles/px4.dir/__/common/empty.c.obj
 .data          0x0000000000000000        0x0 platforms/nuttx/CMakeFiles/px4.dir/__/common/empty.c.obj
 .bss           0x0000000000000000        0x0 platforms/nuttx/CMakeFiles/px4.dir/__/common/empty.c.obj
 .debug_info    0x0000000000000000       0x79 platforms/nuttx/CMakeFiles/px4.dir/__/common/empty.c.obj
 .debug_abbrev  0x0000000000000000       0x26 platforms/nuttx/CMakeFiles/px4.dir/__/common/empty.c.obj
 .debug_aranges
                0x0000000000000000       0x18 platforms/nuttx/CMakeFiles/px4.dir/__/common/empty.c.obj
 .debug_line    0x0000000000000000       0x1d platforms/nuttx/CMakeFiles/px4.dir/__/common/empty.c.obj
 .debug_str     0x0000000000000000      0x266 platforms/nuttx/CMakeFiles/px4.dir/__/common/empty.c.obj
 .comment       0x0000000000000000       0x7f platforms/nuttx/CMakeFiles/px4.dir/__/common/empty.c.obj
 .ARM.attributes
                0x0000000000000000       0x33 platforms/nuttx/CMakeFiles/px4.dir/__/common/empty.c.obj
 .text          0x0000000000000000        0x0 NuttX/nuttx/arch/arm/src/libarch.a(stm32_start.o)
 .data          0x0000000000000000        0x0 NuttX/nuttx/arch/arm/src/libarch.a(stm32_start.o)
 .bss           0x0000000000000000        0x0 NuttX/nuttx/arch/arm/src/libarch.a(stm32_start.o)
 .text          0x0000000000000000        0x0 NuttX/nuttx/arch/arm/src/libarch.a(stm32_rcc.o)
 .data          0x0000000000000000        0x0 NuttX/nuttx/arch/arm/src/libarch.a(stm32_rcc.o)
 .bss           0x0000000000000000        0x0 NuttX/nuttx/arch/arm/src/libarch.a(stm32_rcc.o)
 .text          0x0000000000000000        0x0 NuttX/nuttx/arch/arm/src/libarch.a(stm32_gpio.o)
 .data          0x0000000000000000        0x0 NuttX/nuttx/arch/arm/src/libarch.a(stm32_gpio.o)
 .bss           0x0000000000000000        0x0 NuttX/nuttx/arch/arm/src/libarch.a(stm32_gpio.o)
 .text          0x0000000000000000        0x0 NuttX/nuttx/arch/arm/src/libarch.a(stm32_lowputc.o)
 .data          0x0000000000000000        0x0 NuttX/nuttx/arch/arm/src/libarch.a(stm32_lowputc.o)
 .bss           0x0000000000000000        0x0 NuttX/nuttx/arch/arm/src/libarch.a(stm32_lowputc.o)
 .text          0x0000000000000000        0x0 NuttX/nuttx/arch/arm/src/libarch.a(stm32_serial.o)
 .data          0x0000000000000000        0x0 NuttX/nuttx/arch/arm/src/libarch.a(stm32_serial.o)
 .bss           0x0000000000000000        0x0 NuttX/nuttx/arch/arm/src/libarch.a(stm32_serial.o)
 .text.stm32_serial_get_uart
                0x0000000000000000       0x24 NuttX/nuttx/arch/arm/src/libarch.a(stm32_serial.o)
 .text          0x0000000000000000        0x0 NuttX/nuttx/arch/arm/src/libarch.a(up_modifyreg32.o)
 .data          0x0000000000000000        0x0 NuttX/nuttx/arch/arm/src/libarch.a(up_modifyreg32.o)
 .bss           0x0000000000000000        0x0 NuttX/nuttx/arch/arm/src/libarch.a(up_modifyreg32.o)
 .text          0x0000000000000000        0x0 NuttX/nuttx/arch/arm/src/libarch.a(up_vectors.o)
 .data          0x0000000000000000        0x0 NuttX/nuttx/arch/arm/src/libarch.a(up_vectors.o)
 .bss           0x0000000000000000        0x0 NuttX/nuttx/arch/arm/src/libarch.a(up_vectors.o)
 .data          0x0000000000000000        0x0 NuttX/nuttx/arch/arm/src/libarch.a(up_exception.o)
 .bss           0x0000000000000000        0x0 NuttX/nuttx/arch/arm/src/libarch.a(up_exception.o)
 .text          0x0000000000000000        0x0 NuttX/nuttx/arch/arm/src/libarch.a(stm32_irq.o)
 .data          0x0000000000000000        0x0 NuttX/nuttx/arch/arm/src/libarch.a(stm32_irq.o)
 .bss           0x0000000000000000        0x0 NuttX/nuttx/arch/arm/src/libarch.a(stm32_irq.o)
 .text          0x0000000000000000        0x0 NuttX/nuttx/arch/arm/src/libarch.a(stm32_dma.o)
 .data          0x0000000000000000        0x0 NuttX/nuttx/arch/arm/src/libarch.a(stm32_dma.o)
 .bss           0x0000000000000000        0x0 NuttX/nuttx/arch/arm/src/libarch.a(stm32_dma.o)
 .text          0x0000000000000000        0x0 NuttX/nuttx/arch/arm/src/libarch.a(up_hardfault.o)
 .data          0x0000000000000000        0x0 NuttX/nuttx/arch/arm/src/libarch.a(up_hardfault.o)
 .bss           0x0000000000000000        0x0 NuttX/nuttx/arch/arm/src/libarch.a(up_hardfault.o)
 .text          0x0000000000000000        0x0 NuttX/nuttx/arch/arm/src/libarch.a(up_svcall.o)
 .data          0x0000000000000000        0x0 NuttX/nuttx/arch/arm/src/libarch.a(up_svcall.o)
 .bss           0x0000000000000000        0x0 NuttX/nuttx/arch/arm/src/libarch.a(up_svcall.o)
 .text          0x0000000000000000        0x0 NuttX/nuttx/arch/arm/src/libarch.a(up_doirq.o)
 .data          0x0000000000000000        0x0 NuttX/nuttx/arch/arm/src/libarch.a(up_doirq.o)
 .bss           0x0000000000000000        0x0 NuttX/nuttx/arch/arm/src/libarch.a(up_doirq.o)
 .text          0x0000000000000000        0x0 NuttX/nuttx/arch/arm/src/libarch.a(up_assert.o)
 .data          0x0000000000000000        0x0 NuttX/nuttx/arch/arm/src/libarch.a(up_assert.o)
 .bss           0x0000000000000000        0x0 NuttX/nuttx/arch/arm/src/libarch.a(up_assert.o)
 .text          0x0000000000000000        0x0 NuttX/nuttx/arch/arm/src/libarch.a(up_interruptcontext.o)
 .data          0x0000000000000000        0x0 NuttX/nuttx/arch/arm/src/libarch.a(up_interruptcontext.o)
 .bss           0x0000000000000000        0x0 NuttX/nuttx/arch/arm/src/libarch.a(up_interruptcontext.o)
 .text          0x0000000000000000        0x0 NuttX/nuttx/libs/libc/libc.a(sem_init.o)
 .data          0x0000000000000000        0x0 NuttX/nuttx/libs/libc/libc.a(sem_init.o)
 .bss           0x0000000000000000        0x0 NuttX/nuttx/libs/libc/libc.a(sem_init.o)
 .text.sem_init
                0x0000000000000000       0x20 NuttX/nuttx/libs/libc/libc.a(sem_init.o)
 .text          0x0000000000000000        0x0 NuttX/nuttx/libs/libc/libc.a(lib_abort.o)
 .data          0x0000000000000000        0x0 NuttX/nuttx/libs/libc/libc.a(lib_abort.o)
 .bss           0x0000000000000000        0x0 NuttX/nuttx/libs/libc/libc.a(lib_abort.o)
 .text          0x0000000000000000        0x0 NuttX/nuttx/libs/libc/libc.a(lib_strcpy.o)
 .data          0x0000000000000000        0x0 NuttX/nuttx/libs/libc/libc.a(lib_strcpy.o)
 .bss           0x0000000000000000        0x0 NuttX/nuttx/libs/libc/libc.a(lib_strcpy.o)
 .text          0x0000000000000000        0x0 NuttX/nuttx/libs/libc/libc.a(lib_memcpy.o)
 .data          0x0000000000000000        0x0 NuttX/nuttx/libs/libc/libc.a(lib_memcpy.o)
 .bss           0x0000000000000000        0x0 NuttX/nuttx/libs/libc/libc.a(lib_memcpy.o)
 .text          0x0000000000000000        0x0 NuttX/nuttx/libs/libc/libc.a(lib_cfgetspeed.o)
 .data          0x0000000000000000        0x0 NuttX/nuttx/libs/libc/libc.a(lib_cfgetspeed.o)
 .bss           0x0000000000000000        0x0 NuttX/nuttx/libs/libc/libc.a(lib_cfgetspeed.o)
 .text          0x0000000000000000        0x0 NuttX/nuttx/libs/libc/libc.a(lib_cfsetspeed.o)
 .data          0x0000000000000000        0x0 NuttX/nuttx/libs/libc/libc.a(lib_cfsetspeed.o)
 .bss           0x0000000000000000        0x0 NuttX/nuttx/libs/libc/libc.a(lib_cfsetspeed.o)
 .text          0x0000000000000000        0x0 NuttX/nuttx/drivers/libdrivers.a(serial.o)
 .data          0x0000000000000000        0x0 NuttX/nuttx/drivers/libdrivers.a(serial.o)
 .bss           0x0000000000000000        0x0 NuttX/nuttx/drivers/libdrivers.a(serial.o)
 .text          0x0000000000000000        0x0 NuttX/nuttx/drivers/libdrivers.a(serial_io.o)
 .data          0x0000000000000000        0x0 NuttX/nuttx/drivers/libdrivers.a(serial_io.o)
 .bss           0x0000000000000000        0x0 NuttX/nuttx/drivers/libdrivers.a(serial_io.o)
 .text          0x0000000000000000        0x0 NuttX/nuttx/drivers/libdrivers.a(syslog_flush.o)
 .data          0x0000000000000000        0x0 NuttX/nuttx/drivers/libdrivers.a(syslog_flush.o)
 .bss           0x0000000000000000        0x0 NuttX/nuttx/drivers/libdrivers.a(syslog_flush.o)
 .text          0x0000000000000000        0x0 NuttX/nuttx/drivers/libdrivers.a(syslog_channel.o)
 .data          0x0000000000000000        0x0 NuttX/nuttx/drivers/libdrivers.a(syslog_channel.o)
 .bss           0x0000000000000000        0x0 NuttX/nuttx/drivers/libdrivers.a(syslog_channel.o)
 .text          0x0000000000000000        0x0 NuttX/nuttx/fs/libfs.a(fs_registerdriver.o)
 .data          0x0000000000000000        0x0 NuttX/nuttx/fs/libfs.a(fs_registerdriver.o)
 .bss           0x0000000000000000        0x0 NuttX/nuttx/fs/libfs.a(fs_registerdriver.o)
 .text          0x0000000000000000        0x0 NuttX/nuttx/fs/libfs.a(fs_inode.o)
 .data          0x0000000000000000        0x0 NuttX/nuttx/fs/libfs.a(fs_inode.o)
 .bss           0x0000000000000000        0x0 NuttX/nuttx/fs/libfs.a(fs_inode.o)
 .text          0x0000000000000000        0x0 NuttX/nuttx/fs/libfs.a(fs_inodereserve.o)
 .data          0x0000000000000000        0x0 NuttX/nuttx/fs/libfs.a(fs_inodereserve.o)
 .bss           0x0000000000000000        0x0 NuttX/nuttx/fs/libfs.a(fs_inodereserve.o)
 .text          0x0000000000000000        0x0 NuttX/nuttx/fs/libfs.a(fs_inodesearch.o)
 .data          0x0000000000000000        0x0 NuttX/nuttx/fs/libfs.a(fs_inodesearch.o)
 .bss           0x0000000000000000        0x0 NuttX/nuttx/fs/libfs.a(fs_inodesearch.o)
 .text          0x0000000000000000        0x0 NuttX/nuttx/mm/libmm.a(umm_zalloc.o)
 .data          0x0000000000000000        0x0 NuttX/nuttx/mm/libmm.a(umm_zalloc.o)
 .bss           0x0000000000000000        0x0 NuttX/nuttx/mm/libmm.a(umm_zalloc.o)
 .text          0x0000000000000000        0x0 NuttX/nuttx/mm/libmm.a(umm_globals.o)
 .data          0x0000000000000000        0x0 NuttX/nuttx/mm/libmm.a(umm_globals.o)
 .bss           0x0000000000000000        0x0 NuttX/nuttx/mm/libmm.a(umm_globals.o)
 .text          0x0000000000000000        0x0 NuttX/nuttx/mm/libmm.a(mm_zalloc.o)
 .data          0x0000000000000000        0x0 NuttX/nuttx/mm/libmm.a(mm_zalloc.o)
 .bss           0x0000000000000000        0x0 NuttX/nuttx/mm/libmm.a(mm_zalloc.o)
 .text          0x0000000000000000        0x0 NuttX/nuttx/mm/libmm.a(mm_malloc.o)
 .data          0x0000000000000000        0x0 NuttX/nuttx/mm/libmm.a(mm_malloc.o)
 .bss           0x0000000000000000        0x0 NuttX/nuttx/mm/libmm.a(mm_malloc.o)
 .text          0x0000000000000000        0x0 NuttX/nuttx/mm/libmm.a(mm_sem.o)
 .data          0x0000000000000000        0x0 NuttX/nuttx/mm/libmm.a(mm_sem.o)
 .bss           0x0000000000000000        0x0 NuttX/nuttx/mm/libmm.a(mm_sem.o)
 .text          0x0000000000000000        0x0 NuttX/nuttx/mm/libmm.a(mm_addfreechunk.o)
 .data          0x0000000000000000        0x0 NuttX/nuttx/mm/libmm.a(mm_addfreechunk.o)
 .bss           0x0000000000000000        0x0 NuttX/nuttx/mm/libmm.a(mm_addfreechunk.o)
 .text          0x0000000000000000        0x0 NuttX/nuttx/mm/libmm.a(mm_size2ndx.o)
 .data          0x0000000000000000        0x0 NuttX/nuttx/mm/libmm.a(mm_size2ndx.o)
 .bss           0x0000000000000000        0x0 NuttX/nuttx/mm/libmm.a(mm_size2ndx.o)
 .text          0x0000000000000000        0x0 NuttX/nuttx/sched/libsched.a(clock_initialize.o)
 .data          0x0000000000000000        0x0 NuttX/nuttx/sched/libsched.a(clock_initialize.o)
 .bss           0x0000000000000000        0x0 NuttX/nuttx/sched/libsched.a(clock_initialize.o)
 .text          0x0000000000000000        0x0 NuttX/nuttx/sched/libsched.a(clock_ticks2time.o)
 .data          0x0000000000000000        0x0 NuttX/nuttx/sched/libsched.a(clock_ticks2time.o)
 .bss           0x0000000000000000        0x0 NuttX/nuttx/sched/libsched.a(clock_ticks2time.o)
 .text          0x0000000000000000        0x0 NuttX/nuttx/sched/libsched.a(errno_getptr.o)
 .data          0x0000000000000000        0x0 NuttX/nuttx/sched/libsched.a(errno_getptr.o)
 .bss           0x0000000000000000        0x0 NuttX/nuttx/sched/libsched.a(errno_getptr.o)
 .text          0x0000000000000000        0x0 NuttX/nuttx/sched/libsched.a(nx_start.o)
 .data          0x0000000000000000        0x0 NuttX/nuttx/sched/libsched.a(nx_start.o)
 .bss           0x0000000000000000        0x0 NuttX/nuttx/sched/libsched.a(nx_start.o)
 .text          0x0000000000000000        0x0 NuttX/nuttx/sched/libsched.a(nx_bringup.o)
 .data          0x0000000000000000        0x0 NuttX/nuttx/sched/libsched.a(nx_bringup.o)
 .bss           0x0000000000000000        0x0 NuttX/nuttx/sched/libsched.a(nx_bringup.o)
 .text          0x0000000000000000        0x0 NuttX/nuttx/sched/libsched.a(irq_attach.o)
 .data          0x0000000000000000        0x0 NuttX/nuttx/sched/libsched.a(irq_attach.o)
 .bss           0x0000000000000000        0x0 NuttX/nuttx/sched/libsched.a(irq_attach.o)
 .text          0x0000000000000000        0x0 NuttX/nuttx/sched/libsched.a(irq_dispatch.o)
 .data          0x0000000000000000        0x0 NuttX/nuttx/sched/libsched.a(irq_dispatch.o)
 .bss           0x0000000000000000        0x0 NuttX/nuttx/sched/libsched.a(irq_dispatch.o)
 .text          0x0000000000000000        0x0 NuttX/nuttx/sched/libsched.a(irq_unexpectedisr.o)
 .data          0x0000000000000000        0x0 NuttX/nuttx/sched/libsched.a(irq_unexpectedisr.o)
 .bss           0x0000000000000000        0x0 NuttX/nuttx/sched/libsched.a(irq_unexpectedisr.o)
 .text          0x0000000000000000        0x0 NuttX/nuttx/sched/libsched.a(sched_garbage.o)
 .data          0x0000000000000000        0x0 NuttX/nuttx/sched/libsched.a(sched_garbage.o)
 .bss           0x0000000000000000        0x0 NuttX/nuttx/sched/libsched.a(sched_garbage.o)
 .text          0x0000000000000000        0x0 NuttX/nuttx/sched/libsched.a(sched_idletask.o)
 .data          0x0000000000000000        0x0 NuttX/nuttx/sched/libsched.a(sched_idletask.o)
 .bss           0x0000000000000000        0x0 NuttX/nuttx/sched/libsched.a(sched_idletask.o)
 .text          0x0000000000000000        0x0 NuttX/nuttx/sched/libsched.a(sem_wait.o)
 .data          0x0000000000000000        0x0 NuttX/nuttx/sched/libsched.a(sem_wait.o)
 .bss           0x0000000000000000        0x0 NuttX/nuttx/sched/libsched.a(sem_wait.o)
 .text          0x0000000000000000        0x0 NuttX/nuttx/sched/libsched.a(sem_trywait.o)
 .data          0x0000000000000000        0x0 NuttX/nuttx/sched/libsched.a(sem_trywait.o)
 .bss           0x0000000000000000        0x0 NuttX/nuttx/sched/libsched.a(sem_trywait.o)
 .text          0x0000000000000000        0x0 NuttX/nuttx/sched/libsched.a(sem_post.o)
 .data          0x0000000000000000        0x0 NuttX/nuttx/sched/libsched.a(sem_post.o)
 .bss           0x0000000000000000        0x0 NuttX/nuttx/sched/libsched.a(sem_post.o)
 .text          0x0000000000000000        0x0 NuttX/nuttx/sched/libsched.a(sem_reset.o)
 .data          0x0000000000000000        0x0 NuttX/nuttx/sched/libsched.a(sem_reset.o)
 .bss           0x0000000000000000        0x0 NuttX/nuttx/sched/libsched.a(sem_reset.o)
 .text          0x0000000000000000        0x0 NuttX/nuttx/sched/libsched.a(sig_usleep.o)
 .data          0x0000000000000000        0x0 NuttX/nuttx/sched/libsched.a(sig_usleep.o)
 .bss           0x0000000000000000        0x0 NuttX/nuttx/sched/libsched.a(sig_usleep.o)
 .text          0x0000000000000000        0x0 NuttX/nuttx/sched/libsched.a(task_create.o)
 .data          0x0000000000000000        0x0 NuttX/nuttx/sched/libsched.a(task_create.o)
 .bss           0x0000000000000000        0x0 NuttX/nuttx/sched/libsched.a(task_create.o)
 .text.task_create
                0x0000000000000000       0x20 NuttX/nuttx/sched/libsched.a(task_create.o)
 .text.kthread_create
                0x0000000000000000       0x16 NuttX/nuttx/sched/libsched.a(task_create.o)
 .text          0x0000000000000000        0x0 NuttX/nuttx/sched/libsched.a(task_setup.o)
 .data          0x0000000000000000        0x0 NuttX/nuttx/sched/libsched.a(task_setup.o)
 .bss           0x0000000000000000        0x0 NuttX/nuttx/sched/libsched.a(task_setup.o)
 .text          0x0000000000000000        0x0 NuttX/nuttx/sched/libsched.a(task_activate.o)
 .data          0x0000000000000000        0x0 NuttX/nuttx/sched/libsched.a(task_activate.o)
 .bss           0x0000000000000000        0x0 NuttX/nuttx/sched/libsched.a(task_activate.o)
 .text          0x0000000000000000        0x0 NuttX/nuttx/sched/libsched.a(task_start.o)
 .data          0x0000000000000000        0x0 NuttX/nuttx/sched/libsched.a(task_start.o)
 .bss           0x0000000000000000        0x0 NuttX/nuttx/sched/libsched.a(task_start.o)
 .text          0x0000000000000000        0x0 NuttX/nuttx/sched/libsched.a(task_getpid.o)
 .data          0x0000000000000000        0x0 NuttX/nuttx/sched/libsched.a(task_getpid.o)
 .bss           0x0000000000000000        0x0 NuttX/nuttx/sched/libsched.a(task_getpid.o)
 .text          0x0000000000000000        0x0 NuttX/nuttx/sched/libsched.a(exit.o)
 .data          0x0000000000000000        0x0 NuttX/nuttx/sched/libsched.a(exit.o)
 .bss           0x0000000000000000        0x0 NuttX/nuttx/sched/libsched.a(exit.o)
 .text          0x0000000000000000        0x0 NuttX/nuttx/sched/libsched.a(group_create.o)
 .data          0x0000000000000000        0x0 NuttX/nuttx/sched/libsched.a(group_create.o)
 .bss           0x0000000000000000        0x0 NuttX/nuttx/sched/libsched.a(group_create.o)
 .text          0x0000000000000000        0x0 NuttX/nuttx/sched/libsched.a(group_setupidlefiles.o)
 .data          0x0000000000000000        0x0 NuttX/nuttx/sched/libsched.a(group_setupidlefiles.o)
 .bss           0x0000000000000000        0x0 NuttX/nuttx/sched/libsched.a(group_setupidlefiles.o)
 .text          0x0000000000000000        0x0 NuttX/nuttx/sched/libsched.a(group_setuptaskfiles.o)
 .data          0x0000000000000000        0x0 NuttX/nuttx/sched/libsched.a(group_setuptaskfiles.o)
 .bss           0x0000000000000000        0x0 NuttX/nuttx/sched/libsched.a(group_setuptaskfiles.o)
 .text          0x0000000000000000        0x0 NuttX/nuttx/sched/libsched.a(irq_initialize.o)
 .data          0x0000000000000000        0x0 NuttX/nuttx/sched/libsched.a(irq_initialize.o)
 .bss           0x0000000000000000        0x0 NuttX/nuttx/sched/libsched.a(irq_initialize.o)
 .text          0x0000000000000000        0x0 NuttX/nuttx/sched/libsched.a(sched_releasetcb.o)
 .data          0x0000000000000000        0x0 NuttX/nuttx/sched/libsched.a(sched_releasetcb.o)
 .bss           0x0000000000000000        0x0 NuttX/nuttx/sched/libsched.a(sched_releasetcb.o)
 .text          0x0000000000000000        0x0 NuttX/nuttx/sched/libsched.a(sched_lock.o)
 .data          0x0000000000000000        0x0 NuttX/nuttx/sched/libsched.a(sched_lock.o)
 .bss           0x0000000000000000        0x0 NuttX/nuttx/sched/libsched.a(sched_lock.o)
 .text          0x0000000000000000        0x0 NuttX/nuttx/sched/libsched.a(sched_unlock.o)
 .data          0x0000000000000000        0x0 NuttX/nuttx/sched/libsched.a(sched_unlock.o)
 .bss           0x0000000000000000        0x0 NuttX/nuttx/sched/libsched.a(sched_unlock.o)
 .text          0x0000000000000000        0x0 NuttX/nuttx/sched/libsched.a(sig_procmask.o)
 .data          0x0000000000000000        0x0 NuttX/nuttx/sched/libsched.a(sig_procmask.o)
 .bss           0x0000000000000000        0x0 NuttX/nuttx/sched/libsched.a(sig_procmask.o)
 .text.sigprocmask
                0x0000000000000000       0x1a NuttX/nuttx/sched/libsched.a(sig_procmask.o)
 .text          0x0000000000000000        0x0 NuttX/nuttx/sched/libsched.a(sig_unmaskpendingsignal.o)
 .data          0x0000000000000000        0x0 NuttX/nuttx/sched/libsched.a(sig_unmaskpendingsignal.o)
 .bss           0x0000000000000000        0x0 NuttX/nuttx/sched/libsched.a(sig_unmaskpendingsignal.o)
 .text          0x0000000000000000        0x0 NuttX/nuttx/sched/libsched.a(sig_removependingsignal.o)
 .data          0x0000000000000000        0x0 NuttX/nuttx/sched/libsched.a(sig_removependingsignal.o)
 .bss           0x0000000000000000        0x0 NuttX/nuttx/sched/libsched.a(sig_removependingsignal.o)
 .text          0x0000000000000000        0x0 NuttX/nuttx/sched/libsched.a(sig_releasependingsignal.o)
 .data          0x0000000000000000        0x0 NuttX/nuttx/sched/libsched.a(sig_releasependingsignal.o)
 .bss           0x0000000000000000        0x0 NuttX/nuttx/sched/libsched.a(sig_releasependingsignal.o)
 .text          0x0000000000000000        0x0 NuttX/nuttx/sched/libsched.a(sig_lowest.o)
 .data          0x0000000000000000        0x0 NuttX/nuttx/sched/libsched.a(sig_lowest.o)
 .bss           0x0000000000000000        0x0 NuttX/nuttx/sched/libsched.a(sig_lowest.o)
 .text          0x0000000000000000        0x0 NuttX/nuttx/sched/libsched.a(sig_dispatch.o)
 .data          0x0000000000000000        0x0 NuttX/nuttx/sched/libsched.a(sig_dispatch.o)
 .bss           0x0000000000000000        0x0 NuttX/nuttx/sched/libsched.a(sig_dispatch.o)
 .text.nxsig_dispatch
                0x0000000000000000       0x1a NuttX/nuttx/sched/libsched.a(sig_dispatch.o)
 .text          0x0000000000000000        0x0 NuttX/nuttx/sched/libsched.a(sig_deliver.o)
 .data          0x0000000000000000        0x0 NuttX/nuttx/sched/libsched.a(sig_deliver.o)
 .bss           0x0000000000000000        0x0 NuttX/nuttx/sched/libsched.a(sig_deliver.o)
 .text          0x0000000000000000        0x0 NuttX/nuttx/sched/libsched.a(sig_nanosleep.o)
 .data          0x0000000000000000        0x0 NuttX/nuttx/sched/libsched.a(sig_nanosleep.o)
 .bss           0x0000000000000000        0x0 NuttX/nuttx/sched/libsched.a(sig_nanosleep.o)
 .text.clock_nanosleep
                0x0000000000000000       0x60 NuttX/nuttx/sched/libsched.a(sig_nanosleep.o)
 .text          0x0000000000000000        0x0 NuttX/nuttx/sched/libsched.a(task_exithook.o)
 .data          0x0000000000000000        0x0 NuttX/nuttx/sched/libsched.a(task_exithook.o)
 .bss           0x0000000000000000        0x0 NuttX/nuttx/sched/libsched.a(task_exithook.o)
 .text          0x0000000000000000        0x0 NuttX/nuttx/sched/libsched.a(task_recover.o)
 .data          0x0000000000000000        0x0 NuttX/nuttx/sched/libsched.a(task_recover.o)
 .bss           0x0000000000000000        0x0 NuttX/nuttx/sched/libsched.a(task_recover.o)
 .text          0x0000000000000000        0x0 NuttX/nuttx/sched/libsched.a(wd_recover.o)
 .data          0x0000000000000000        0x0 NuttX/nuttx/sched/libsched.a(wd_recover.o)
 .bss           0x0000000000000000        0x0 NuttX/nuttx/sched/libsched.a(wd_recover.o)
 .text          0x0000000000000000        0x0 NuttX/nuttx/sched/libsched.a(clock_gettime.o)
 .data          0x0000000000000000        0x0 NuttX/nuttx/sched/libsched.a(clock_gettime.o)
 .bss           0x0000000000000000        0x0 NuttX/nuttx/sched/libsched.a(clock_gettime.o)
 .text.clock_gettime
                0x0000000000000000       0x80 NuttX/nuttx/sched/libsched.a(clock_gettime.o)
 .debug_info    0x0000000000000000      0x2f9 NuttX/nuttx/sched/libsched.a(clock_gettime.o)
 .debug_abbrev  0x0000000000000000      0x219 NuttX/nuttx/sched/libsched.a(clock_gettime.o)
 .debug_loc     0x0000000000000000       0xdb NuttX/nuttx/sched/libsched.a(clock_gettime.o)
 .debug_aranges
                0x0000000000000000       0x20 NuttX/nuttx/sched/libsched.a(clock_gettime.o)
 .debug_ranges  0x0000000000000000       0x28 NuttX/nuttx/sched/libsched.a(clock_gettime.o)
 .debug_line    0x0000000000000000      0x325 NuttX/nuttx/sched/libsched.a(clock_gettime.o)
 .debug_str     0x0000000000000000      0x307 NuttX/nuttx/sched/libsched.a(clock_gettime.o)
 .comment       0x0000000000000000       0x7f NuttX/nuttx/sched/libsched.a(clock_gettime.o)
 .debug_frame   0x0000000000000000       0x30 NuttX/nuttx/sched/libsched.a(clock_gettime.o)
 .ARM.attributes
                0x0000000000000000       0x33 NuttX/nuttx/sched/libsched.a(clock_gettime.o)
 .text          0x0000000000000000        0x0 NuttX/nuttx/sched/libsched.a(clock_time2ticks.o)
 .data          0x0000000000000000        0x0 NuttX/nuttx/sched/libsched.a(clock_time2ticks.o)
 .bss           0x0000000000000000        0x0 NuttX/nuttx/sched/libsched.a(clock_time2ticks.o)
 .text          0x0000000000000000        0x0 NuttX/nuttx/sched/libsched.a(clock_systimespec.o)
 .data          0x0000000000000000        0x0 NuttX/nuttx/sched/libsched.a(clock_systimespec.o)
 .bss           0x0000000000000000        0x0 NuttX/nuttx/sched/libsched.a(clock_systimespec.o)
 .text.clock_systimespec
                0x0000000000000000       0x3c NuttX/nuttx/sched/libsched.a(clock_systimespec.o)
 .debug_info    0x0000000000000000      0x18f NuttX/nuttx/sched/libsched.a(clock_systimespec.o)
 .debug_abbrev  0x0000000000000000       0xd5 NuttX/nuttx/sched/libsched.a(clock_systimespec.o)
 .debug_loc     0x0000000000000000       0x44 NuttX/nuttx/sched/libsched.a(clock_systimespec.o)
 .debug_aranges
                0x0000000000000000       0x20 NuttX/nuttx/sched/libsched.a(clock_systimespec.o)
 .debug_ranges  0x0000000000000000       0x30 NuttX/nuttx/sched/libsched.a(clock_systimespec.o)
 .debug_line    0x0000000000000000      0x26d NuttX/nuttx/sched/libsched.a(clock_systimespec.o)
 .debug_str     0x0000000000000000      0x29f NuttX/nuttx/sched/libsched.a(clock_systimespec.o)
 .comment       0x0000000000000000       0x7f NuttX/nuttx/sched/libsched.a(clock_systimespec.o)
 .debug_frame   0x0000000000000000       0x2c NuttX/nuttx/sched/libsched.a(clock_systimespec.o)
 .ARM.attributes
                0x0000000000000000       0x33 NuttX/nuttx/sched/libsched.a(clock_systimespec.o)
 .text          0x0000000000000000        0x0 NuttX/nuttx/sched/libsched.a(clock_timespec_subtract.o)
 .data          0x0000000000000000        0x0 NuttX/nuttx/sched/libsched.a(clock_timespec_subtract.o)
 .bss           0x0000000000000000        0x0 NuttX/nuttx/sched/libsched.a(clock_timespec_subtract.o)
 .text.clock_timespec_subtract
                0x0000000000000000       0x3c NuttX/nuttx/sched/libsched.a(clock_timespec_subtract.o)
 .debug_info    0x0000000000000000      0x15d NuttX/nuttx/sched/libsched.a(clock_timespec_subtract.o)
 .debug_abbrev  0x0000000000000000       0xe4 NuttX/nuttx/sched/libsched.a(clock_timespec_subtract.o)
 .debug_loc     0x0000000000000000       0x65 NuttX/nuttx/sched/libsched.a(clock_timespec_subtract.o)
 .debug_aranges
                0x0000000000000000       0x20 NuttX/nuttx/sched/libsched.a(clock_timespec_subtract.o)
 .debug_ranges  0x0000000000000000       0x10 NuttX/nuttx/sched/libsched.a(clock_timespec_subtract.o)
 .debug_line    0x0000000000000000      0x266 NuttX/nuttx/sched/libsched.a(clock_timespec_subtract.o)
 .debug_str     0x0000000000000000      0x271 NuttX/nuttx/sched/libsched.a(clock_timespec_subtract.o)
 .comment       0x0000000000000000       0x7f NuttX/nuttx/sched/libsched.a(clock_timespec_subtract.o)
 .debug_frame   0x0000000000000000       0x2c NuttX/nuttx/sched/libsched.a(clock_timespec_subtract.o)
 .ARM.attributes
                0x0000000000000000       0x33 NuttX/nuttx/sched/libsched.a(clock_timespec_subtract.o)
 .text          0x0000000000000000        0x0 NuttX/nuttx/sched/libsched.a(group_leave.o)
 .data          0x0000000000000000        0x0 NuttX/nuttx/sched/libsched.a(group_leave.o)
 .bss           0x0000000000000000        0x0 NuttX/nuttx/sched/libsched.a(group_leave.o)
 .text          0x0000000000000000        0x0 NuttX/nuttx/sched/libsched.a(sched_free.o)
 .data          0x0000000000000000        0x0 NuttX/nuttx/sched/libsched.a(sched_free.o)
 .bss           0x0000000000000000        0x0 NuttX/nuttx/sched/libsched.a(sched_free.o)
 .text.sched_signal_free
                0x0000000000000000        0x2 NuttX/nuttx/sched/libsched.a(sched_free.o)
 .text          0x0000000000000000        0x0 NuttX/nuttx/sched/libsched.a(sched_gettcb.o)
 .data          0x0000000000000000        0x0 NuttX/nuttx/sched/libsched.a(sched_gettcb.o)
 .bss           0x0000000000000000        0x0 NuttX/nuttx/sched/libsched.a(sched_gettcb.o)
 .text          0x0000000000000000        0x0 NuttX/nuttx/sched/libsched.a(sem_recover.o)
 .data          0x0000000000000000        0x0 NuttX/nuttx/sched/libsched.a(sem_recover.o)
 .bss           0x0000000000000000        0x0 NuttX/nuttx/sched/libsched.a(sem_recover.o)
 .text          0x0000000000000000        0x0 NuttX/nuttx/sched/libsched.a(sem_waitirq.o)
 .data          0x0000000000000000        0x0 NuttX/nuttx/sched/libsched.a(sem_waitirq.o)
 .bss           0x0000000000000000        0x0 NuttX/nuttx/sched/libsched.a(sem_waitirq.o)
 .text          0x0000000000000000        0x0 NuttX/nuttx/sched/libsched.a(sig_initialize.o)
 .data          0x0000000000000000        0x0 NuttX/nuttx/sched/libsched.a(sig_initialize.o)
 .bss           0x0000000000000000        0x0 NuttX/nuttx/sched/libsched.a(sig_initialize.o)
 .text          0x0000000000000000        0x0 NuttX/nuttx/sched/libsched.a(sig_pending.o)
 .data          0x0000000000000000        0x0 NuttX/nuttx/sched/libsched.a(sig_pending.o)
 .bss           0x0000000000000000        0x0 NuttX/nuttx/sched/libsched.a(sig_pending.o)
 .text.sigpending
                0x0000000000000000       0x20 NuttX/nuttx/sched/libsched.a(sig_pending.o)
 .text          0x0000000000000000        0x0 NuttX/nuttx/sched/libsched.a(sig_timedwait.o)
 .data          0x0000000000000000        0x0 NuttX/nuttx/sched/libsched.a(sig_timedwait.o)
 .bss           0x0000000000000000        0x0 NuttX/nuttx/sched/libsched.a(sig_timedwait.o)
 .text.sigtimedwait
                0x0000000000000000       0x1a NuttX/nuttx/sched/libsched.a(sig_timedwait.o)
 .text          0x0000000000000000        0x0 NuttX/nuttx/sched/libsched.a(sig_findaction.o)
 .data          0x0000000000000000        0x0 NuttX/nuttx/sched/libsched.a(sig_findaction.o)
 .bss           0x0000000000000000        0x0 NuttX/nuttx/sched/libsched.a(sig_findaction.o)
 .text          0x0000000000000000        0x0 NuttX/nuttx/sched/libsched.a(sig_allocpendingsigaction.o)
 .data          0x0000000000000000        0x0 NuttX/nuttx/sched/libsched.a(sig_allocpendingsigaction.o)
 .bss           0x0000000000000000        0x0 NuttX/nuttx/sched/libsched.a(sig_allocpendingsigaction.o)
 .text          0x0000000000000000        0x0 NuttX/nuttx/sched/libsched.a(sig_releasependingsigaction.o)
 .data          0x0000000000000000        0x0 NuttX/nuttx/sched/libsched.a(sig_releasependingsigaction.o)
 .bss           0x0000000000000000        0x0 NuttX/nuttx/sched/libsched.a(sig_releasependingsigaction.o)
 .text          0x0000000000000000        0x0 NuttX/nuttx/sched/libsched.a(sig_cleanup.o)
 .data          0x0000000000000000        0x0 NuttX/nuttx/sched/libsched.a(sig_cleanup.o)
 .bss           0x0000000000000000        0x0 NuttX/nuttx/sched/libsched.a(sig_cleanup.o)
 .text          0x0000000000000000        0x0 NuttX/nuttx/sched/libsched.a(wd_create.o)
 .data          0x0000000000000000        0x0 NuttX/nuttx/sched/libsched.a(wd_create.o)
 .bss           0x0000000000000000        0x0 NuttX/nuttx/sched/libsched.a(wd_create.o)
 .text          0x0000000000000000        0x0 NuttX/nuttx/sched/libsched.a(wd_start.o)
 .data          0x0000000000000000        0x0 NuttX/nuttx/sched/libsched.a(wd_start.o)
 .bss           0x0000000000000000        0x0 NuttX/nuttx/sched/libsched.a(wd_start.o)
 .text          0x0000000000000000        0x0 NuttX/nuttx/sched/libsched.a(wd_cancel.o)
 .data          0x0000000000000000        0x0 NuttX/nuttx/sched/libsched.a(wd_cancel.o)
 .bss           0x0000000000000000        0x0 NuttX/nuttx/sched/libsched.a(wd_cancel.o)
 .text          0x0000000000000000        0x0 NuttX/nuttx/sched/libsched.a(wd_delete.o)
 .data          0x0000000000000000        0x0 NuttX/nuttx/sched/libsched.a(wd_delete.o)
 .bss           0x0000000000000000        0x0 NuttX/nuttx/sched/libsched.a(wd_delete.o)
 .text          0x0000000000000000        0x0 NuttX/nuttx/sched/libsched.a(sig_action.o)
 .data          0x0000000000000000        0x0 NuttX/nuttx/sched/libsched.a(sig_action.o)
 .bss           0x0000000000000000        0x0 NuttX/nuttx/sched/libsched.a(sig_action.o)
 .text.nxsig_action
                0x0000000000000000       0x98 NuttX/nuttx/sched/libsched.a(sig_action.o)
 .text.sigaction
                0x0000000000000000       0x1e NuttX/nuttx/sched/libsched.a(sig_action.o)
 .text          0x0000000000000000        0x0 NuttX/nuttx/sched/libsched.a(wd_initialize.o)
 .data          0x0000000000000000        0x0 NuttX/nuttx/sched/libsched.a(wd_initialize.o)
 .bss           0x0000000000000000        0x0 NuttX/nuttx/sched/libsched.a(wd_initialize.o)
 .text          0x0000000000000000        0x0 NuttX/nuttx/arch/arm/src/libarch.a(stm32_allocateheap.o)
 .data          0x0000000000000000        0x0 NuttX/nuttx/arch/arm/src/libarch.a(stm32_allocateheap.o)
 .bss           0x0000000000000000        0x0 NuttX/nuttx/arch/arm/src/libarch.a(stm32_allocateheap.o)
 .text          0x0000000000000000        0x0 NuttX/nuttx/arch/arm/src/libarch.a(stm32_idle.o)
 .data          0x0000000000000000        0x0 NuttX/nuttx/arch/arm/src/libarch.a(stm32_idle.o)
 .bss           0x0000000000000000        0x0 NuttX/nuttx/arch/arm/src/libarch.a(stm32_idle.o)
 .text          0x0000000000000000        0x0 NuttX/nuttx/arch/arm/src/libarch.a(up_blocktask.o)
 .data          0x0000000000000000        0x0 NuttX/nuttx/arch/arm/src/libarch.a(up_blocktask.o)
 .bss           0x0000000000000000        0x0 NuttX/nuttx/arch/arm/src/libarch.a(up_blocktask.o)
 .text          0x0000000000000000        0x0 NuttX/nuttx/arch/arm/src/libarch.a(up_copyfullstate.o)
 .data          0x0000000000000000        0x0 NuttX/nuttx/arch/arm/src/libarch.a(up_copyfullstate.o)
 .bss           0x0000000000000000        0x0 NuttX/nuttx/arch/arm/src/libarch.a(up_copyfullstate.o)
 .text          0x0000000000000000        0x0 NuttX/nuttx/arch/arm/src/libarch.a(up_createstack.o)
 .data          0x0000000000000000        0x0 NuttX/nuttx/arch/arm/src/libarch.a(up_createstack.o)
 .bss           0x0000000000000000        0x0 NuttX/nuttx/arch/arm/src/libarch.a(up_createstack.o)
 .text          0x0000000000000000        0x0 NuttX/nuttx/arch/arm/src/libarch.a(up_exit.o)
 .data          0x0000000000000000        0x0 NuttX/nuttx/arch/arm/src/libarch.a(up_exit.o)
 .bss           0x0000000000000000        0x0 NuttX/nuttx/arch/arm/src/libarch.a(up_exit.o)
 .text          0x0000000000000000        0x0 NuttX/nuttx/arch/arm/src/libarch.a(up_initialize.o)
 .data          0x0000000000000000        0x0 NuttX/nuttx/arch/arm/src/libarch.a(up_initialize.o)
 .bss           0x0000000000000000        0x0 NuttX/nuttx/arch/arm/src/libarch.a(up_initialize.o)
 .text          0x0000000000000000        0x0 NuttX/nuttx/arch/arm/src/libarch.a(up_initialstate.o)
 .data          0x0000000000000000        0x0 NuttX/nuttx/arch/arm/src/libarch.a(up_initialstate.o)
 .bss           0x0000000000000000        0x0 NuttX/nuttx/arch/arm/src/libarch.a(up_initialstate.o)
 .text          0x0000000000000000        0x0 NuttX/nuttx/arch/arm/src/libarch.a(up_releasepending.o)
 .data          0x0000000000000000        0x0 NuttX/nuttx/arch/arm/src/libarch.a(up_releasepending.o)
 .bss           0x0000000000000000        0x0 NuttX/nuttx/arch/arm/src/libarch.a(up_releasepending.o)
 .text          0x0000000000000000        0x0 NuttX/nuttx/arch/arm/src/libarch.a(up_releasestack.o)
 .data          0x0000000000000000        0x0 NuttX/nuttx/arch/arm/src/libarch.a(up_releasestack.o)
 .bss           0x0000000000000000        0x0 NuttX/nuttx/arch/arm/src/libarch.a(up_releasestack.o)
 .text          0x0000000000000000        0x0 NuttX/nuttx/arch/arm/src/libarch.a(up_schedulesigaction.o)
 .data          0x0000000000000000        0x0 NuttX/nuttx/arch/arm/src/libarch.a(up_schedulesigaction.o)
 .bss           0x0000000000000000        0x0 NuttX/nuttx/arch/arm/src/libarch.a(up_schedulesigaction.o)
 .text          0x0000000000000000        0x0 NuttX/nuttx/arch/arm/src/libarch.a(up_sigdeliver.o)
 .data          0x0000000000000000        0x0 NuttX/nuttx/arch/arm/src/libarch.a(up_sigdeliver.o)
 .bss           0x0000000000000000        0x0 NuttX/nuttx/arch/arm/src/libarch.a(up_sigdeliver.o)
 .text          0x0000000000000000        0x0 NuttX/nuttx/arch/arm/src/libarch.a(up_stackframe.o)
 .data          0x0000000000000000        0x0 NuttX/nuttx/arch/arm/src/libarch.a(up_stackframe.o)
 .bss           0x0000000000000000        0x0 NuttX/nuttx/arch/arm/src/libarch.a(up_stackframe.o)
 .text          0x0000000000000000        0x0 NuttX/nuttx/arch/arm/src/libarch.a(up_unblocktask.o)
 .data          0x0000000000000000        0x0 NuttX/nuttx/arch/arm/src/libarch.a(up_unblocktask.o)
 .bss           0x0000000000000000        0x0 NuttX/nuttx/arch/arm/src/libarch.a(up_unblocktask.o)
 .data          0x0000000000000000        0x0 NuttX/nuttx/arch/arm/src/libarch.a(up_fullcontextrestore.o)
 .bss           0x0000000000000000        0x0 NuttX/nuttx/arch/arm/src/libarch.a(up_fullcontextrestore.o)
 .data          0x0000000000000000        0x0 NuttX/nuttx/arch/arm/src/libarch.a(up_switchcontext.o)
 .bss           0x0000000000000000        0x0 NuttX/nuttx/arch/arm/src/libarch.a(up_switchcontext.o)
 .text          0x0000000000000000        0x0 NuttX/nuttx/arch/arm/src/libarch.a(stm32_timerisr.o)
 .data          0x0000000000000000        0x0 NuttX/nuttx/arch/arm/src/libarch.a(stm32_timerisr.o)
 .bss           0x0000000000000000        0x0 NuttX/nuttx/arch/arm/src/libarch.a(stm32_timerisr.o)
 .text          0x0000000000000000        0x0 NuttX/nuttx/libs/libc/libc.a(sq_addlast.o)
 .data          0x0000000000000000        0x0 NuttX/nuttx/libs/libc/libc.a(sq_addlast.o)
 .bss           0x0000000000000000        0x0 NuttX/nuttx/libs/libc/libc.a(sq_addlast.o)
 .text          0x0000000000000000        0x0 NuttX/nuttx/libs/libc/libc.a(sq_addfirst.o)
 .data          0x0000000000000000        0x0 NuttX/nuttx/libs/libc/libc.a(sq_addfirst.o)
 .bss           0x0000000000000000        0x0 NuttX/nuttx/libs/libc/libc.a(sq_addfirst.o)
 .text          0x0000000000000000        0x0 NuttX/nuttx/libs/libc/libc.a(sq_addafter.o)
 .data          0x0000000000000000        0x0 NuttX/nuttx/libs/libc/libc.a(sq_addafter.o)
 .bss           0x0000000000000000        0x0 NuttX/nuttx/libs/libc/libc.a(sq_addafter.o)
 .text          0x0000000000000000        0x0 NuttX/nuttx/libs/libc/libc.a(sq_rem.o)
 .data          0x0000000000000000        0x0 NuttX/nuttx/libs/libc/libc.a(sq_rem.o)
 .bss           0x0000000000000000        0x0 NuttX/nuttx/libs/libc/libc.a(sq_rem.o)
 .text          0x0000000000000000        0x0 NuttX/nuttx/libs/libc/libc.a(sq_remfirst.o)
 .data          0x0000000000000000        0x0 NuttX/nuttx/libs/libc/libc.a(sq_remfirst.o)
 .bss           0x0000000000000000        0x0 NuttX/nuttx/libs/libc/libc.a(sq_remfirst.o)
 .text          0x0000000000000000        0x0 NuttX/nuttx/libs/libc/libc.a(sq_remafter.o)
 .data          0x0000000000000000        0x0 NuttX/nuttx/libs/libc/libc.a(sq_remafter.o)
 .bss           0x0000000000000000        0x0 NuttX/nuttx/libs/libc/libc.a(sq_remafter.o)
 .text          0x0000000000000000        0x0 NuttX/nuttx/libs/libc/libc.a(dq_addfirst.o)
 .data          0x0000000000000000        0x0 NuttX/nuttx/libs/libc/libc.a(dq_addfirst.o)
 .bss           0x0000000000000000        0x0 NuttX/nuttx/libs/libc/libc.a(dq_addfirst.o)
 .text          0x0000000000000000        0x0 NuttX/nuttx/libs/libc/libc.a(dq_rem.o)
 .data          0x0000000000000000        0x0 NuttX/nuttx/libs/libc/libc.a(dq_rem.o)
 .bss           0x0000000000000000        0x0 NuttX/nuttx/libs/libc/libc.a(dq_rem.o)
 .text          0x0000000000000000        0x0 NuttX/nuttx/libs/libc/libc.a(sem_getvalue.o)
 .data          0x0000000000000000        0x0 NuttX/nuttx/libs/libc/libc.a(sem_getvalue.o)
 .bss           0x0000000000000000        0x0 NuttX/nuttx/libs/libc/libc.a(sem_getvalue.o)
 .text.sem_getvalue
                0x0000000000000000       0x1a NuttX/nuttx/libs/libc/libc.a(sem_getvalue.o)
 .text          0x0000000000000000        0x0 NuttX/nuttx/libs/libc/libc.a(sem_setprotocol.o)
 .data          0x0000000000000000        0x0 NuttX/nuttx/libs/libc/libc.a(sem_setprotocol.o)
 .bss           0x0000000000000000        0x0 NuttX/nuttx/libs/libc/libc.a(sem_setprotocol.o)
 .text.sem_setprotocol
                0x0000000000000000       0x1a NuttX/nuttx/libs/libc/libc.a(sem_setprotocol.o)
 .text          0x0000000000000000        0x0 NuttX/nuttx/libs/libc/libc.a(sig_addset.o)
 .data          0x0000000000000000        0x0 NuttX/nuttx/libs/libc/libc.a(sig_addset.o)
 .bss           0x0000000000000000        0x0 NuttX/nuttx/libs/libc/libc.a(sig_addset.o)
 .text          0x0000000000000000        0x0 NuttX/nuttx/libs/libc/libc.a(sig_delset.o)
 .data          0x0000000000000000        0x0 NuttX/nuttx/libs/libc/libc.a(sig_delset.o)
 .bss           0x0000000000000000        0x0 NuttX/nuttx/libs/libc/libc.a(sig_delset.o)
 .text          0x0000000000000000        0x0 NuttX/nuttx/libs/libc/libc.a(sig_emptyset.o)
 .data          0x0000000000000000        0x0 NuttX/nuttx/libs/libc/libc.a(sig_emptyset.o)
 .bss           0x0000000000000000        0x0 NuttX/nuttx/libs/libc/libc.a(sig_emptyset.o)
 .text          0x0000000000000000        0x0 NuttX/nuttx/libs/libc/libc.a(sig_ismember.o)
 .data          0x0000000000000000        0x0 NuttX/nuttx/libs/libc/libc.a(sig_ismember.o)
 .bss           0x0000000000000000        0x0 NuttX/nuttx/libs/libc/libc.a(sig_ismember.o)
 .text          0x0000000000000000        0x0 NuttX/nuttx/libs/libc/libc.a(lib_memset.o)
 .data          0x0000000000000000        0x0 NuttX/nuttx/libs/libc/libc.a(lib_memset.o)
 .bss           0x0000000000000000        0x0 NuttX/nuttx/libs/libc/libc.a(lib_memset.o)
 .text          0x0000000000000000        0x0 NuttX/nuttx/libs/libc/libc.a(lib_strlen.o)
 .data          0x0000000000000000        0x0 NuttX/nuttx/libs/libc/libc.a(lib_strlen.o)
 .bss           0x0000000000000000        0x0 NuttX/nuttx/libs/libc/libc.a(lib_strlen.o)
 .text          0x0000000000000000        0x0 NuttX/nuttx/libs/libc/libc.a(lib_calendar2utc.o)
 .data          0x0000000000000000        0x0 NuttX/nuttx/libs/libc/libc.a(lib_calendar2utc.o)
 .bss           0x0000000000000000        0x0 NuttX/nuttx/libs/libc/libc.a(lib_calendar2utc.o)
 .text          0x0000000000000000        0x0 NuttX/nuttx/libs/libc/libc.a(lib_daysbeforemonth.o)
 .data          0x0000000000000000        0x0 NuttX/nuttx/libs/libc/libc.a(lib_daysbeforemonth.o)
 .bss           0x0000000000000000        0x0 NuttX/nuttx/libs/libc/libc.a(lib_daysbeforemonth.o)
 .text          0x0000000000000000        0x0 NuttX/nuttx/libs/libc/libc.a(lib_isleapyear.o)
 .data          0x0000000000000000        0x0 NuttX/nuttx/libs/libc/libc.a(lib_isleapyear.o)
 .bss           0x0000000000000000        0x0 NuttX/nuttx/libs/libc/libc.a(lib_isleapyear.o)
 .text          0x0000000000000000        0x0 NuttX/nuttx/drivers/libdrivers.a(syslog_initialize.o)
 .data          0x0000000000000000        0x0 NuttX/nuttx/drivers/libdrivers.a(syslog_initialize.o)
 .bss           0x0000000000000000        0x0 NuttX/nuttx/drivers/libdrivers.a(syslog_initialize.o)
 .text          0x0000000000000000        0x0 NuttX/nuttx/drivers/libdrivers.a(syslog_consolechannel.o)
 .data          0x0000000000000000        0x0 NuttX/nuttx/drivers/libdrivers.a(syslog_consolechannel.o)
 .bss           0x0000000000000000        0x0 NuttX/nuttx/drivers/libdrivers.a(syslog_consolechannel.o)
 .text          0x0000000000000000        0x0 NuttX/nuttx/drivers/libdrivers.a(syslog_device.o)
 .data          0x0000000000000000        0x0 NuttX/nuttx/drivers/libdrivers.a(syslog_device.o)
 .bss           0x0000000000000000        0x0 NuttX/nuttx/drivers/libdrivers.a(syslog_device.o)
 .text          0x0000000000000000        0x0 NuttX/nuttx/fs/libfs.a(fs_initialize.o)
 .data          0x0000000000000000        0x0 NuttX/nuttx/fs/libfs.a(fs_initialize.o)
 .bss           0x0000000000000000        0x0 NuttX/nuttx/fs/libfs.a(fs_initialize.o)
 .text          0x0000000000000000        0x0 NuttX/nuttx/fs/libfs.a(fs_files.o)
 .data          0x0000000000000000        0x0 NuttX/nuttx/fs/libfs.a(fs_files.o)
 .bss           0x0000000000000000        0x0 NuttX/nuttx/fs/libfs.a(fs_files.o)
 .text          0x0000000000000000        0x0 NuttX/nuttx/fs/libfs.a(fs_inodeaddref.o)
 .data          0x0000000000000000        0x0 NuttX/nuttx/fs/libfs.a(fs_inodeaddref.o)
 .bss           0x0000000000000000        0x0 NuttX/nuttx/fs/libfs.a(fs_inodeaddref.o)
 .text          0x0000000000000000        0x0 NuttX/nuttx/fs/libfs.a(fs_inoderelease.o)
 .data          0x0000000000000000        0x0 NuttX/nuttx/fs/libfs.a(fs_inoderelease.o)
 .bss           0x0000000000000000        0x0 NuttX/nuttx/fs/libfs.a(fs_inoderelease.o)
 .text          0x0000000000000000        0x0 NuttX/nuttx/fs/libfs.a(fs_fileopen.o)
 .data          0x0000000000000000        0x0 NuttX/nuttx/fs/libfs.a(fs_fileopen.o)
 .bss           0x0000000000000000        0x0 NuttX/nuttx/fs/libfs.a(fs_fileopen.o)
 .text          0x0000000000000000        0x0 NuttX/nuttx/fs/libfs.a(fs_filedetach.o)
 .data          0x0000000000000000        0x0 NuttX/nuttx/fs/libfs.a(fs_filedetach.o)
 .bss           0x0000000000000000        0x0 NuttX/nuttx/fs/libfs.a(fs_filedetach.o)
 .text          0x0000000000000000        0x0 NuttX/nuttx/fs/libfs.a(fs_close.o)
 .data          0x0000000000000000        0x0 NuttX/nuttx/fs/libfs.a(fs_close.o)
 .bss           0x0000000000000000        0x0 NuttX/nuttx/fs/libfs.a(fs_close.o)
 .text          0x0000000000000000        0x0 NuttX/nuttx/fs/libfs.a(fs_dupfd2.o)
 .data          0x0000000000000000        0x0 NuttX/nuttx/fs/libfs.a(fs_dupfd2.o)
 .bss           0x0000000000000000        0x0 NuttX/nuttx/fs/libfs.a(fs_dupfd2.o)
 .text          0x0000000000000000        0x0 NuttX/nuttx/fs/libfs.a(fs_getfilep.o)
 .data          0x0000000000000000        0x0 NuttX/nuttx/fs/libfs.a(fs_getfilep.o)
 .bss           0x0000000000000000        0x0 NuttX/nuttx/fs/libfs.a(fs_getfilep.o)
 .text          0x0000000000000000        0x0 NuttX/nuttx/fs/libfs.a(fs_open.o)
 .data          0x0000000000000000        0x0 NuttX/nuttx/fs/libfs.a(fs_open.o)
 .bss           0x0000000000000000        0x0 NuttX/nuttx/fs/libfs.a(fs_open.o)
 .text          0x0000000000000000        0x0 NuttX/nuttx/fs/libfs.a(fs_write.o)
 .data          0x0000000000000000        0x0 NuttX/nuttx/fs/libfs.a(fs_write.o)
 .bss           0x0000000000000000        0x0 NuttX/nuttx/fs/libfs.a(fs_write.o)
 .text          0x0000000000000000        0x0 NuttX/nuttx/fs/libfs.a(fs_inodefind.o)
 .data          0x0000000000000000        0x0 NuttX/nuttx/fs/libfs.a(fs_inodefind.o)
 .bss           0x0000000000000000        0x0 NuttX/nuttx/fs/libfs.a(fs_inodefind.o)
 .text          0x0000000000000000        0x0 NuttX/nuttx/fs/libfs.a(fs_inodefree.o)
 .data          0x0000000000000000        0x0 NuttX/nuttx/fs/libfs.a(fs_inodefree.o)
 .bss           0x0000000000000000        0x0 NuttX/nuttx/fs/libfs.a(fs_inodefree.o)
 .text          0x0000000000000000        0x0 NuttX/nuttx/mm/libmm.a(umm_initialize.o)
 .data          0x0000000000000000        0x0 NuttX/nuttx/mm/libmm.a(umm_initialize.o)
 .bss           0x0000000000000000        0x0 NuttX/nuttx/mm/libmm.a(umm_initialize.o)
 .text          0x0000000000000000        0x0 NuttX/nuttx/mm/libmm.a(umm_sem.o)
 .data          0x0000000000000000        0x0 NuttX/nuttx/mm/libmm.a(umm_sem.o)
 .bss           0x0000000000000000        0x0 NuttX/nuttx/mm/libmm.a(umm_sem.o)
 .text          0x0000000000000000        0x0 NuttX/nuttx/mm/libmm.a(umm_free.o)
 .data          0x0000000000000000        0x0 NuttX/nuttx/mm/libmm.a(umm_free.o)
 .bss           0x0000000000000000        0x0 NuttX/nuttx/mm/libmm.a(umm_free.o)
 .text          0x0000000000000000        0x0 NuttX/nuttx/mm/libmm.a(umm_malloc.o)
 .data          0x0000000000000000        0x0 NuttX/nuttx/mm/libmm.a(umm_malloc.o)
 .bss           0x0000000000000000        0x0 NuttX/nuttx/mm/libmm.a(umm_malloc.o)
 .text          0x0000000000000000        0x0 NuttX/nuttx/mm/libmm.a(umm_heapmember.o)
 .data          0x0000000000000000        0x0 NuttX/nuttx/mm/libmm.a(umm_heapmember.o)
 .bss           0x0000000000000000        0x0 NuttX/nuttx/mm/libmm.a(umm_heapmember.o)
 .text          0x0000000000000000        0x0 NuttX/nuttx/mm/libmm.a(mm_initialize.o)
 .data          0x0000000000000000        0x0 NuttX/nuttx/mm/libmm.a(mm_initialize.o)
 .bss           0x0000000000000000        0x0 NuttX/nuttx/mm/libmm.a(mm_initialize.o)
 .text          0x0000000000000000        0x0 NuttX/nuttx/mm/libmm.a(mm_free.o)
 .data          0x0000000000000000        0x0 NuttX/nuttx/mm/libmm.a(mm_free.o)
 .bss           0x0000000000000000        0x0 NuttX/nuttx/mm/libmm.a(mm_free.o)
 .text          0x0000000000000000        0x0 NuttX/nuttx/mm/libmm.a(mm_heapmember.o)
 .data          0x0000000000000000        0x0 NuttX/nuttx/mm/libmm.a(mm_heapmember.o)
 .bss           0x0000000000000000        0x0 NuttX/nuttx/mm/libmm.a(mm_heapmember.o)
 .text          0x0000000000000000        0x0 NuttX/nuttx/sched/libsched.a(sched_getfiles.o)
 .data          0x0000000000000000        0x0 NuttX/nuttx/sched/libsched.a(sched_getfiles.o)
 .bss           0x0000000000000000        0x0 NuttX/nuttx/sched/libsched.a(sched_getfiles.o)
 .text          0x0000000000000000        0x0 NuttX/nuttx/sched/libsched.a(sched_addreadytorun.o)
 .data          0x0000000000000000        0x0 NuttX/nuttx/sched/libsched.a(sched_addreadytorun.o)
 .bss           0x0000000000000000        0x0 NuttX/nuttx/sched/libsched.a(sched_addreadytorun.o)
 .text          0x0000000000000000        0x0 NuttX/nuttx/sched/libsched.a(sched_removereadytorun.o)
 .data          0x0000000000000000        0x0 NuttX/nuttx/sched/libsched.a(sched_removereadytorun.o)
 .bss           0x0000000000000000        0x0 NuttX/nuttx/sched/libsched.a(sched_removereadytorun.o)
 .text          0x0000000000000000        0x0 NuttX/nuttx/sched/libsched.a(sched_addprioritized.o)
 .data          0x0000000000000000        0x0 NuttX/nuttx/sched/libsched.a(sched_addprioritized.o)
 .bss           0x0000000000000000        0x0 NuttX/nuttx/sched/libsched.a(sched_addprioritized.o)
 .text          0x0000000000000000        0x0 NuttX/nuttx/sched/libsched.a(sched_mergepending.o)
 .data          0x0000000000000000        0x0 NuttX/nuttx/sched/libsched.a(sched_mergepending.o)
 .bss           0x0000000000000000        0x0 NuttX/nuttx/sched/libsched.a(sched_mergepending.o)
 .text          0x0000000000000000        0x0 NuttX/nuttx/sched/libsched.a(sched_addblocked.o)
 .data          0x0000000000000000        0x0 NuttX/nuttx/sched/libsched.a(sched_addblocked.o)
 .bss           0x0000000000000000        0x0 NuttX/nuttx/sched/libsched.a(sched_addblocked.o)
 .text          0x0000000000000000        0x0 NuttX/nuttx/sched/libsched.a(sched_removeblocked.o)
 .data          0x0000000000000000        0x0 NuttX/nuttx/sched/libsched.a(sched_removeblocked.o)
 .bss           0x0000000000000000        0x0 NuttX/nuttx/sched/libsched.a(sched_removeblocked.o)
 .text          0x0000000000000000        0x0 NuttX/nuttx/sched/libsched.a(sched_processtimer.o)
 .data          0x0000000000000000        0x0 NuttX/nuttx/sched/libsched.a(sched_processtimer.o)
 .bss           0x0000000000000000        0x0 NuttX/nuttx/sched/libsched.a(sched_processtimer.o)
 .text          0x0000000000000000        0x0 NuttX/nuttx/sched/libsched.a(sem_destroy.o)
 .data          0x0000000000000000        0x0 NuttX/nuttx/sched/libsched.a(sem_destroy.o)
 .bss           0x0000000000000000        0x0 NuttX/nuttx/sched/libsched.a(sem_destroy.o)
 .text.sem_destroy
                0x0000000000000000       0x1a NuttX/nuttx/sched/libsched.a(sem_destroy.o)
 .text          0x0000000000000000        0x0 NuttX/nuttx/sched/libsched.a(task_exit.o)
 .data          0x0000000000000000        0x0 NuttX/nuttx/sched/libsched.a(task_exit.o)
 .bss           0x0000000000000000        0x0 NuttX/nuttx/sched/libsched.a(task_exit.o)
 .text          0x0000000000000000        0x0 NuttX/nuttx/sched/libsched.a(task_terminate.o)
 .data          0x0000000000000000        0x0 NuttX/nuttx/sched/libsched.a(task_terminate.o)
 .bss           0x0000000000000000        0x0 NuttX/nuttx/sched/libsched.a(task_terminate.o)
 .text          0x0000000000000000        0x0 NuttX/nuttx/libs/libc/libc.a(dq_addlast.o)
 .data          0x0000000000000000        0x0 NuttX/nuttx/libs/libc/libc.a(dq_addlast.o)
 .bss           0x0000000000000000        0x0 NuttX/nuttx/libs/libc/libc.a(dq_addlast.o)
 .text          0x0000000000000000        0x0 NuttX/nuttx/libs/libc/libc.a(lib_strdup.o)
 .data          0x0000000000000000        0x0 NuttX/nuttx/libs/libc/libc.a(lib_strdup.o)
 .bss           0x0000000000000000        0x0 NuttX/nuttx/libs/libc/libc.a(lib_strdup.o)
 .data          0x0000000000000000        0x0 /opt/gcc-arm-none-eabi-7-2017-q4-major/bin/../lib/gcc/arm-none-eabi/7.2.1/thumb/v7-m/libgcc.a(_aeabi_ldivmod.o)
 .bss           0x0000000000000000        0x0 /opt/gcc-arm-none-eabi-7-2017-q4-major/bin/../lib/gcc/arm-none-eabi/7.2.1/thumb/v7-m/libgcc.a(_aeabi_ldivmod.o)
 .data          0x0000000000000000        0x0 /opt/gcc-arm-none-eabi-7-2017-q4-major/bin/../lib/gcc/arm-none-eabi/7.2.1/thumb/v7-m/libgcc.a(_aeabi_uldivmod.o)
 .bss           0x0000000000000000        0x0 /opt/gcc-arm-none-eabi-7-2017-q4-major/bin/../lib/gcc/arm-none-eabi/7.2.1/thumb/v7-m/libgcc.a(_aeabi_uldivmod.o)
 .data          0x0000000000000000        0x0 /opt/gcc-arm-none-eabi-7-2017-q4-major/bin/../lib/gcc/arm-none-eabi/7.2.1/thumb/v7-m/libgcc.a(_udivmoddi4.o)
 .bss           0x0000000000000000        0x0 /opt/gcc-arm-none-eabi-7-2017-q4-major/bin/../lib/gcc/arm-none-eabi/7.2.1/thumb/v7-m/libgcc.a(_udivmoddi4.o)
 .ARM.extab     0x0000000000000000        0x0 /opt/gcc-arm-none-eabi-7-2017-q4-major/bin/../lib/gcc/arm-none-eabi/7.2.1/thumb/v7-m/libgcc.a(_udivmoddi4.o)
 .data          0x0000000000000000        0x0 /opt/gcc-arm-none-eabi-7-2017-q4-major/bin/../lib/gcc/arm-none-eabi/7.2.1/thumb/v7-m/libgcc.a(_dvmd_tls.o)
 .bss           0x0000000000000000        0x0 /opt/gcc-arm-none-eabi-7-2017-q4-major/bin/../lib/gcc/arm-none-eabi/7.2.1/thumb/v7-m/libgcc.a(_dvmd_tls.o)
 .text          0x0000000000000000        0x0 src/modules/px4iofirmware/libpx4iofirmware.a(px4io.c.obj)
 .data          0x0000000000000000        0x0 src/modules/px4iofirmware/libpx4iofirmware.a(px4io.c.obj)
 .bss           0x0000000000000000        0x0 src/modules/px4iofirmware/libpx4iofirmware.a(px4io.c.obj)
 .text.atomic_modify_and
                0x0000000000000000       0x22 src/modules/px4iofirmware/libpx4iofirmware.a(px4io.c.obj)
 .text          0x0000000000000000        0x0 src/modules/px4iofirmware/libpx4iofirmware.a(registers.c.obj)
 .data          0x0000000000000000        0x0 src/modules/px4iofirmware/libpx4iofirmware.a(registers.c.obj)
 .bss           0x0000000000000000        0x0 src/modules/px4iofirmware/libpx4iofirmware.a(registers.c.obj)
 .text          0x0000000000000000        0x0 src/modules/px4iofirmware/libpx4iofirmware.a(safety.c.obj)
 .data          0x0000000000000000        0x0 src/modules/px4iofirmware/libpx4iofirmware.a(safety.c.obj)
 .bss           0x0000000000000000        0x0 src/modules/px4iofirmware/libpx4iofirmware.a(safety.c.obj)
 .text          0x0000000000000000        0x0 src/modules/px4iofirmware/libpx4iofirmware.a(serial.c.obj)
 .data          0x0000000000000000        0x0 src/modules/px4iofirmware/libpx4iofirmware.a(serial.c.obj)
 .bss           0x0000000000000000        0x0 src/modules/px4iofirmware/libpx4iofirmware.a(serial.c.obj)
 .text          0x0000000000000000        0x0 src/modules/px4iofirmware/libpx4iofirmware.a(adc.c.obj)
 .data          0x0000000000000000        0x0 src/modules/px4iofirmware/libpx4iofirmware.a(adc.c.obj)
 .bss           0x0000000000000000        0x0 src/modules/px4iofirmware/libpx4iofirmware.a(adc.c.obj)
 .text          0x0000000000000000        0x0 src/modules/px4iofirmware/libpx4iofirmware.a(controls.c.obj)
 .data          0x0000000000000000        0x0 src/modules/px4iofirmware/libpx4iofirmware.a(controls.c.obj)
 .bss           0x0000000000000000        0x0 src/modules/px4iofirmware/libpx4iofirmware.a(controls.c.obj)
 .group         0x0000000000000000        0x8 src/modules/px4iofirmware/libpx4iofirmware.a(mixer.cpp.obj)
 .group         0x0000000000000000        0xc src/modules/px4iofirmware/libpx4iofirmware.a(mixer.cpp.obj)
 .text          0x0000000000000000        0x0 src/modules/px4iofirmware/libpx4iofirmware.a(mixer.cpp.obj)
 .data          0x0000000000000000        0x0 src/modules/px4iofirmware/libpx4iofirmware.a(mixer.cpp.obj)
 .bss           0x0000000000000000        0x0 src/modules/px4iofirmware/libpx4iofirmware.a(mixer.cpp.obj)
 .text          0x0000000000000000        0x0 NuttX/apps/libapps.a(gnu_cxxinitialize.o)
 .data          0x0000000000000000        0x0 NuttX/apps/libapps.a(gnu_cxxinitialize.o)
 .bss           0x0000000000000000        0x0 NuttX/apps/libapps.a(gnu_cxxinitialize.o)
 .text          0x0000000000000000        0x0 platforms/nuttx/src/px4/stm/stm32f1/io_pins/libarch_io_pins.a(pwm_servo.c.obj)
 .data          0x0000000000000000        0x0 platforms/nuttx/src/px4/stm/stm32f1/io_pins/libarch_io_pins.a(pwm_servo.c.obj)
 .bss           0x0000000000000000        0x0 platforms/nuttx/src/px4/stm/stm32f1/io_pins/libarch_io_pins.a(pwm_servo.c.obj)
 .text.up_pwm_servo_get
                0x0000000000000000        0x4 platforms/nuttx/src/px4/stm/stm32f1/io_pins/libarch_io_pins.a(pwm_servo.c.obj)
 .text.up_pwm_servo_set_rate
                0x0000000000000000       0x20 platforms/nuttx/src/px4/stm/stm32f1/io_pins/libarch_io_pins.a(pwm_servo.c.obj)
 .text.up_pwm_servo_deinit
                0x0000000000000000        0x6 platforms/nuttx/src/px4/stm/stm32f1/io_pins/libarch_io_pins.a(pwm_servo.c.obj)
 .text          0x0000000000000000        0x0 platforms/nuttx/src/px4/stm/stm32f1/io_pins/libarch_io_pins.a(io_timer.c.obj)
 .data          0x0000000000000000        0x0 platforms/nuttx/src/px4/stm/stm32f1/io_pins/libarch_io_pins.a(io_timer.c.obj)
 .bss           0x0000000000000000        0x0 platforms/nuttx/src/px4/stm/stm32f1/io_pins/libarch_io_pins.a(io_timer.c.obj)
 .text.io_timer_channel_get_gpio_output
                0x0000000000000000       0x24 platforms/nuttx/src/px4/stm/stm32f1/io_pins/libarch_io_pins.a(io_timer.c.obj)
 .text.io_timer_channel_get_as_pwm_input
                0x0000000000000000       0x1c platforms/nuttx/src/px4/stm/stm32f1/io_pins/libarch_io_pins.a(io_timer.c.obj)
 .text.io_timer_update_dma_req
                0x0000000000000000       0x20 platforms/nuttx/src/px4/stm/stm32f1/io_pins/libarch_io_pins.a(io_timer.c.obj)
 .text.io_timer_set_dshot_mode
                0x0000000000000000       0x9c platforms/nuttx/src/px4/stm/stm32f1/io_pins/libarch_io_pins.a(io_timer.c.obj)
 .text.io_channel_get_ccr
                0x0000000000000000       0x44 platforms/nuttx/src/px4/stm/stm32f1/io_pins/libarch_io_pins.a(io_timer.c.obj)
 .rodata.CSWTCH.45
                0x0000000000000000        0x4 platforms/nuttx/src/px4/stm/stm32f1/io_pins/libarch_io_pins.a(io_timer.c.obj)
 .group         0x0000000000000000        0x8 src/lib/mixer/libmixer.a(MixerGroup.cpp.obj)
 .text          0x0000000000000000        0x0 src/lib/mixer/libmixer.a(MixerGroup.cpp.obj)
 .data          0x0000000000000000        0x0 src/lib/mixer/libmixer.a(MixerGroup.cpp.obj)
 .bss           0x0000000000000000        0x0 src/lib/mixer/libmixer.a(MixerGroup.cpp.obj)
 .text._ZN10MixerGroup9get_trimsEPs
                0x0000000000000000       0x54 src/lib/mixer/libmixer.a(MixerGroup.cpp.obj)
 .text._ZN10MixerGroup20get_multirotor_countEv
                0x0000000000000000       0x22 src/lib/mixer/libmixer.a(MixerGroup.cpp.obj)
 .text._ZN10MixerGroup15groups_requiredERj
                0x0000000000000000       0x24 src/lib/mixer/libmixer.a(MixerGroup.cpp.obj)
 .group         0x0000000000000000        0x8 src/lib/mixer/HelicopterMixer/libHelicopterMixer.a(HelicopterMixer.cpp.obj)
 .group         0x0000000000000000        0x8 src/lib/mixer/HelicopterMixer/libHelicopterMixer.a(HelicopterMixer.cpp.obj)
 .group         0x0000000000000000        0x8 src/lib/mixer/HelicopterMixer/libHelicopterMixer.a(HelicopterMixer.cpp.obj)
 .group         0x0000000000000000        0x8 src/lib/mixer/HelicopterMixer/libHelicopterMixer.a(HelicopterMixer.cpp.obj)
 .group         0x0000000000000000        0x8 src/lib/mixer/HelicopterMixer/libHelicopterMixer.a(HelicopterMixer.cpp.obj)
 .group         0x0000000000000000        0x8 src/lib/mixer/HelicopterMixer/libHelicopterMixer.a(HelicopterMixer.cpp.obj)
 .group         0x0000000000000000        0x8 src/lib/mixer/HelicopterMixer/libHelicopterMixer.a(HelicopterMixer.cpp.obj)
 .group         0x0000000000000000        0x8 src/lib/mixer/HelicopterMixer/libHelicopterMixer.a(HelicopterMixer.cpp.obj)
 .group         0x0000000000000000       0x10 src/lib/mixer/HelicopterMixer/libHelicopterMixer.a(HelicopterMixer.cpp.obj)
 .text          0x0000000000000000        0x0 src/lib/mixer/HelicopterMixer/libHelicopterMixer.a(HelicopterMixer.cpp.obj)
 .data          0x0000000000000000        0x0 src/lib/mixer/HelicopterMixer/libHelicopterMixer.a(HelicopterMixer.cpp.obj)
 .bss           0x0000000000000000        0x0 src/lib/mixer/HelicopterMixer/libHelicopterMixer.a(HelicopterMixer.cpp.obj)
 .text._ZN15HelicopterMixerC2EPFijhhRfEj12mixer_heli_s
                0x0000000000000000       0x30 src/lib/mixer/HelicopterMixer/libHelicopterMixer.a(HelicopterMixer.cpp.obj)
 .group         0x0000000000000000        0x8 src/lib/mixer/MultirotorMixer/libMultirotorMixer.a(MultirotorMixer.cpp.obj)
 .group         0x0000000000000000        0x8 src/lib/mixer/MultirotorMixer/libMultirotorMixer.a(MultirotorMixer.cpp.obj)
 .group         0x0000000000000000        0x8 src/lib/mixer/MultirotorMixer/libMultirotorMixer.a(MultirotorMixer.cpp.obj)
 .group         0x0000000000000000        0x8 src/lib/mixer/MultirotorMixer/libMultirotorMixer.a(MultirotorMixer.cpp.obj)
 .group         0x0000000000000000        0x8 src/lib/mixer/MultirotorMixer/libMultirotorMixer.a(MultirotorMixer.cpp.obj)
 .group         0x0000000000000000        0xc src/lib/mixer/MultirotorMixer/libMultirotorMixer.a(MultirotorMixer.cpp.obj)
 .group         0x0000000000000000        0x8 src/lib/mixer/MultirotorMixer/libMultirotorMixer.a(MultirotorMixer.cpp.obj)
 .group         0x0000000000000000        0x8 src/lib/mixer/MultirotorMixer/libMultirotorMixer.a(MultirotorMixer.cpp.obj)
 .group         0x0000000000000000        0xc src/lib/mixer/MultirotorMixer/libMultirotorMixer.a(MultirotorMixer.cpp.obj)
 .text          0x0000000000000000        0x0 src/lib/mixer/MultirotorMixer/libMultirotorMixer.a(MultirotorMixer.cpp.obj)
 .data          0x0000000000000000        0x0 src/lib/mixer/MultirotorMixer/libMultirotorMixer.a(MultirotorMixer.cpp.obj)
 .bss           0x0000000000000000        0x0 src/lib/mixer/MultirotorMixer/libMultirotorMixer.a(MultirotorMixer.cpp.obj)
 .group         0x0000000000000000        0x8 src/lib/mixer/NullMixer/libNullMixer.a(NullMixer.cpp.obj)
 .group         0x0000000000000000        0x8 src/lib/mixer/NullMixer/libNullMixer.a(NullMixer.cpp.obj)
 .group         0x0000000000000000        0x8 src/lib/mixer/NullMixer/libNullMixer.a(NullMixer.cpp.obj)
 .group         0x0000000000000000        0x8 src/lib/mixer/NullMixer/libNullMixer.a(NullMixer.cpp.obj)
 .group         0x0000000000000000        0x8 src/lib/mixer/NullMixer/libNullMixer.a(NullMixer.cpp.obj)
 .group         0x0000000000000000        0x8 src/lib/mixer/NullMixer/libNullMixer.a(NullMixer.cpp.obj)
 .group         0x0000000000000000        0x8 src/lib/mixer/NullMixer/libNullMixer.a(NullMixer.cpp.obj)
 .group         0x0000000000000000        0x8 src/lib/mixer/NullMixer/libNullMixer.a(NullMixer.cpp.obj)
 .group         0x0000000000000000       0x10 src/lib/mixer/NullMixer/libNullMixer.a(NullMixer.cpp.obj)
 .text          0x0000000000000000        0x0 src/lib/mixer/NullMixer/libNullMixer.a(NullMixer.cpp.obj)
 .data          0x0000000000000000        0x0 src/lib/mixer/NullMixer/libNullMixer.a(NullMixer.cpp.obj)
 .bss           0x0000000000000000        0x0 src/lib/mixer/NullMixer/libNullMixer.a(NullMixer.cpp.obj)
 .text._ZN5Mixer21get_saturation_statusEv
                0x0000000000000000        0x4 src/lib/mixer/NullMixer/libNullMixer.a(NullMixer.cpp.obj)
 .text._ZN5Mixer22set_max_delta_out_onceEf
                0x0000000000000000        0x2 src/lib/mixer/NullMixer/libNullMixer.a(NullMixer.cpp.obj)
 .text._ZN5Mixer17set_thrust_factorEf
                0x0000000000000000        0x2 src/lib/mixer/NullMixer/libNullMixer.a(NullMixer.cpp.obj)
 .text._ZN5Mixer11set_airmodeENS_7AirmodeE
                0x0000000000000000        0x2 src/lib/mixer/NullMixer/libNullMixer.a(NullMixer.cpp.obj)
 .text._ZN5Mixer20get_multirotor_countEv
                0x0000000000000000        0x4 src/lib/mixer/NullMixer/libNullMixer.a(NullMixer.cpp.obj)
 .group         0x0000000000000000        0x8 src/lib/mixer/SimpleMixer/libSimpleMixer.a(SimpleMixer.cpp.obj)
 .group         0x0000000000000000        0x8 src/lib/mixer/SimpleMixer/libSimpleMixer.a(SimpleMixer.cpp.obj)
 .group         0x0000000000000000        0x8 src/lib/mixer/SimpleMixer/libSimpleMixer.a(SimpleMixer.cpp.obj)
 .group         0x0000000000000000        0x8 src/lib/mixer/SimpleMixer/libSimpleMixer.a(SimpleMixer.cpp.obj)
 .group         0x0000000000000000        0x8 src/lib/mixer/SimpleMixer/libSimpleMixer.a(SimpleMixer.cpp.obj)
 .text          0x0000000000000000        0x0 src/lib/mixer/SimpleMixer/libSimpleMixer.a(SimpleMixer.cpp.obj)
 .data          0x0000000000000000        0x0 src/lib/mixer/SimpleMixer/libSimpleMixer.a(SimpleMixer.cpp.obj)
 .bss           0x0000000000000000        0x0 src/lib/mixer/SimpleMixer/libSimpleMixer.a(SimpleMixer.cpp.obj)
 .text._ZN5Mixer21get_saturation_statusEv
                0x0000000000000000        0x4 src/lib/mixer/SimpleMixer/libSimpleMixer.a(SimpleMixer.cpp.obj)
 .text._ZN5Mixer22set_max_delta_out_onceEf
                0x0000000000000000        0x2 src/lib/mixer/SimpleMixer/libSimpleMixer.a(SimpleMixer.cpp.obj)
 .text._ZN5Mixer17set_thrust_factorEf
                0x0000000000000000        0x2 src/lib/mixer/SimpleMixer/libSimpleMixer.a(SimpleMixer.cpp.obj)
 .text._ZN5Mixer11set_airmodeENS_7AirmodeE
                0x0000000000000000        0x2 src/lib/mixer/SimpleMixer/libSimpleMixer.a(SimpleMixer.cpp.obj)
 .text._ZN5Mixer20get_multirotor_countEv
                0x0000000000000000        0x4 src/lib/mixer/SimpleMixer/libSimpleMixer.a(SimpleMixer.cpp.obj)
 .text._ZN11SimpleMixerC2EPFijhhRfEjP14mixer_simple_s
                0x0000000000000000       0x18 src/lib/mixer/SimpleMixer/libSimpleMixer.a(SimpleMixer.cpp.obj)
 .text._ZN11SimpleMixer11scale_checkER14mixer_scaler_s
                0x0000000000000000       0x5c src/lib/mixer/SimpleMixer/libSimpleMixer.a(SimpleMixer.cpp.obj)
 .text._ZN11SimpleMixer5checkEv
                0x0000000000000000       0x68 src/lib/mixer/SimpleMixer/libSimpleMixer.a(SimpleMixer.cpp.obj)
 .text          0x0000000000000000        0x0 src/lib/mixer/MixerBase/libMixerBase.a(Mixer.cpp.obj)
 .data          0x0000000000000000        0x0 src/lib/mixer/MixerBase/libMixerBase.a(Mixer.cpp.obj)
 .bss           0x0000000000000000        0x0 src/lib/mixer/MixerBase/libMixerBase.a(Mixer.cpp.obj)
 .text          0x0000000000000000        0x0 src/lib/rc/librc.a(st24.cpp.obj)
 .data          0x0000000000000000        0x0 src/lib/rc/librc.a(st24.cpp.obj)
 .bss           0x0000000000000000        0x0 src/lib/rc/librc.a(st24.cpp.obj)
 .data.decode_states
                0x0000000000000000       0x18 src/lib/rc/librc.a(st24.cpp.obj)
 .rodata.str1.1
                0x0000000000000000       0x35 src/lib/rc/librc.a(st24.cpp.obj)
 .text          0x0000000000000000        0x0 src/lib/rc/librc.a(sumd.cpp.obj)
 .data          0x0000000000000000        0x0 src/lib/rc/librc.a(sumd.cpp.obj)
 .bss           0x0000000000000000        0x0 src/lib/rc/librc.a(sumd.cpp.obj)
 .text.sumd_crc8
                0x0000000000000000        0x6 src/lib/rc/librc.a(sumd.cpp.obj)
 .text          0x0000000000000000        0x0 src/lib/rc/librc.a(sbus.cpp.obj)
 .data          0x0000000000000000        0x0 src/lib/rc/librc.a(sbus.cpp.obj)
 .bss           0x0000000000000000        0x0 src/lib/rc/librc.a(sbus.cpp.obj)
 .text.sbus_dropped_frames
                0x0000000000000000        0xc src/lib/rc/librc.a(sbus.cpp.obj)
 .group         0x0000000000000000        0x8 src/lib/rc/librc.a(dsm.cpp.obj)
 .text          0x0000000000000000        0x0 src/lib/rc/librc.a(dsm.cpp.obj)
 .data          0x0000000000000000        0x0 src/lib/rc/librc.a(dsm.cpp.obj)
 .bss           0x0000000000000000        0x0 src/lib/rc/librc.a(dsm.cpp.obj)
 .text.dsm_deinit
                0x0000000000000000       0x1c src/lib/rc/librc.a(dsm.cpp.obj)
 .text          0x0000000000000000        0x0 src/lib/rc/librc.a(common_rc.cpp.obj)
 .data          0x0000000000000000        0x0 src/lib/rc/librc.a(common_rc.cpp.obj)
 .bss           0x0000000000000000        0x0 src/lib/rc/librc.a(common_rc.cpp.obj)
 .text          0x0000000000000000        0x0 src/lib/output_limit/liboutput_limit.a(output_limit.cpp.obj)
 .data          0x0000000000000000        0x0 src/lib/output_limit/liboutput_limit.a(output_limit.cpp.obj)
 .bss           0x0000000000000000        0x0 src/lib/output_limit/liboutput_limit.a(output_limit.cpp.obj)
 .text          0x0000000000000000        0x0 NuttX/nuttx/arch/arm/src/libarch.a(up_systemreset.o)
 .data          0x0000000000000000        0x0 NuttX/nuttx/arch/arm/src/libarch.a(up_systemreset.o)
 .bss           0x0000000000000000        0x0 NuttX/nuttx/arch/arm/src/libarch.a(up_systemreset.o)
 .text          0x0000000000000000        0x0 NuttX/nuttx/arch/arm/src/libarch.a(up_udelay.o)
 .data          0x0000000000000000        0x0 NuttX/nuttx/arch/arm/src/libarch.a(up_udelay.o)
 .bss           0x0000000000000000        0x0 NuttX/nuttx/arch/arm/src/libarch.a(up_udelay.o)
 .text          0x0000000000000000        0x0 boards/px4/io-v2/src/libdrivers_board.a(init.c.obj)
 .data          0x0000000000000000        0x0 boards/px4/io-v2/src/libdrivers_board.a(init.c.obj)
 .bss           0x0000000000000000        0x0 boards/px4/io-v2/src/libdrivers_board.a(init.c.obj)
 .text          0x0000000000000000        0x0 boards/px4/io-v2/src/libdrivers_board.a(timer_config.cpp.obj)
 .data          0x0000000000000000        0x0 boards/px4/io-v2/src/libdrivers_board.a(timer_config.cpp.obj)
 .bss           0x0000000000000000        0x0 boards/px4/io-v2/src/libdrivers_board.a(timer_config.cpp.obj)
 .text          0x0000000000000000        0x0 platforms/nuttx/src/px4/stm/stm32f1/hrt/libarch_hrt.a(hrt.c.obj)
 .data          0x0000000000000000        0x0 platforms/nuttx/src/px4/stm/stm32f1/hrt/libarch_hrt.a(hrt.c.obj)
 .bss           0x0000000000000000        0x0 platforms/nuttx/src/px4/stm/stm32f1/hrt/libarch_hrt.a(hrt.c.obj)
 .text.ts_to_abstime
                0x0000000000000000       0x20 platforms/nuttx/src/px4/stm/stm32f1/hrt/libarch_hrt.a(hrt.c.obj)
 .text.abstime_to_ts
                0x0000000000000000       0x30 platforms/nuttx/src/px4/stm/stm32f1/hrt/libarch_hrt.a(hrt.c.obj)
 .text.hrt_store_absolute_time
                0x0000000000000000       0x18 platforms/nuttx/src/px4/stm/stm32f1/hrt/libarch_hrt.a(hrt.c.obj)
 .text.hrt_call_after
                0x0000000000000000       0x2c platforms/nuttx/src/px4/stm/stm32f1/hrt/libarch_hrt.a(hrt.c.obj)
 .text.hrt_call_at
                0x0000000000000000       0x1c platforms/nuttx/src/px4/stm/stm32f1/hrt/libarch_hrt.a(hrt.c.obj)
 .text.hrt_called
                0x0000000000000000        0xe platforms/nuttx/src/px4/stm/stm32f1/hrt/libarch_hrt.a(hrt.c.obj)
 .text.hrt_cancel
                0x0000000000000000       0x2c platforms/nuttx/src/px4/stm/stm32f1/hrt/libarch_hrt.a(hrt.c.obj)
 .text.hrt_call_init
                0x0000000000000000        0x8 platforms/nuttx/src/px4/stm/stm32f1/hrt/libarch_hrt.a(hrt.c.obj)
 .text.hrt_call_delay
                0x0000000000000000       0x18 platforms/nuttx/src/px4/stm/stm32f1/hrt/libarch_hrt.a(hrt.c.obj)
 .rodata.latency_bucket_count
                0x0000000000000000        0x2 platforms/nuttx/src/px4/stm/stm32f1/hrt/libarch_hrt.a(hrt.c.obj)
 .text          0x0000000000000000        0x0 NuttX/nuttx/libs/libxx/libxx.a(libxx_eabi_atexit.o)
 .data          0x0000000000000000        0x0 NuttX/nuttx/libs/libxx/libxx.a(libxx_eabi_atexit.o)
 .bss           0x0000000000000000        0x0 NuttX/nuttx/libs/libxx/libxx.a(libxx_eabi_atexit.o)
 .text          0x0000000000000000        0x0 NuttX/nuttx/libs/libxx/libxx.a(libxx_cxa_atexit.o)
 .data          0x0000000000000000        0x0 NuttX/nuttx/libs/libxx/libxx.a(libxx_cxa_atexit.o)
 .bss           0x0000000000000000        0x0 NuttX/nuttx/libs/libxx/libxx.a(libxx_cxa_atexit.o)
 .text          0x0000000000000000        0x0 NuttX/nuttx/libs/libxx/libxx.a(libxx_delete.o)
 .data          0x0000000000000000        0x0 NuttX/nuttx/libs/libxx/libxx.a(libxx_delete.o)
 .bss           0x0000000000000000        0x0 NuttX/nuttx/libs/libxx/libxx.a(libxx_delete.o)
 .text          0x0000000000000000        0x0 NuttX/nuttx/libs/libxx/libxx.a(libxx_deletea.o)
 .data          0x0000000000000000        0x0 NuttX/nuttx/libs/libxx/libxx.a(libxx_deletea.o)
 .bss           0x0000000000000000        0x0 NuttX/nuttx/libs/libxx/libxx.a(libxx_deletea.o)
 .text          0x0000000000000000        0x0 NuttX/nuttx/libs/libxx/libxx.a(libxx_new.o)
 .data          0x0000000000000000        0x0 NuttX/nuttx/libs/libxx/libxx.a(libxx_new.o)
 .bss           0x0000000000000000        0x0 NuttX/nuttx/libs/libxx/libxx.a(libxx_new.o)
 .text          0x0000000000000000        0x0 NuttX/nuttx/libs/libxx/libxx.a(libxx_newa.o)
 .data          0x0000000000000000        0x0 NuttX/nuttx/libs/libxx/libxx.a(libxx_newa.o)
 .bss           0x0000000000000000        0x0 NuttX/nuttx/libs/libxx/libxx.a(libxx_newa.o)
 .text          0x0000000000000000        0x0 NuttX/nuttx/libs/libc/libc.a(lib_crc32.o)
 .data          0x0000000000000000        0x0 NuttX/nuttx/libs/libc/libc.a(lib_crc32.o)
 .bss           0x0000000000000000        0x0 NuttX/nuttx/libs/libc/libc.a(lib_crc32.o)
 .text.crc32    0x0000000000000000        0x6 NuttX/nuttx/libs/libc/libc.a(lib_crc32.o)
 .text          0x0000000000000000        0x0 NuttX/nuttx/libs/libc/libc.a(lib_printf.o)
 .data          0x0000000000000000        0x0 NuttX/nuttx/libs/libc/libc.a(lib_printf.o)
 .bss           0x0000000000000000        0x0 NuttX/nuttx/libs/libc/libc.a(lib_printf.o)
 .text          0x0000000000000000        0x0 NuttX/nuttx/libs/libc/libc.a(lib_vsnprintf.o)
 .data          0x0000000000000000        0x0 NuttX/nuttx/libs/libc/libc.a(lib_vsnprintf.o)
 .bss           0x0000000000000000        0x0 NuttX/nuttx/libs/libc/libc.a(lib_vsnprintf.o)
 .text          0x0000000000000000        0x0 NuttX/nuttx/libs/libc/libc.a(lib_memoutstream.o)
 .data          0x0000000000000000        0x0 NuttX/nuttx/libs/libc/libc.a(lib_memoutstream.o)
 .bss           0x0000000000000000        0x0 NuttX/nuttx/libs/libc/libc.a(lib_memoutstream.o)
 .text          0x0000000000000000        0x0 NuttX/nuttx/libs/libc/libc.a(lib_nulloutstream.o)
 .data          0x0000000000000000        0x0 NuttX/nuttx/libs/libc/libc.a(lib_nulloutstream.o)
 .bss           0x0000000000000000        0x0 NuttX/nuttx/libs/libc/libc.a(lib_nulloutstream.o)
 .text          0x0000000000000000        0x0 NuttX/nuttx/libs/libc/libc.a(lib_sscanf.o)
 .data          0x0000000000000000        0x0 NuttX/nuttx/libs/libc/libc.a(lib_sscanf.o)
 .bss           0x0000000000000000        0x0 NuttX/nuttx/libs/libc/libc.a(lib_sscanf.o)
 .text          0x0000000000000000        0x0 NuttX/nuttx/libs/libc/libc.a(lib_vsscanf.o)
 .data          0x0000000000000000        0x0 NuttX/nuttx/libs/libc/libc.a(lib_vsscanf.o)
 .bss           0x0000000000000000        0x0 NuttX/nuttx/libs/libc/libc.a(lib_vsscanf.o)
 .text          0x0000000000000000        0x0 NuttX/nuttx/libs/libc/libc.a(lib_libvscanf.o)
 .data          0x0000000000000000        0x0 NuttX/nuttx/libs/libc/libc.a(lib_libvscanf.o)
 .bss           0x0000000000000000        0x0 NuttX/nuttx/libs/libc/libc.a(lib_libvscanf.o)
 .text          0x0000000000000000        0x0 NuttX/nuttx/libs/libc/libc.a(lib_libnoflush.o)
 .data          0x0000000000000000        0x0 NuttX/nuttx/libs/libc/libc.a(lib_libnoflush.o)
 .bss           0x0000000000000000        0x0 NuttX/nuttx/libs/libc/libc.a(lib_libnoflush.o)
 .text          0x0000000000000000        0x0 NuttX/nuttx/libs/libc/libc.a(lib_libvsprintf.o)
 .data          0x0000000000000000        0x0 NuttX/nuttx/libs/libc/libc.a(lib_libvsprintf.o)
 .bss           0x0000000000000000        0x0 NuttX/nuttx/libs/libc/libc.a(lib_libvsprintf.o)
 .text          0x0000000000000000        0x0 NuttX/nuttx/libs/libc/libc.a(lib_ultoa_invert.o)
 .data          0x0000000000000000        0x0 NuttX/nuttx/libs/libc/libc.a(lib_ultoa_invert.o)
 .bss           0x0000000000000000        0x0 NuttX/nuttx/libs/libc/libc.a(lib_ultoa_invert.o)
 .text          0x0000000000000000        0x0 NuttX/nuttx/libs/libc/libc.a(lib_strtol.o)
 .data          0x0000000000000000        0x0 NuttX/nuttx/libs/libc/libc.a(lib_strtol.o)
 .bss           0x0000000000000000        0x0 NuttX/nuttx/libs/libc/libc.a(lib_strtol.o)
 .text          0x0000000000000000        0x0 NuttX/nuttx/libs/libc/libc.a(lib_strtoul.o)
 .data          0x0000000000000000        0x0 NuttX/nuttx/libs/libc/libc.a(lib_strtoul.o)
 .bss           0x0000000000000000        0x0 NuttX/nuttx/libs/libc/libc.a(lib_strtoul.o)
 .text          0x0000000000000000        0x0 NuttX/nuttx/libs/libc/libc.a(lib_checkbase.o)
 .data          0x0000000000000000        0x0 NuttX/nuttx/libs/libc/libc.a(lib_checkbase.o)
 .bss           0x0000000000000000        0x0 NuttX/nuttx/libs/libc/libc.a(lib_checkbase.o)
 .text          0x0000000000000000        0x0 NuttX/nuttx/libs/libc/libc.a(lib_isbasedigit.o)
 .data          0x0000000000000000        0x0 NuttX/nuttx/libs/libc/libc.a(lib_isbasedigit.o)
 .bss           0x0000000000000000        0x0 NuttX/nuttx/libs/libc/libc.a(lib_isbasedigit.o)
 .text          0x0000000000000000        0x0 NuttX/nuttx/libs/libc/libc.a(lib_memchr.o)
 .data          0x0000000000000000        0x0 NuttX/nuttx/libs/libc/libc.a(lib_memchr.o)
 .bss           0x0000000000000000        0x0 NuttX/nuttx/libs/libc/libc.a(lib_memchr.o)
 .text          0x0000000000000000        0x0 NuttX/nuttx/libs/libc/libc.a(lib_memmove.o)
 .data          0x0000000000000000        0x0 NuttX/nuttx/libs/libc/libc.a(lib_memmove.o)
 .bss           0x0000000000000000        0x0 NuttX/nuttx/libs/libc/libc.a(lib_memmove.o)
 .text          0x0000000000000000        0x0 NuttX/nuttx/libs/libc/libc.a(lib_skipspace.o)
 .data          0x0000000000000000        0x0 NuttX/nuttx/libs/libc/libc.a(lib_skipspace.o)
 .bss           0x0000000000000000        0x0 NuttX/nuttx/libs/libc/libc.a(lib_skipspace.o)
 .text          0x0000000000000000        0x0 NuttX/nuttx/libs/libc/libc.a(lib_strchr.o)
 .data          0x0000000000000000        0x0 NuttX/nuttx/libs/libc/libc.a(lib_strchr.o)
 .bss           0x0000000000000000        0x0 NuttX/nuttx/libs/libc/libc.a(lib_strchr.o)
 .text          0x0000000000000000        0x0 NuttX/nuttx/libs/libc/libc.a(lib_strcmp.o)
 .data          0x0000000000000000        0x0 NuttX/nuttx/libs/libc/libc.a(lib_strcmp.o)
 .bss           0x0000000000000000        0x0 NuttX/nuttx/libs/libc/libc.a(lib_strcmp.o)
 .text          0x0000000000000000        0x0 NuttX/nuttx/libs/libc/libc.a(lib_strnlen.o)
 .data          0x0000000000000000        0x0 NuttX/nuttx/libs/libc/libc.a(lib_strnlen.o)
 .bss           0x0000000000000000        0x0 NuttX/nuttx/libs/libc/libc.a(lib_strnlen.o)
 .text          0x0000000000000000        0x0 NuttX/nuttx/libs/libc/libc.a(lib_strncpy.o)
 .data          0x0000000000000000        0x0 NuttX/nuttx/libs/libc/libc.a(lib_strncpy.o)
 .bss           0x0000000000000000        0x0 NuttX/nuttx/libs/libc/libc.a(lib_strncpy.o)
 .text          0x0000000000000000        0x0 NuttX/nuttx/libs/libc/libc.a(lib_syslog.o)
 .data          0x0000000000000000        0x0 NuttX/nuttx/libs/libc/libc.a(lib_syslog.o)
 .bss           0x0000000000000000        0x0 NuttX/nuttx/libs/libc/libc.a(lib_syslog.o)
 .text          0x0000000000000000        0x0 NuttX/nuttx/libs/libc/libc.a(lib_setlogmask.o)
 .data          0x0000000000000000        0x0 NuttX/nuttx/libs/libc/libc.a(lib_setlogmask.o)
 .bss           0x0000000000000000        0x0 NuttX/nuttx/libs/libc/libc.a(lib_setlogmask.o)
 .text.setlogmask
                0x0000000000000000       0x20 NuttX/nuttx/libs/libc/libc.a(lib_setlogmask.o)
 .text          0x0000000000000000        0x0 NuttX/nuttx/libs/libc/libc.a(lib_tcgetattr.o)
 .data          0x0000000000000000        0x0 NuttX/nuttx/libs/libc/libc.a(lib_tcgetattr.o)
 .bss           0x0000000000000000        0x0 NuttX/nuttx/libs/libc/libc.a(lib_tcgetattr.o)
 .text          0x0000000000000000        0x0 NuttX/nuttx/libs/libc/libc.a(lib_tcsetattr.o)
 .data          0x0000000000000000        0x0 NuttX/nuttx/libs/libc/libc.a(lib_tcsetattr.o)
 .bss           0x0000000000000000        0x0 NuttX/nuttx/libs/libc/libc.a(lib_tcsetattr.o)
 .text          0x0000000000000000        0x0 NuttX/nuttx/libs/libc/libc.a(lib_meminstream.o)
 .data          0x0000000000000000        0x0 NuttX/nuttx/libs/libc/libc.a(lib_meminstream.o)
 .bss           0x0000000000000000        0x0 NuttX/nuttx/libs/libc/libc.a(lib_meminstream.o)
 .text          0x0000000000000000        0x0 NuttX/nuttx/drivers/libdrivers.a(vsyslog.o)
 .data          0x0000000000000000        0x0 NuttX/nuttx/drivers/libdrivers.a(vsyslog.o)
 .bss           0x0000000000000000        0x0 NuttX/nuttx/drivers/libdrivers.a(vsyslog.o)
 .text          0x0000000000000000        0x0 NuttX/nuttx/drivers/libdrivers.a(syslog_stream.o)
 .data          0x0000000000000000        0x0 NuttX/nuttx/drivers/libdrivers.a(syslog_stream.o)
 .bss           0x0000000000000000        0x0 NuttX/nuttx/drivers/libdrivers.a(syslog_stream.o)
 .text          0x0000000000000000        0x0 NuttX/nuttx/drivers/libdrivers.a(syslog_emergstream.o)
 .data          0x0000000000000000        0x0 NuttX/nuttx/drivers/libdrivers.a(syslog_emergstream.o)
 .bss           0x0000000000000000        0x0 NuttX/nuttx/drivers/libdrivers.a(syslog_emergstream.o)
 .text          0x0000000000000000        0x0 NuttX/nuttx/drivers/libdrivers.a(syslog_putc.o)
 .data          0x0000000000000000        0x0 NuttX/nuttx/drivers/libdrivers.a(syslog_putc.o)
 .bss           0x0000000000000000        0x0 NuttX/nuttx/drivers/libdrivers.a(syslog_putc.o)
 .text          0x0000000000000000        0x0 NuttX/nuttx/drivers/libdrivers.a(syslog_force.o)
 .data          0x0000000000000000        0x0 NuttX/nuttx/drivers/libdrivers.a(syslog_force.o)
 .bss           0x0000000000000000        0x0 NuttX/nuttx/drivers/libdrivers.a(syslog_force.o)
 .text          0x0000000000000000        0x0 NuttX/nuttx/fs/libfs.a(fs_ioctl.o)
 .data          0x0000000000000000        0x0 NuttX/nuttx/fs/libfs.a(fs_ioctl.o)
 .bss           0x0000000000000000        0x0 NuttX/nuttx/fs/libfs.a(fs_ioctl.o)
 .text          0x0000000000000000        0x0 NuttX/nuttx/fs/libfs.a(fs_read.o)
 .data          0x0000000000000000        0x0 NuttX/nuttx/fs/libfs.a(fs_read.o)
 .bss           0x0000000000000000        0x0 NuttX/nuttx/fs/libfs.a(fs_read.o)
 .text          0x0000000000000000        0x0 NuttX/nuttx/mm/libmm.a(umm_mallinfo.o)
 .data          0x0000000000000000        0x0 NuttX/nuttx/mm/libmm.a(umm_mallinfo.o)
 .bss           0x0000000000000000        0x0 NuttX/nuttx/mm/libmm.a(umm_mallinfo.o)
 .text          0x0000000000000000        0x0 NuttX/nuttx/mm/libmm.a(mm_mallinfo.o)
 .data          0x0000000000000000        0x0 NuttX/nuttx/mm/libmm.a(mm_mallinfo.o)
 .bss           0x0000000000000000        0x0 NuttX/nuttx/mm/libmm.a(mm_mallinfo.o)
 .text          0x0000000000000000        0x0 /opt/gcc-arm-none-eabi-7-2017-q4-major/bin/../lib/gcc/arm-none-eabi/7.2.1/../../../../arm-none-eabi/lib/thumb/v7-m/libm.a(lib_a-sf_cos.o)
 .data          0x0000000000000000        0x0 /opt/gcc-arm-none-eabi-7-2017-q4-major/bin/../lib/gcc/arm-none-eabi/7.2.1/../../../../arm-none-eabi/lib/thumb/v7-m/libm.a(lib_a-sf_cos.o)
 .bss           0x0000000000000000        0x0 /opt/gcc-arm-none-eabi-7-2017-q4-major/bin/../lib/gcc/arm-none-eabi/7.2.1/../../../../arm-none-eabi/lib/thumb/v7-m/libm.a(lib_a-sf_cos.o)
 .text          0x0000000000000000        0x0 /opt/gcc-arm-none-eabi-7-2017-q4-major/bin/../lib/gcc/arm-none-eabi/7.2.1/../../../../arm-none-eabi/lib/thumb/v7-m/libm.a(lib_a-sf_floor.o)
 .data          0x0000000000000000        0x0 /opt/gcc-arm-none-eabi-7-2017-q4-major/bin/../lib/gcc/arm-none-eabi/7.2.1/../../../../arm-none-eabi/lib/thumb/v7-m/libm.a(lib_a-sf_floor.o)
 .bss           0x0000000000000000        0x0 /opt/gcc-arm-none-eabi-7-2017-q4-major/bin/../lib/gcc/arm-none-eabi/7.2.1/../../../../arm-none-eabi/lib/thumb/v7-m/libm.a(lib_a-sf_floor.o)
 .text          0x0000000000000000        0x0 /opt/gcc-arm-none-eabi-7-2017-q4-major/bin/../lib/gcc/arm-none-eabi/7.2.1/../../../../arm-none-eabi/lib/thumb/v7-m/libm.a(lib_a-sf_round.o)
 .data          0x0000000000000000        0x0 /opt/gcc-arm-none-eabi-7-2017-q4-major/bin/../lib/gcc/arm-none-eabi/7.2.1/../../../../arm-none-eabi/lib/thumb/v7-m/libm.a(lib_a-sf_round.o)
 .bss           0x0000000000000000        0x0 /opt/gcc-arm-none-eabi-7-2017-q4-major/bin/../lib/gcc/arm-none-eabi/7.2.1/../../../../arm-none-eabi/lib/thumb/v7-m/libm.a(lib_a-sf_round.o)
 .text          0x0000000000000000        0x0 /opt/gcc-arm-none-eabi-7-2017-q4-major/bin/../lib/gcc/arm-none-eabi/7.2.1/../../../../arm-none-eabi/lib/thumb/v7-m/libm.a(lib_a-sf_sin.o)
 .data          0x0000000000000000        0x0 /opt/gcc-arm-none-eabi-7-2017-q4-major/bin/../lib/gcc/arm-none-eabi/7.2.1/../../../../arm-none-eabi/lib/thumb/v7-m/libm.a(lib_a-sf_sin.o)
 .bss           0x0000000000000000        0x0 /opt/gcc-arm-none-eabi-7-2017-q4-major/bin/../lib/gcc/arm-none-eabi/7.2.1/../../../../arm-none-eabi/lib/thumb/v7-m/libm.a(lib_a-sf_sin.o)
 .text          0x0000000000000000        0x0 /opt/gcc-arm-none-eabi-7-2017-q4-major/bin/../lib/gcc/arm-none-eabi/7.2.1/../../../../arm-none-eabi/lib/thumb/v7-m/libm.a(lib_a-wf_sqrt.o)
 .data          0x0000000000000000        0x0 /opt/gcc-arm-none-eabi-7-2017-q4-major/bin/../lib/gcc/arm-none-eabi/7.2.1/../../../../arm-none-eabi/lib/thumb/v7-m/libm.a(lib_a-wf_sqrt.o)
 .bss           0x0000000000000000        0x0 /opt/gcc-arm-none-eabi-7-2017-q4-major/bin/../lib/gcc/arm-none-eabi/7.2.1/../../../../arm-none-eabi/lib/thumb/v7-m/libm.a(lib_a-wf_sqrt.o)
 .text          0x0000000000000000        0x0 /opt/gcc-arm-none-eabi-7-2017-q4-major/bin/../lib/gcc/arm-none-eabi/7.2.1/../../../../arm-none-eabi/lib/thumb/v7-m/libm.a(lib_a-ef_rem_pio2.o)
 .data          0x0000000000000000        0x0 /opt/gcc-arm-none-eabi-7-2017-q4-major/bin/../lib/gcc/arm-none-eabi/7.2.1/../../../../arm-none-eabi/lib/thumb/v7-m/libm.a(lib_a-ef_rem_pio2.o)
 .bss           0x0000000000000000        0x0 /opt/gcc-arm-none-eabi-7-2017-q4-major/bin/../lib/gcc/arm-none-eabi/7.2.1/../../../../arm-none-eabi/lib/thumb/v7-m/libm.a(lib_a-ef_rem_pio2.o)
 .text          0x0000000000000000        0x0 /opt/gcc-arm-none-eabi-7-2017-q4-major/bin/../lib/gcc/arm-none-eabi/7.2.1/../../../../arm-none-eabi/lib/thumb/v7-m/libm.a(lib_a-ef_sqrt.o)
 .data          0x0000000000000000        0x0 /opt/gcc-arm-none-eabi-7-2017-q4-major/bin/../lib/gcc/arm-none-eabi/7.2.1/../../../../arm-none-eabi/lib/thumb/v7-m/libm.a(lib_a-ef_sqrt.o)
 .bss           0x0000000000000000        0x0 /opt/gcc-arm-none-eabi-7-2017-q4-major/bin/../lib/gcc/arm-none-eabi/7.2.1/../../../../arm-none-eabi/lib/thumb/v7-m/libm.a(lib_a-ef_sqrt.o)
 .text          0x0000000000000000        0x0 /opt/gcc-arm-none-eabi-7-2017-q4-major/bin/../lib/gcc/arm-none-eabi/7.2.1/../../../../arm-none-eabi/lib/thumb/v7-m/libm.a(lib_a-kf_cos.o)
 .data          0x0000000000000000        0x0 /opt/gcc-arm-none-eabi-7-2017-q4-major/bin/../lib/gcc/arm-none-eabi/7.2.1/../../../../arm-none-eabi/lib/thumb/v7-m/libm.a(lib_a-kf_cos.o)
 .bss           0x0000000000000000        0x0 /opt/gcc-arm-none-eabi-7-2017-q4-major/bin/../lib/gcc/arm-none-eabi/7.2.1/../../../../arm-none-eabi/lib/thumb/v7-m/libm.a(lib_a-kf_cos.o)
 .text          0x0000000000000000        0x0 /opt/gcc-arm-none-eabi-7-2017-q4-major/bin/../lib/gcc/arm-none-eabi/7.2.1/../../../../arm-none-eabi/lib/thumb/v7-m/libm.a(lib_a-kf_rem_pio2.o)
 .data          0x0000000000000000        0x0 /opt/gcc-arm-none-eabi-7-2017-q4-major/bin/../lib/gcc/arm-none-eabi/7.2.1/../../../../arm-none-eabi/lib/thumb/v7-m/libm.a(lib_a-kf_rem_pio2.o)
 .bss           0x0000000000000000        0x0 /opt/gcc-arm-none-eabi-7-2017-q4-major/bin/../lib/gcc/arm-none-eabi/7.2.1/../../../../arm-none-eabi/lib/thumb/v7-m/libm.a(lib_a-kf_rem_pio2.o)
 .text          0x0000000000000000        0x0 /opt/gcc-arm-none-eabi-7-2017-q4-major/bin/../lib/gcc/arm-none-eabi/7.2.1/../../../../arm-none-eabi/lib/thumb/v7-m/libm.a(lib_a-kf_sin.o)
 .data          0x0000000000000000        0x0 /opt/gcc-arm-none-eabi-7-2017-q4-major/bin/../lib/gcc/arm-none-eabi/7.2.1/../../../../arm-none-eabi/lib/thumb/v7-m/libm.a(lib_a-kf_sin.o)
 .bss           0x0000000000000000        0x0 /opt/gcc-arm-none-eabi-7-2017-q4-major/bin/../lib/gcc/arm-none-eabi/7.2.1/../../../../arm-none-eabi/lib/thumb/v7-m/libm.a(lib_a-kf_sin.o)
 .text          0x0000000000000000        0x0 /opt/gcc-arm-none-eabi-7-2017-q4-major/bin/../lib/gcc/arm-none-eabi/7.2.1/../../../../arm-none-eabi/lib/thumb/v7-m/libm.a(lib_a-s_lib_ver.o)
 .data          0x0000000000000000        0x0 /opt/gcc-arm-none-eabi-7-2017-q4-major/bin/../lib/gcc/arm-none-eabi/7.2.1/../../../../arm-none-eabi/lib/thumb/v7-m/libm.a(lib_a-s_lib_ver.o)
 .bss           0x0000000000000000        0x0 /opt/gcc-arm-none-eabi-7-2017-q4-major/bin/../lib/gcc/arm-none-eabi/7.2.1/../../../../arm-none-eabi/lib/thumb/v7-m/libm.a(lib_a-s_lib_ver.o)
 .text          0x0000000000000000        0x0 /opt/gcc-arm-none-eabi-7-2017-q4-major/bin/../lib/gcc/arm-none-eabi/7.2.1/../../../../arm-none-eabi/lib/thumb/v7-m/libm.a(lib_a-s_matherr.o)
 .data          0x0000000000000000        0x0 /opt/gcc-arm-none-eabi-7-2017-q4-major/bin/../lib/gcc/arm-none-eabi/7.2.1/../../../../arm-none-eabi/lib/thumb/v7-m/libm.a(lib_a-s_matherr.o)
 .bss           0x0000000000000000        0x0 /opt/gcc-arm-none-eabi-7-2017-q4-major/bin/../lib/gcc/arm-none-eabi/7.2.1/../../../../arm-none-eabi/lib/thumb/v7-m/libm.a(lib_a-s_matherr.o)
 .text          0x0000000000000000        0x0 /opt/gcc-arm-none-eabi-7-2017-q4-major/bin/../lib/gcc/arm-none-eabi/7.2.1/../../../../arm-none-eabi/lib/thumb/v7-m/libm.a(lib_a-sf_fabs.o)
 .data          0x0000000000000000        0x0 /opt/gcc-arm-none-eabi-7-2017-q4-major/bin/../lib/gcc/arm-none-eabi/7.2.1/../../../../arm-none-eabi/lib/thumb/v7-m/libm.a(lib_a-sf_fabs.o)
 .bss           0x0000000000000000        0x0 /opt/gcc-arm-none-eabi-7-2017-q4-major/bin/../lib/gcc/arm-none-eabi/7.2.1/../../../../arm-none-eabi/lib/thumb/v7-m/libm.a(lib_a-sf_fabs.o)
 .text          0x0000000000000000        0x0 /opt/gcc-arm-none-eabi-7-2017-q4-major/bin/../lib/gcc/arm-none-eabi/7.2.1/../../../../arm-none-eabi/lib/thumb/v7-m/libm.a(lib_a-sf_scalbn.o)
 .data          0x0000000000000000        0x0 /opt/gcc-arm-none-eabi-7-2017-q4-major/bin/../lib/gcc/arm-none-eabi/7.2.1/../../../../arm-none-eabi/lib/thumb/v7-m/libm.a(lib_a-sf_scalbn.o)
 .bss           0x0000000000000000        0x0 /opt/gcc-arm-none-eabi-7-2017-q4-major/bin/../lib/gcc/arm-none-eabi/7.2.1/../../../../arm-none-eabi/lib/thumb/v7-m/libm.a(lib_a-sf_scalbn.o)
 .text          0x0000000000000000        0x0 /opt/gcc-arm-none-eabi-7-2017-q4-major/bin/../lib/gcc/arm-none-eabi/7.2.1/../../../../arm-none-eabi/lib/thumb/v7-m/libm.a(lib_a-sf_copysign.o)
 .data          0x0000000000000000        0x0 /opt/gcc-arm-none-eabi-7-2017-q4-major/bin/../lib/gcc/arm-none-eabi/7.2.1/../../../../arm-none-eabi/lib/thumb/v7-m/libm.a(lib_a-sf_copysign.o)
 .bss           0x0000000000000000        0x0 /opt/gcc-arm-none-eabi-7-2017-q4-major/bin/../lib/gcc/arm-none-eabi/7.2.1/../../../../arm-none-eabi/lib/thumb/v7-m/libm.a(lib_a-sf_copysign.o)
 .data          0x0000000000000000        0x0 /opt/gcc-arm-none-eabi-7-2017-q4-major/bin/../lib/gcc/arm-none-eabi/7.2.1/thumb/v7-m/libgcc.a(_arm_addsubdf3.o)
 .bss           0x0000000000000000        0x0 /opt/gcc-arm-none-eabi-7-2017-q4-major/bin/../lib/gcc/arm-none-eabi/7.2.1/thumb/v7-m/libgcc.a(_arm_addsubdf3.o)
 .data          0x0000000000000000        0x0 /opt/gcc-arm-none-eabi-7-2017-q4-major/bin/../lib/gcc/arm-none-eabi/7.2.1/thumb/v7-m/libgcc.a(_arm_muldivdf3.o)
 .bss           0x0000000000000000        0x0 /opt/gcc-arm-none-eabi-7-2017-q4-major/bin/../lib/gcc/arm-none-eabi/7.2.1/thumb/v7-m/libgcc.a(_arm_muldivdf3.o)
 .data          0x0000000000000000        0x0 /opt/gcc-arm-none-eabi-7-2017-q4-major/bin/../lib/gcc/arm-none-eabi/7.2.1/thumb/v7-m/libgcc.a(_arm_truncdfsf2.o)
 .bss           0x0000000000000000        0x0 /opt/gcc-arm-none-eabi-7-2017-q4-major/bin/../lib/gcc/arm-none-eabi/7.2.1/thumb/v7-m/libgcc.a(_arm_truncdfsf2.o)
 .data          0x0000000000000000        0x0 /opt/gcc-arm-none-eabi-7-2017-q4-major/bin/../lib/gcc/arm-none-eabi/7.2.1/thumb/v7-m/libgcc.a(_arm_addsubsf3.o)
 .bss           0x0000000000000000        0x0 /opt/gcc-arm-none-eabi-7-2017-q4-major/bin/../lib/gcc/arm-none-eabi/7.2.1/thumb/v7-m/libgcc.a(_arm_addsubsf3.o)
 .data          0x0000000000000000        0x0 /opt/gcc-arm-none-eabi-7-2017-q4-major/bin/../lib/gcc/arm-none-eabi/7.2.1/thumb/v7-m/libgcc.a(_arm_muldivsf3.o)
 .bss           0x0000000000000000        0x0 /opt/gcc-arm-none-eabi-7-2017-q4-major/bin/../lib/gcc/arm-none-eabi/7.2.1/thumb/v7-m/libgcc.a(_arm_muldivsf3.o)
 .data          0x0000000000000000        0x0 /opt/gcc-arm-none-eabi-7-2017-q4-major/bin/../lib/gcc/arm-none-eabi/7.2.1/thumb/v7-m/libgcc.a(_arm_cmpsf2.o)
 .bss           0x0000000000000000        0x0 /opt/gcc-arm-none-eabi-7-2017-q4-major/bin/../lib/gcc/arm-none-eabi/7.2.1/thumb/v7-m/libgcc.a(_arm_cmpsf2.o)
 .data          0x0000000000000000        0x0 /opt/gcc-arm-none-eabi-7-2017-q4-major/bin/../lib/gcc/arm-none-eabi/7.2.1/thumb/v7-m/libgcc.a(_arm_unordsf2.o)
 .bss           0x0000000000000000        0x0 /opt/gcc-arm-none-eabi-7-2017-q4-major/bin/../lib/gcc/arm-none-eabi/7.2.1/thumb/v7-m/libgcc.a(_arm_unordsf2.o)
 .data          0x0000000000000000        0x0 /opt/gcc-arm-none-eabi-7-2017-q4-major/bin/../lib/gcc/arm-none-eabi/7.2.1/thumb/v7-m/libgcc.a(_arm_fixsfsi.o)
 .bss           0x0000000000000000        0x0 /opt/gcc-arm-none-eabi-7-2017-q4-major/bin/../lib/gcc/arm-none-eabi/7.2.1/thumb/v7-m/libgcc.a(_arm_fixsfsi.o)
 .data          0x0000000000000000        0x0 /opt/gcc-arm-none-eabi-7-2017-q4-major/bin/../lib/gcc/arm-none-eabi/7.2.1/thumb/v7-m/libgcc.a(_arm_fixunssfsi.o)
 .bss           0x0000000000000000        0x0 /opt/gcc-arm-none-eabi-7-2017-q4-major/bin/../lib/gcc/arm-none-eabi/7.2.1/thumb/v7-m/libgcc.a(_arm_fixunssfsi.o)

Memory Configuration

Name             Origin             Length             Attributes
flash            0x0000000008001000 0x000000000000f000 xr
sram             0x0000000020000000 0x0000000000002000 xrw
*default*        0x0000000000000000 0xffffffffffffffff

Linker script and memory map

LOAD platforms/nuttx/CMakeFiles/px4.dir/__/common/empty.c.obj

.text           0x0000000008001000     0xe404
                0x0000000008001000                _stext = ABSOLUTE (.)
 *(.vectors)
 .vectors       0x0000000008001000      0x134 NuttX/nuttx/arch/arm/src/libarch.a(up_vectors.o)
                0x0000000008001000                _vectors
 *(.text .text.*)
 .text.go_nx_start
                0x0000000008001134       0x26 NuttX/nuttx/arch/arm/src/libarch.a(stm32_start.o)
 *fill*         0x000000000800115a        0x2 
 .text.__start  0x000000000800115c       0x58 NuttX/nuttx/arch/arm/src/libarch.a(stm32_start.o)
                0x000000000800115c                __start
 .text.stm32_clockconfig
                0x00000000080011b4       0xe4 NuttX/nuttx/arch/arm/src/libarch.a(stm32_rcc.o)
                0x00000000080011b4                stm32_clockconfig
 .text.stm32_gpioinit
                0x0000000008001298       0x10 NuttX/nuttx/arch/arm/src/libarch.a(stm32_gpio.o)
                0x0000000008001298                stm32_gpioinit
 .text.stm32_configgpio
                0x00000000080012a8       0xcc NuttX/nuttx/arch/arm/src/libarch.a(stm32_gpio.o)
                0x00000000080012a8                stm32_configgpio
 .text.stm32_unconfiggpio
                0x0000000008001374        0xc NuttX/nuttx/arch/arm/src/libarch.a(stm32_gpio.o)
                0x0000000008001374                stm32_unconfiggpio
 .text.stm32_gpiowrite
                0x0000000008001380       0x2c NuttX/nuttx/arch/arm/src/libarch.a(stm32_gpio.o)
                0x0000000008001380                stm32_gpiowrite
 .text.stm32_gpioread
                0x00000000080013ac       0x2c NuttX/nuttx/arch/arm/src/libarch.a(stm32_gpio.o)
                0x00000000080013ac                stm32_gpioread
 .text.up_lowputc
                0x00000000080013d8       0x18 NuttX/nuttx/arch/arm/src/libarch.a(stm32_lowputc.o)
                0x00000000080013d8                up_lowputc
 .text.stm32_lowsetup
                0x00000000080013f0       0x6c NuttX/nuttx/arch/arm/src/libarch.a(stm32_lowputc.o)
                0x00000000080013f0                stm32_lowsetup
 .text.up_setusartint
                0x000000000800145c       0x28 NuttX/nuttx/arch/arm/src/libarch.a(stm32_serial.o)
 .text.up_restoreusartint
                0x0000000008001484       0x18 NuttX/nuttx/arch/arm/src/libarch.a(stm32_serial.o)
 .text.up_disableusartint
                0x000000000800149c       0x2e NuttX/nuttx/arch/arm/src/libarch.a(stm32_serial.o)
 .text.up_set_format
                0x00000000080014ca       0x76 NuttX/nuttx/arch/arm/src/libarch.a(stm32_serial.o)
 .text.up_receive
                0x0000000008001540       0x1a NuttX/nuttx/arch/arm/src/libarch.a(stm32_serial.o)
 .text.up_rxint
                0x000000000800155a       0x2e NuttX/nuttx/arch/arm/src/libarch.a(stm32_serial.o)
 .text.up_rxavailable
                0x0000000008001588        0xc NuttX/nuttx/arch/arm/src/libarch.a(stm32_serial.o)
 .text.up_dma_rxint
                0x0000000008001594        0x8 NuttX/nuttx/arch/arm/src/libarch.a(stm32_serial.o)
 .text.up_send  0x000000000800159c        0x8 NuttX/nuttx/arch/arm/src/libarch.a(stm32_serial.o)
 .text.up_txready
                0x00000000080015a4        0xc NuttX/nuttx/arch/arm/src/libarch.a(stm32_serial.o)
 .text.up_txint
                0x00000000080015b0       0x36 NuttX/nuttx/arch/arm/src/libarch.a(stm32_serial.o)
 .text.up_dma_receive
                0x00000000080015e6       0x2a NuttX/nuttx/arch/arm/src/libarch.a(stm32_serial.o)
 .text.up_ioctl
                0x0000000008001610       0xd4 NuttX/nuttx/arch/arm/src/libarch.a(stm32_serial.o)
 .text.up_detach
                0x00000000080016e4       0x1c NuttX/nuttx/arch/arm/src/libarch.a(stm32_serial.o)
 .text.up_attach
                0x0000000008001700       0x24 NuttX/nuttx/arch/arm/src/libarch.a(stm32_serial.o)
 .text.up_interrupt
                0x0000000008001724       0x56 NuttX/nuttx/arch/arm/src/libarch.a(stm32_serial.o)
 .text.up_dma_rxavailable
                0x000000000800177a       0x18 NuttX/nuttx/arch/arm/src/libarch.a(stm32_serial.o)
 .text.up_dma_rxcallback
                0x0000000008001792       0x1e NuttX/nuttx/arch/arm/src/libarch.a(stm32_serial.o)
 .text.up_shutdown
                0x00000000080017b0       0x74 NuttX/nuttx/arch/arm/src/libarch.a(stm32_serial.o)
 .text.up_dma_shutdown
                0x0000000008001824       0x1a NuttX/nuttx/arch/arm/src/libarch.a(stm32_serial.o)
 *fill*         0x000000000800183e        0x2 
 .text.up_setup
                0x0000000008001840       0xa0 NuttX/nuttx/arch/arm/src/libarch.a(stm32_serial.o)
 .text.up_dma_setup
                0x00000000080018e0       0x54 NuttX/nuttx/arch/arm/src/libarch.a(stm32_serial.o)
 .text.up_earlyserialinit
                0x0000000008001934       0x34 NuttX/nuttx/arch/arm/src/libarch.a(stm32_serial.o)
                0x0000000008001934                up_earlyserialinit
 .text.up_serialinit
                0x0000000008001968       0x60 NuttX/nuttx/arch/arm/src/libarch.a(stm32_serial.o)
                0x0000000008001968                up_serialinit
 .text.stm32_serial_dma_poll
                0x00000000080019c8       0x34 NuttX/nuttx/arch/arm/src/libarch.a(stm32_serial.o)
                0x00000000080019c8                stm32_serial_dma_poll
 .text.up_putc  0x00000000080019fc       0x34 NuttX/nuttx/arch/arm/src/libarch.a(stm32_serial.o)
                0x00000000080019fc                up_putc
 .text.modifyreg32
                0x0000000008001a30       0x1e NuttX/nuttx/arch/arm/src/libarch.a(up_modifyreg32.o)
                0x0000000008001a30                modifyreg32
 .text          0x0000000008001a4e       0x5e NuttX/nuttx/arch/arm/src/libarch.a(up_exception.o)
                0x0000000008001a4e                exception_common
 .text.stm32_irqinfo
                0x0000000008001aac       0x68 NuttX/nuttx/arch/arm/src/libarch.a(stm32_irq.o)
 .text.up_irqinitialize
                0x0000000008001b14       0x94 NuttX/nuttx/arch/arm/src/libarch.a(stm32_irq.o)
                0x0000000008001b14                up_irqinitialize
 .text.up_disable_irq
                0x0000000008001ba8       0x24 NuttX/nuttx/arch/arm/src/libarch.a(stm32_irq.o)
                0x0000000008001ba8                up_disable_irq
 .text.up_enable_irq
                0x0000000008001bcc       0x24 NuttX/nuttx/arch/arm/src/libarch.a(stm32_irq.o)
                0x0000000008001bcc                up_enable_irq
 .text.up_ack_irq
                0x0000000008001bf0        0x2 NuttX/nuttx/arch/arm/src/libarch.a(stm32_irq.o)
                0x0000000008001bf0                up_ack_irq
 .text.stm32_dmachandisable
                0x0000000008001bf2       0x20 NuttX/nuttx/arch/arm/src/libarch.a(stm32_dma.o)
 *fill*         0x0000000008001c12        0x2 
 .text.stm32_dmainterrupt
                0x0000000008001c14       0x40 NuttX/nuttx/arch/arm/src/libarch.a(stm32_dma.o)
 .text.up_dma_initialize
                0x0000000008001c54       0x40 NuttX/nuttx/arch/arm/src/libarch.a(stm32_dma.o)
                0x0000000008001c54                up_dma_initialize
 .text.stm32_dmachannel
                0x0000000008001c94       0x20 NuttX/nuttx/arch/arm/src/libarch.a(stm32_dma.o)
                0x0000000008001c94                stm32_dmachannel
 .text.stm32_dmafree
                0x0000000008001cb4        0x6 NuttX/nuttx/arch/arm/src/libarch.a(stm32_dma.o)
                0x0000000008001cb4                stm32_dmafree
 .text.stm32_dmasetup
                0x0000000008001cba       0x34 NuttX/nuttx/arch/arm/src/libarch.a(stm32_dma.o)
                0x0000000008001cba                stm32_dmasetup
 .text.stm32_dmastart
                0x0000000008001cee       0x28 NuttX/nuttx/arch/arm/src/libarch.a(stm32_dma.o)
                0x0000000008001cee                stm32_dmastart
 .text.stm32_dmastop
                0x0000000008001d16        0x4 NuttX/nuttx/arch/arm/src/libarch.a(stm32_dma.o)
                0x0000000008001d16                stm32_dmastop
 .text.stm32_dmaresidual
                0x0000000008001d1a        0x6 NuttX/nuttx/arch/arm/src/libarch.a(stm32_dma.o)
                0x0000000008001d1a                stm32_dmaresidual
 .text.up_hardfault
                0x0000000008001d20       0x18 NuttX/nuttx/arch/arm/src/libarch.a(up_hardfault.o)
                0x0000000008001d20                up_hardfault
 .text.up_svcall
                0x0000000008001d38       0x38 NuttX/nuttx/arch/arm/src/libarch.a(up_svcall.o)
                0x0000000008001d38                up_svcall
 .text.up_doirq
                0x0000000008001d70       0x24 NuttX/nuttx/arch/arm/src/libarch.a(up_doirq.o)
                0x0000000008001d70                up_doirq
 .text.up_assert
                0x0000000008001d94       0x48 NuttX/nuttx/arch/arm/src/libarch.a(up_assert.o)
                0x0000000008001d94                up_assert
 .text.up_interrupt_context
                0x0000000008001ddc       0x10 NuttX/nuttx/arch/arm/src/libarch.a(up_interruptcontext.o)
                0x0000000008001ddc                up_interrupt_context
 .text.nxsem_init
                0x0000000008001dec       0x16 NuttX/nuttx/libs/libc/libc.a(sem_init.o)
                0x0000000008001dec                nxsem_init
 .text.abort    0x0000000008001e02        0x8 NuttX/nuttx/libs/libc/libc.a(lib_abort.o)
                0x0000000008001e02                abort
 .text.strcpy   0x0000000008001e0a       0x10 NuttX/nuttx/libs/libc/libc.a(lib_strcpy.o)
                0x0000000008001e0a                strcpy
 .text.memcpy   0x0000000008001e1a       0x16 NuttX/nuttx/libs/libc/libc.a(lib_memcpy.o)
                0x0000000008001e1a                memcpy
 .text.cfgetspeed
                0x0000000008001e30        0x4 NuttX/nuttx/libs/libc/libc.a(lib_cfgetspeed.o)
                0x0000000008001e30                cfgetspeed
 .text.cfsetspeed
                0x0000000008001e34        0x6 NuttX/nuttx/libs/libc/libc.a(lib_cfsetspeed.o)
                0x0000000008001e34                cfsetspeed
 .text.uart_putc
                0x0000000008001e3a       0x20 NuttX/nuttx/drivers/libdrivers.a(serial.o)
 .text.uart_takesem
                0x0000000008001e5a       0x14 NuttX/nuttx/drivers/libdrivers.a(serial.o)
 .text.uart_putxmitchar
                0x0000000008001e6e       0x94 NuttX/nuttx/drivers/libdrivers.a(serial.o)
 .text.uart_read
                0x0000000008001f02      0x110 NuttX/nuttx/drivers/libdrivers.a(serial.o)
 .text.uart_open
                0x0000000008002012       0x88 NuttX/nuttx/drivers/libdrivers.a(serial.o)
 .text.uart_pollnotify
                0x000000000800209a       0x52 NuttX/nuttx/drivers/libdrivers.a(serial.o)
 .text.uart_poll
                0x00000000080020ec       0xce NuttX/nuttx/drivers/libdrivers.a(serial.o)
 *fill*         0x00000000080021ba        0x2 
 .text.uart_tcdrain
                0x00000000080021bc       0xa4 NuttX/nuttx/drivers/libdrivers.a(serial.o)
 .text.uart_write
                0x0000000008002260      0x104 NuttX/nuttx/drivers/libdrivers.a(serial.o)
 .text.uart_register
                0x0000000008002364       0x8c NuttX/nuttx/drivers/libdrivers.a(serial.o)
                0x0000000008002364                uart_register
 .text.uart_datareceived
                0x00000000080023f0       0x20 NuttX/nuttx/drivers/libdrivers.a(serial.o)
                0x00000000080023f0                uart_datareceived
 .text.uart_datasent
                0x0000000008002410       0x20 NuttX/nuttx/drivers/libdrivers.a(serial.o)
                0x0000000008002410                uart_datasent
 .text.uart_ioctl
                0x0000000008002430      0x14e NuttX/nuttx/drivers/libdrivers.a(serial.o)
 .text.uart_reset_sem
                0x000000000800257e       0x38 NuttX/nuttx/drivers/libdrivers.a(serial.o)
                0x000000000800257e                uart_reset_sem
 .text.uart_close
                0x00000000080025b6       0x70 NuttX/nuttx/drivers/libdrivers.a(serial.o)
 .text.uart_xmitchars
                0x0000000008002626       0x70 NuttX/nuttx/drivers/libdrivers.a(serial_io.o)
                0x0000000008002626                uart_xmitchars
 .text.uart_recvchars
                0x0000000008002696       0x66 NuttX/nuttx/drivers/libdrivers.a(serial_io.o)
                0x0000000008002696                uart_recvchars
 .text.syslog_flush
                0x00000000080026fc        0xc NuttX/nuttx/drivers/libdrivers.a(syslog_flush.o)
                0x00000000080026fc                syslog_flush
 .text.syslog_default_flush
                0x0000000008002708        0x4 NuttX/nuttx/drivers/libdrivers.a(syslog_channel.o)
 .text.syslog_channel
                0x000000000800270c       0x14 NuttX/nuttx/drivers/libdrivers.a(syslog_channel.o)
                0x000000000800270c                syslog_channel
 .text.register_driver
                0x0000000008002720       0x32 NuttX/nuttx/fs/libfs.a(fs_registerdriver.o)
                0x0000000008002720                register_driver
 *fill*         0x0000000008002752        0x2 
 .text.inode_initialize
                0x0000000008002754       0x2c NuttX/nuttx/fs/libfs.a(fs_inode.o)
                0x0000000008002754                inode_initialize
 .text.inode_semtake
                0x0000000008002780       0x34 NuttX/nuttx/fs/libfs.a(fs_inode.o)
                0x0000000008002780                inode_semtake
 .text.inode_semgive
                0x00000000080027b4       0x24 NuttX/nuttx/fs/libfs.a(fs_inode.o)
                0x00000000080027b4                inode_semgive
 .text.inode_alloc
                0x00000000080027d8       0x3c NuttX/nuttx/fs/libfs.a(fs_inodereserve.o)
 .text.inode_reserve
                0x0000000008002814       0xb0 NuttX/nuttx/fs/libfs.a(fs_inodereserve.o)
                0x0000000008002814                inode_reserve
 .text.inode_nextname
                0x00000000080028c4       0x20 NuttX/nuttx/fs/libfs.a(fs_inodesearch.o)
                0x00000000080028c4                inode_nextname
 .text.inode_search
                0x00000000080028e4       0xa4 NuttX/nuttx/fs/libfs.a(fs_inodesearch.o)
                0x00000000080028e4                inode_search
 .text.zalloc   0x0000000008002988        0xc NuttX/nuttx/mm/libmm.a(umm_zalloc.o)
                0x0000000008002988                zalloc
 .text.mm_zalloc
                0x0000000008002994       0x18 NuttX/nuttx/mm/libmm.a(mm_zalloc.o)
                0x0000000008002994                mm_zalloc
 .text.mm_malloc
                0x00000000080029ac       0x96 NuttX/nuttx/mm/libmm.a(mm_malloc.o)
                0x00000000080029ac                mm_malloc
 .text.mm_seminitialize
                0x0000000008002a42       0x18 NuttX/nuttx/mm/libmm.a(mm_sem.o)
                0x0000000008002a42                mm_seminitialize
 .text.mm_trysemaphore
                0x0000000008002a5a       0x2c NuttX/nuttx/mm/libmm.a(mm_sem.o)
                0x0000000008002a5a                mm_trysemaphore
 .text.mm_takesemaphore
                0x0000000008002a86       0x2a NuttX/nuttx/mm/libmm.a(mm_sem.o)
                0x0000000008002a86                mm_takesemaphore
 .text.mm_givesemaphore
                0x0000000008002ab0       0x1a NuttX/nuttx/mm/libmm.a(mm_sem.o)
                0x0000000008002ab0                mm_givesemaphore
 .text.mm_addfreechunk
                0x0000000008002aca       0x38 NuttX/nuttx/mm/libmm.a(mm_addfreechunk.o)
                0x0000000008002aca                mm_addfreechunk
 .text.mm_size2ndx
                0x0000000008002b02       0x1a NuttX/nuttx/mm/libmm.a(mm_size2ndx.o)
                0x0000000008002b02                mm_size2ndx
 .text.clock_basetime
                0x0000000008002b1c       0x20 NuttX/nuttx/sched/libsched.a(clock_initialize.o)
                0x0000000008002b1c                clock_basetime
 .text.clock_initialize
                0x0000000008002b3c       0x54 NuttX/nuttx/sched/libsched.a(clock_initialize.o)
                0x0000000008002b3c                clock_initialize
 .text.clock_timer
                0x0000000008002b90       0x10 NuttX/nuttx/sched/libsched.a(clock_initialize.o)
                0x0000000008002b90                clock_timer
 .text.clock_ticks2time
                0x0000000008002ba0       0x1c NuttX/nuttx/sched/libsched.a(clock_ticks2time.o)
                0x0000000008002ba0                clock_ticks2time
 .text.get_errno_ptr
                0x0000000008002bbc       0x24 NuttX/nuttx/sched/libsched.a(errno_getptr.o)
                0x0000000008002bbc                get_errno_ptr
 .text.nx_start
                0x0000000008002be0      0x160 NuttX/nuttx/sched/libsched.a(nx_start.o)
                0x0000000008002be0                nx_start
 .text.nx_bringup
                0x0000000008002d40       0x24 NuttX/nuttx/sched/libsched.a(nx_bringup.o)
                0x0000000008002d40                nx_bringup
 .text.irq_attach
                0x0000000008002d64       0x44 NuttX/nuttx/sched/libsched.a(irq_attach.o)
                0x0000000008002d64                irq_attach
 .text.irq_dispatch
                0x0000000008002da8       0x3c NuttX/nuttx/sched/libsched.a(irq_dispatch.o)
                0x0000000008002da8                irq_dispatch
 .text.irq_unexpected_isr
                0x0000000008002de4       0x18 NuttX/nuttx/sched/libsched.a(irq_unexpectedisr.o)
                0x0000000008002de4                irq_unexpected_isr
 .text.sched_garbage_collection
                0x0000000008002dfc       0x30 NuttX/nuttx/sched/libsched.a(sched_garbage.o)
                0x0000000008002dfc                sched_garbage_collection
 .text.sched_have_garbage
                0x0000000008002e2c       0x10 NuttX/nuttx/sched/libsched.a(sched_garbage.o)
                0x0000000008002e2c                sched_have_garbage
 .text.sched_idletask
                0x0000000008002e3c       0x18 NuttX/nuttx/sched/libsched.a(sched_idletask.o)
                0x0000000008002e3c                sched_idletask
 .text.nxsem_wait
                0x0000000008002e54       0x54 NuttX/nuttx/sched/libsched.a(sem_wait.o)
                0x0000000008002e54                nxsem_wait
 .text.sem_wait
                0x0000000008002ea8       0x1c NuttX/nuttx/sched/libsched.a(sem_wait.o)
                0x0000000008002ea8                sem_wait
 .text.nxsem_trywait
                0x0000000008002ec4       0x40 NuttX/nuttx/sched/libsched.a(sem_trywait.o)
                0x0000000008002ec4                nxsem_trywait
 .text.sem_trywait
                0x0000000008002f04       0x1a NuttX/nuttx/sched/libsched.a(sem_trywait.o)
                0x0000000008002f04                sem_trywait
 *fill*         0x0000000008002f1e        0x2 
 .text.nxsem_post
                0x0000000008002f20       0x48 NuttX/nuttx/sched/libsched.a(sem_post.o)
                0x0000000008002f20                nxsem_post
 .text.sem_post
                0x0000000008002f68       0x1a NuttX/nuttx/sched/libsched.a(sem_post.o)
                0x0000000008002f68                sem_post
 .text.nxsem_reset
                0x0000000008002f82       0x42 NuttX/nuttx/sched/libsched.a(sem_reset.o)
                0x0000000008002f82                nxsem_reset
 .text.nxsig_usleep
                0x0000000008002fc4       0x2c NuttX/nuttx/sched/libsched.a(sig_usleep.o)
                0x0000000008002fc4                nxsig_usleep
 .text.nxthread_create
                0x0000000008002ff0       0x9c NuttX/nuttx/sched/libsched.a(task_create.o)
 .text.nxtask_create
                0x000000000800308c       0x16 NuttX/nuttx/sched/libsched.a(task_create.o)
                0x000000000800308c                nxtask_create
 *fill*         0x00000000080030a2        0x2 
 .text.nxtask_schedsetup
                0x00000000080030a4       0xc0 NuttX/nuttx/sched/libsched.a(task_setup.o)
                0x00000000080030a4                nxtask_schedsetup
 .text.nxtask_argsetup
                0x0000000008003164       0xac NuttX/nuttx/sched/libsched.a(task_setup.o)
                0x0000000008003164                nxtask_argsetup
 .text.task_activate
                0x0000000008003210       0x1a NuttX/nuttx/sched/libsched.a(task_activate.o)
                0x0000000008003210                task_activate
 *fill*         0x000000000800322a        0x2 
 .text.nxtask_start
                0x000000000800322c       0x2c NuttX/nuttx/sched/libsched.a(task_start.o)
                0x000000000800322c                nxtask_start
 .text.getpid   0x0000000008003258       0x1c NuttX/nuttx/sched/libsched.a(task_getpid.o)
                0x0000000008003258                getpid
 .text.exit     0x0000000008003274       0x1c NuttX/nuttx/sched/libsched.a(exit.o)
                0x0000000008003274                exit
 .text.group_allocate
                0x0000000008003290       0x18 NuttX/nuttx/sched/libsched.a(group_create.o)
                0x0000000008003290                group_allocate
 .text.group_initialize
                0x00000000080032a8        0xa NuttX/nuttx/sched/libsched.a(group_create.o)
                0x00000000080032a8                group_initialize
 *fill*         0x00000000080032b2        0x2 
 .text.group_setupidlefiles
                0x00000000080032b4       0x38 NuttX/nuttx/sched/libsched.a(group_setupidlefiles.o)
                0x00000000080032b4                group_setupidlefiles
 .text.group_setuptaskfiles
                0x00000000080032ec        0xe NuttX/nuttx/sched/libsched.a(group_setuptaskfiles.o)
                0x00000000080032ec                group_setuptaskfiles
 *fill*         0x00000000080032fa        0x2 
 .text.irq_initialize
                0x00000000080032fc       0x24 NuttX/nuttx/sched/libsched.a(irq_initialize.o)
                0x00000000080032fc                irq_initialize
 .text.sched_releasetcb
                0x0000000008003320       0x40 NuttX/nuttx/sched/libsched.a(sched_releasetcb.o)
                0x0000000008003320                sched_releasetcb
 .text.sched_lock
                0x0000000008003360       0x1c NuttX/nuttx/sched/libsched.a(sched_lock.o)
                0x0000000008003360                sched_lock
 .text.sched_unlock
                0x000000000800337c       0x50 NuttX/nuttx/sched/libsched.a(sched_unlock.o)
                0x000000000800337c                sched_unlock
 .text.nxsig_procmask
                0x00000000080033cc       0x64 NuttX/nuttx/sched/libsched.a(sig_procmask.o)
                0x00000000080033cc                nxsig_procmask
 .text.nxsig_unmask_pendingsignal
                0x0000000008003430       0x64 NuttX/nuttx/sched/libsched.a(sig_unmaskpendingsignal.o)
                0x0000000008003430                nxsig_unmask_pendingsignal
 .text.nxsig_remove_pendingsignal
                0x0000000008003494       0x3c NuttX/nuttx/sched/libsched.a(sig_removependingsignal.o)
                0x0000000008003494                nxsig_remove_pendingsignal
 .text.nxsig_release_pendingsignal
                0x00000000080034d0       0x44 NuttX/nuttx/sched/libsched.a(sig_releasependingsignal.o)
                0x00000000080034d0                nxsig_release_pendingsignal
 .text.nxsig_lowest
                0x0000000008003514       0x1e NuttX/nuttx/sched/libsched.a(sig_lowest.o)
                0x0000000008003514                nxsig_lowest
 *fill*         0x0000000008003532        0x2 
 .text.nxsig_tcbdispatch
                0x0000000008003534      0x180 NuttX/nuttx/sched/libsched.a(sig_dispatch.o)
                0x0000000008003534                nxsig_tcbdispatch
 .text.nxsig_deliver
                0x00000000080036b4       0xb2 NuttX/nuttx/sched/libsched.a(sig_deliver.o)
                0x00000000080036b4                nxsig_deliver
 *fill*         0x0000000008003766        0x2 
 .text.nxsig_nanosleep
                0x0000000008003768       0x84 NuttX/nuttx/sched/libsched.a(sig_nanosleep.o)
                0x0000000008003768                nxsig_nanosleep
 .text.nxtask_exithook
                0x00000000080037ec       0x24 NuttX/nuttx/sched/libsched.a(task_exithook.o)
                0x00000000080037ec                nxtask_exithook
 .text.nxtask_recover
                0x0000000008003810       0x12 NuttX/nuttx/sched/libsched.a(task_recover.o)
                0x0000000008003810                nxtask_recover
 .text.wd_recover
                0x0000000008003822       0x28 NuttX/nuttx/sched/libsched.a(wd_recover.o)
                0x0000000008003822                wd_recover
 *fill*         0x000000000800384a        0x2 
 .text.clock_time2ticks
                0x000000000800384c       0x40 NuttX/nuttx/sched/libsched.a(clock_time2ticks.o)
                0x000000000800384c                clock_time2ticks
 .text.group_leave
                0x000000000800388c       0x2e NuttX/nuttx/sched/libsched.a(group_leave.o)
                0x000000000800388c                group_leave
 *fill*         0x00000000080038ba        0x2 
 .text.sched_ufree
                0x00000000080038bc       0x40 NuttX/nuttx/sched/libsched.a(sched_free.o)
                0x00000000080038bc                sched_ufree
 .text.sched_gettcb
                0x00000000080038fc       0x38 NuttX/nuttx/sched/libsched.a(sched_gettcb.o)
                0x00000000080038fc                sched_gettcb
 .text.nxsem_recover
                0x0000000008003934       0x26 NuttX/nuttx/sched/libsched.a(sem_recover.o)
                0x0000000008003934                nxsem_recover
 .text.nxsem_wait_irq
                0x000000000800395a       0x2e NuttX/nuttx/sched/libsched.a(sem_waitirq.o)
                0x000000000800395a                nxsem_wait_irq
 .text.nxsig_alloc_actionblock
                0x0000000008003988       0x28 NuttX/nuttx/sched/libsched.a(sig_initialize.o)
                0x0000000008003988                nxsig_alloc_actionblock
 .text.nxsig_initialize
                0x00000000080039b0       0xc4 NuttX/nuttx/sched/libsched.a(sig_initialize.o)
                0x00000000080039b0                nxsig_initialize
 .text.nxsig_pendingset
                0x0000000008003a74       0x32 NuttX/nuttx/sched/libsched.a(sig_pending.o)
                0x0000000008003a74                nxsig_pendingset
 .text.nxsig_timeout
                0x0000000008003aa6       0x20 NuttX/nuttx/sched/libsched.a(sig_timedwait.o)
 *fill*         0x0000000008003ac6        0x2 
 .text.nxsig_timedwait
                0x0000000008003ac8      0x104 NuttX/nuttx/sched/libsched.a(sig_timedwait.o)
                0x0000000008003ac8                nxsig_timedwait
 .text.nxsig_find_action
                0x0000000008003bcc       0x22 NuttX/nuttx/sched/libsched.a(sig_findaction.o)
                0x0000000008003bcc                nxsig_find_action
 *fill*         0x0000000008003bee        0x2 
 .text.nxsig_alloc_pendingsigaction
                0x0000000008003bf0       0x48 NuttX/nuttx/sched/libsched.a(sig_allocpendingsigaction.o)
                0x0000000008003bf0                nxsig_alloc_pendingsigaction
 .text.nxsig_release_pendingsigaction
                0x0000000008003c38       0x44 NuttX/nuttx/sched/libsched.a(sig_releasependingsigaction.o)
                0x0000000008003c38                nxsig_release_pendingsigaction
 .text.nxsig_cleanup
                0x0000000008003c7c       0x32 NuttX/nuttx/sched/libsched.a(sig_cleanup.o)
                0x0000000008003c7c                nxsig_cleanup
 .text.nxsig_release
                0x0000000008003cae       0x26 NuttX/nuttx/sched/libsched.a(sig_cleanup.o)
                0x0000000008003cae                nxsig_release
 .text.wd_create
                0x0000000008003cd4       0x58 NuttX/nuttx/sched/libsched.a(wd_create.o)
                0x0000000008003cd4                wd_create
 .text.wd_start
                0x0000000008003d2c       0xe0 NuttX/nuttx/sched/libsched.a(wd_start.o)
                0x0000000008003d2c                wd_start
 .text.wd_timer
                0x0000000008003e0c       0x4c NuttX/nuttx/sched/libsched.a(wd_start.o)
                0x0000000008003e0c                wd_timer
 .text.wd_cancel
                0x0000000008003e58       0x68 NuttX/nuttx/sched/libsched.a(wd_cancel.o)
                0x0000000008003e58                wd_cancel
 .text.wd_delete
                0x0000000008003ec0       0x50 NuttX/nuttx/sched/libsched.a(wd_delete.o)
                0x0000000008003ec0                wd_delete
 .text.nxsig_release_action
                0x0000000008003f10        0xc NuttX/nuttx/sched/libsched.a(sig_action.o)
                0x0000000008003f10                nxsig_release_action
 .text.wd_initialize
                0x0000000008003f1c       0x30 NuttX/nuttx/sched/libsched.a(wd_initialize.o)
                0x0000000008003f1c                wd_initialize
 .text.up_allocate_heap
                0x0000000008003f4c       0x14 NuttX/nuttx/arch/arm/src/libarch.a(stm32_allocateheap.o)
                0x0000000008003f4c                up_allocate_heap
 .text.up_idle  0x0000000008003f60        0x2 NuttX/nuttx/arch/arm/src/libarch.a(stm32_idle.o)
                0x0000000008003f60                up_idle
 *fill*         0x0000000008003f62        0x2 
 .text.up_block_task
                0x0000000008003f64       0x5c NuttX/nuttx/arch/arm/src/libarch.a(up_blocktask.o)
                0x0000000008003f64                up_block_task
 .text.up_copyfullstate
                0x0000000008003fc0       0x18 NuttX/nuttx/arch/arm/src/libarch.a(up_copyfullstate.o)
                0x0000000008003fc0                up_copyfullstate
 .text.up_stack_color
                0x0000000008003fd8       0x28 NuttX/nuttx/arch/arm/src/libarch.a(up_createstack.o)
                0x0000000008003fd8                up_stack_color
 .text.up_create_stack
                0x0000000008004000       0x46 NuttX/nuttx/arch/arm/src/libarch.a(up_createstack.o)
                0x0000000008004000                up_create_stack
 *fill*         0x0000000008004046        0x2 
 .text._exit    0x0000000008004048       0x20 NuttX/nuttx/arch/arm/src/libarch.a(up_exit.o)
                0x0000000008004048                _exit
 .text.up_initialize
                0x0000000008004068       0x30 NuttX/nuttx/arch/arm/src/libarch.a(up_initialize.o)
                0x0000000008004068                up_initialize
 .text.up_initial_state
                0x0000000008004098       0x32 NuttX/nuttx/arch/arm/src/libarch.a(up_initialstate.o)
                0x0000000008004098                up_initial_state
 *fill*         0x00000000080040ca        0x2 
 .text.up_release_pending
                0x00000000080040cc       0x38 NuttX/nuttx/arch/arm/src/libarch.a(up_releasepending.o)
                0x00000000080040cc                up_release_pending
 .text.up_release_stack
                0x0000000008004104       0x1e NuttX/nuttx/arch/arm/src/libarch.a(up_releasestack.o)
                0x0000000008004104                up_release_stack
 *fill*         0x0000000008004122        0x2 
 .text.up_schedule_sigaction
                0x0000000008004124       0x80 NuttX/nuttx/arch/arm/src/libarch.a(up_schedulesigaction.o)
                0x0000000008004124                up_schedule_sigaction
 .text.up_sigdeliver
                0x00000000080041a4       0x48 NuttX/nuttx/arch/arm/src/libarch.a(up_sigdeliver.o)
                0x00000000080041a4                up_sigdeliver
 .text.up_stack_frame
                0x00000000080041ec       0x26 NuttX/nuttx/arch/arm/src/libarch.a(up_stackframe.o)
                0x00000000080041ec                up_stack_frame
 *fill*         0x0000000008004212        0x2 
 .text.up_unblock_task
                0x0000000008004214       0x40 NuttX/nuttx/arch/arm/src/libarch.a(up_unblocktask.o)
                0x0000000008004214                up_unblock_task
 .text          0x0000000008004254        0xa NuttX/nuttx/arch/arm/src/libarch.a(up_fullcontextrestore.o)
                0x0000000008004254                up_fullcontextrestore
 .text          0x000000000800425e        0xc NuttX/nuttx/arch/arm/src/libarch.a(up_switchcontext.o)
                0x000000000800425e                up_switchcontext
 .text.stm32_timerisr
                0x000000000800426a        0xa NuttX/nuttx/arch/arm/src/libarch.a(stm32_timerisr.o)
 .text.arm_timer_initialize
                0x0000000008004274       0x44 NuttX/nuttx/arch/arm/src/libarch.a(stm32_timerisr.o)
                0x0000000008004274                arm_timer_initialize
 .text.sq_addlast
                0x00000000080042b8       0x14 NuttX/nuttx/libs/libc/libc.a(sq_addlast.o)
                0x00000000080042b8                sq_addlast
 .text.sq_addfirst
                0x00000000080042cc        0xe NuttX/nuttx/libs/libc/libc.a(sq_addfirst.o)
                0x00000000080042cc                sq_addfirst
 .text.sq_addafter
                0x00000000080042da       0x1c NuttX/nuttx/libs/libc/libc.a(sq_addafter.o)
                0x00000000080042da                sq_addafter
 .text.sq_rem   0x00000000080042f6       0x2c NuttX/nuttx/libs/libc/libc.a(sq_rem.o)
                0x00000000080042f6                sq_rem
 .text.sq_remfirst
                0x0000000008004322       0x14 NuttX/nuttx/libs/libc/libc.a(sq_remfirst.o)
                0x0000000008004322                sq_remfirst
 .text.sq_remafter
                0x0000000008004336       0x20 NuttX/nuttx/libs/libc/libc.a(sq_remafter.o)
                0x0000000008004336                sq_remafter
 .text.dq_addfirst
                0x0000000008004356       0x18 NuttX/nuttx/libs/libc/libc.a(dq_addfirst.o)
                0x0000000008004356                dq_addfirst
 .text.dq_rem   0x000000000800436e       0x1c NuttX/nuttx/libs/libc/libc.a(dq_rem.o)
                0x000000000800436e                dq_rem
 .text.nxsem_getvalue
                0x000000000800438a       0x14 NuttX/nuttx/libs/libc/libc.a(sem_getvalue.o)
                0x000000000800438a                nxsem_getvalue
 .text.nxsem_setprotocol
                0x000000000800439e       0x16 NuttX/nuttx/libs/libc/libc.a(sem_setprotocol.o)
                0x000000000800439e                nxsem_setprotocol
 .text.sigaddset
                0x00000000080043b4       0x24 NuttX/nuttx/libs/libc/libc.a(sig_addset.o)
                0x00000000080043b4                sigaddset
 .text.sigdelset
                0x00000000080043d8       0x26 NuttX/nuttx/libs/libc/libc.a(sig_delset.o)
                0x00000000080043d8                sigdelset
 .text.sigemptyset
                0x00000000080043fe        0x8 NuttX/nuttx/libs/libc/libc.a(sig_emptyset.o)
                0x00000000080043fe                sigemptyset
 .text.sigismember
                0x0000000008004406       0x12 NuttX/nuttx/libs/libc/libc.a(sig_ismember.o)
                0x0000000008004406                sigismember
 .text.memset   0x0000000008004418       0x10 NuttX/nuttx/libs/libc/libc.a(lib_memset.o)
                0x0000000008004418                memset
 .text.strlen   0x0000000008004428       0x10 NuttX/nuttx/libs/libc/libc.a(lib_strlen.o)
                0x0000000008004428                strlen
 .text.clock_calendar2utc
                0x0000000008004438       0x34 NuttX/nuttx/libs/libc/libc.a(lib_calendar2utc.o)
                0x0000000008004438                clock_calendar2utc
 .text.clock_daysbeforemonth
                0x000000000800446c       0x18 NuttX/nuttx/libs/libc/libc.a(lib_daysbeforemonth.o)
                0x000000000800446c                clock_daysbeforemonth
 .text.clock_isleapyear
                0x0000000008004484       0x2c NuttX/nuttx/libs/libc/libc.a(lib_isleapyear.o)
                0x0000000008004484                clock_isleapyear
 .text.syslog_initialize
                0x00000000080044b0        0xc NuttX/nuttx/drivers/libdrivers.a(syslog_initialize.o)
                0x00000000080044b0                syslog_initialize
 .text.syslog_console_channel
                0x00000000080044bc       0x28 NuttX/nuttx/drivers/libdrivers.a(syslog_consolechannel.o)
                0x00000000080044bc                syslog_console_channel
 .text.syslog_dev_takesem
                0x00000000080044e4       0x2c NuttX/nuttx/drivers/libdrivers.a(syslog_device.o)
 .text.syslog_dev_initialize
                0x0000000008004510       0x64 NuttX/nuttx/drivers/libdrivers.a(syslog_device.o)
                0x0000000008004510                syslog_dev_initialize
 .text.syslog_dev_outputready
                0x0000000008004574       0x60 NuttX/nuttx/drivers/libdrivers.a(syslog_device.o)
 .text.syslog_dev_write
                0x00000000080045d4       0xcc NuttX/nuttx/drivers/libdrivers.a(syslog_device.o)
                0x00000000080045d4                syslog_dev_write
 .text.syslog_dev_putc
                0x00000000080046a0       0x60 NuttX/nuttx/drivers/libdrivers.a(syslog_device.o)
                0x00000000080046a0                syslog_dev_putc
 .text.syslog_dev_flush
                0x0000000008004700        0x4 NuttX/nuttx/drivers/libdrivers.a(syslog_device.o)
                0x0000000008004700                syslog_dev_flush
 .text.fs_initialize
                0x0000000008004704        0x4 NuttX/nuttx/fs/libfs.a(fs_initialize.o)
                0x0000000008004704                fs_initialize
 .text._files_close
                0x0000000008004708       0x2a NuttX/nuttx/fs/libfs.a(fs_files.o)
 .text._files_semtake
                0x0000000008004732       0x10 NuttX/nuttx/fs/libfs.a(fs_files.o)
 .text.files_initialize
                0x0000000008004742        0x2 NuttX/nuttx/fs/libfs.a(fs_files.o)
                0x0000000008004742                files_initialize
 .text.files_initlist
                0x0000000008004744        0x8 NuttX/nuttx/fs/libfs.a(fs_files.o)
                0x0000000008004744                files_initlist
 .text.files_releaselist
                0x000000000800474c       0x24 NuttX/nuttx/fs/libfs.a(fs_files.o)
                0x000000000800474c                files_releaselist
 .text.file_dup2
                0x0000000008004770       0x7e NuttX/nuttx/fs/libfs.a(fs_files.o)
                0x0000000008004770                file_dup2
 .text.files_allocate
                0x00000000080047ee       0x4e NuttX/nuttx/fs/libfs.a(fs_files.o)
                0x00000000080047ee                files_allocate
 .text.files_close
                0x000000000800483c       0x34 NuttX/nuttx/fs/libfs.a(fs_files.o)
                0x000000000800483c                files_close
 .text.files_release
                0x0000000008004870       0x2a NuttX/nuttx/fs/libfs.a(fs_files.o)
                0x0000000008004870                files_release
 .text.inode_addref
                0x000000000800489a       0x1a NuttX/nuttx/fs/libfs.a(fs_inodeaddref.o)
                0x000000000800489a                inode_addref
 .text.inode_release
                0x00000000080048b4       0x3a NuttX/nuttx/fs/libfs.a(fs_inoderelease.o)
                0x00000000080048b4                inode_release
 .text.file_open
                0x00000000080048ee       0x3a NuttX/nuttx/fs/libfs.a(fs_fileopen.o)
                0x00000000080048ee                file_open
 .text.file_detach
                0x0000000008004928       0x52 NuttX/nuttx/fs/libfs.a(fs_filedetach.o)
                0x0000000008004928                file_detach
 .text.close    0x000000000800497a       0x24 NuttX/nuttx/fs/libfs.a(fs_close.o)
                0x000000000800497a                close
 .text.dup2     0x000000000800499e       0x50 NuttX/nuttx/fs/libfs.a(fs_dupfd2.o)
                0x000000000800499e                dup2
 .text.fs_getfilep
                0x00000000080049ee       0x2c NuttX/nuttx/fs/libfs.a(fs_getfilep.o)
                0x00000000080049ee                fs_getfilep
 .text.inode_checkflags
                0x0000000008004a1a       0x28 NuttX/nuttx/fs/libfs.a(fs_open.o)
                0x0000000008004a1a                inode_checkflags
 .text.nx_vopen
                0x0000000008004a42       0x86 NuttX/nuttx/fs/libfs.a(fs_open.o)
                0x0000000008004a42                nx_vopen
 .text.nx_open  0x0000000008004ac8       0x1a NuttX/nuttx/fs/libfs.a(fs_open.o)
                0x0000000008004ac8                nx_open
 .text.open     0x0000000008004ae2       0x2c NuttX/nuttx/fs/libfs.a(fs_open.o)
                0x0000000008004ae2                open
 .text.file_write
                0x0000000008004b0e       0x20 NuttX/nuttx/fs/libfs.a(fs_write.o)
                0x0000000008004b0e                file_write
 .text.nx_write
                0x0000000008004b2e       0x30 NuttX/nuttx/fs/libfs.a(fs_write.o)
                0x0000000008004b2e                nx_write
 .text.write    0x0000000008004b5e       0x1a NuttX/nuttx/fs/libfs.a(fs_write.o)
                0x0000000008004b5e                write
 .text.inode_find
                0x0000000008004b78       0x22 NuttX/nuttx/fs/libfs.a(fs_inodefind.o)
                0x0000000008004b78                inode_find
 .text.inode_free
                0x0000000008004b9a       0x1e NuttX/nuttx/fs/libfs.a(fs_inodefree.o)
                0x0000000008004b9a                inode_free
 .text.umm_initialize
                0x0000000008004bb8       0x10 NuttX/nuttx/mm/libmm.a(umm_initialize.o)
                0x0000000008004bb8                umm_initialize
 .text.umm_trysemaphore
                0x0000000008004bc8        0xc NuttX/nuttx/mm/libmm.a(umm_sem.o)
                0x0000000008004bc8                umm_trysemaphore
 .text.umm_givesemaphore
                0x0000000008004bd4        0xc NuttX/nuttx/mm/libmm.a(umm_sem.o)
                0x0000000008004bd4                umm_givesemaphore
 .text.free     0x0000000008004be0        0xc NuttX/nuttx/mm/libmm.a(umm_free.o)
                0x0000000008004be0                free
 .text.malloc   0x0000000008004bec        0xc NuttX/nuttx/mm/libmm.a(umm_malloc.o)
                0x0000000008004bec                malloc
 .text.umm_heapmember
                0x0000000008004bf8        0xc NuttX/nuttx/mm/libmm.a(umm_heapmember.o)
                0x0000000008004bf8                umm_heapmember
 .text.mm_addregion
                0x0000000008004c04       0x4e NuttX/nuttx/mm/libmm.a(mm_initialize.o)
                0x0000000008004c04                mm_addregion
 .text.mm_initialize
                0x0000000008004c52       0x40 NuttX/nuttx/mm/libmm.a(mm_initialize.o)
                0x0000000008004c52                mm_initialize
 .text.mm_free  0x0000000008004c92       0x9c NuttX/nuttx/mm/libmm.a(mm_free.o)
                0x0000000008004c92                mm_free
 .text.mm_heapmember
                0x0000000008004d2e       0x16 NuttX/nuttx/mm/libmm.a(mm_heapmember.o)
                0x0000000008004d2e                mm_heapmember
 .text.sched_getfiles
                0x0000000008004d44       0x10 NuttX/nuttx/sched/libsched.a(sched_getfiles.o)
                0x0000000008004d44                sched_getfiles
 .text.sched_addreadytorun
                0x0000000008004d54       0x48 NuttX/nuttx/sched/libsched.a(sched_addreadytorun.o)
                0x0000000008004d54                sched_addreadytorun
 .text.sched_removereadytorun
                0x0000000008004d9c       0x28 NuttX/nuttx/sched/libsched.a(sched_removereadytorun.o)
                0x0000000008004d9c                sched_removereadytorun
 .text.sched_addprioritized
                0x0000000008004dc4       0x48 NuttX/nuttx/sched/libsched.a(sched_addprioritized.o)
                0x0000000008004dc4                sched_addprioritized
 .text.sched_mergepending
                0x0000000008004e0c       0x58 NuttX/nuttx/sched/libsched.a(sched_mergepending.o)
                0x0000000008004e0c                sched_mergepending
 .text.sched_addblocked
                0x0000000008004e64       0x28 NuttX/nuttx/sched/libsched.a(sched_addblocked.o)
                0x0000000008004e64                sched_addblocked
 .text.sched_removeblocked
                0x0000000008004e8c       0x1c NuttX/nuttx/sched/libsched.a(sched_removeblocked.o)
                0x0000000008004e8c                sched_removeblocked
 .text.nxsched_process_timer
                0x0000000008004ea8       0x18 NuttX/nuttx/sched/libsched.a(sched_processtimer.o)
                0x0000000008004ea8                nxsched_process_timer
 .text.nxsem_destroy
                0x0000000008004ec0       0x16 NuttX/nuttx/sched/libsched.a(sem_destroy.o)
                0x0000000008004ec0                nxsem_destroy
 *fill*         0x0000000008004ed6        0x2 
 .text.nxtask_exit
                0x0000000008004ed8       0x4c NuttX/nuttx/sched/libsched.a(task_exit.o)
                0x0000000008004ed8                nxtask_exit
 .text.nxtask_terminate
                0x0000000008004f24       0x54 NuttX/nuttx/sched/libsched.a(task_terminate.o)
                0x0000000008004f24                nxtask_terminate
 .text.dq_addlast
                0x0000000008004f78       0x18 NuttX/nuttx/libs/libc/libc.a(dq_addlast.o)
                0x0000000008004f78                dq_addlast
 .text.strdup   0x0000000008004f90       0x1c NuttX/nuttx/libs/libc/libc.a(lib_strdup.o)
                0x0000000008004f90                strdup
 .text          0x0000000008004fac       0xa0 /opt/gcc-arm-none-eabi-7-2017-q4-major/bin/../lib/gcc/arm-none-eabi/7.2.1/thumb/v7-m/libgcc.a(_aeabi_ldivmod.o)
                0x0000000008004fac                __aeabi_ldivmod
 .text          0x000000000800504c       0x30 /opt/gcc-arm-none-eabi-7-2017-q4-major/bin/../lib/gcc/arm-none-eabi/7.2.1/thumb/v7-m/libgcc.a(_aeabi_uldivmod.o)
                0x000000000800504c                __aeabi_uldivmod
 .text          0x000000000800507c      0x2d0 /opt/gcc-arm-none-eabi-7-2017-q4-major/bin/../lib/gcc/arm-none-eabi/7.2.1/thumb/v7-m/libgcc.a(_udivmoddi4.o)
                0x000000000800507c                __udivmoddi4
 .text          0x000000000800534c        0x4 /opt/gcc-arm-none-eabi-7-2017-q4-major/bin/../lib/gcc/arm-none-eabi/7.2.1/thumb/v7-m/libgcc.a(_dvmd_tls.o)
                0x000000000800534c                __aeabi_ldiv0
                0x000000000800534c                __aeabi_idiv0
 .text.atomic_modify_or
                0x0000000008005350       0x22 src/modules/px4iofirmware/libpx4iofirmware.a(px4io.c.obj)
                0x0000000008005350                atomic_modify_or
 .text.atomic_modify_clear
                0x0000000008005372       0x24 src/modules/px4iofirmware/libpx4iofirmware.a(px4io.c.obj)
                0x0000000008005372                atomic_modify_clear
 *fill*         0x0000000008005396        0x2 
 .text.isr_debug
                0x0000000008005398       0x4c src/modules/px4iofirmware/libpx4iofirmware.a(px4io.c.obj)
                0x0000000008005398                isr_debug
 .text.schedule_reboot
                0x00000000080053e4       0x20 src/modules/px4iofirmware/libpx4iofirmware.a(px4io.c.obj)
                0x00000000080053e4                schedule_reboot
 .text.user_start
                0x0000000008005404      0x3d0 src/modules/px4iofirmware/libpx4iofirmware.a(px4io.c.obj)
                0x0000000008005404                user_start
 .text.pwm_configure_rates
                0x00000000080057d4       0x74 src/modules/px4iofirmware/libpx4iofirmware.a(registers.c.obj)
 .text.registers_set
                0x0000000008005848      0x570 src/modules/px4iofirmware/libpx4iofirmware.a(registers.c.obj)
                0x0000000008005848                registers_set
 .text.registers_get
                0x0000000008005db8      0x1a0 src/modules/px4iofirmware/libpx4iofirmware.a(registers.c.obj)
                0x0000000008005db8                registers_get
 .text.safety_check_button
                0x0000000008005f58       0xc8 src/modules/px4iofirmware/libpx4iofirmware.a(safety.c.obj)
 .text.failsafe_blink
                0x0000000008006020       0x38 src/modules/px4iofirmware/libpx4iofirmware.a(safety.c.obj)
 .text.safety_init
                0x0000000008006058       0x30 src/modules/px4iofirmware/libpx4iofirmware.a(safety.c.obj)
                0x0000000008006058                safety_init
 .text.failsafe_led_init
                0x0000000008006088       0x30 src/modules/px4iofirmware/libpx4iofirmware.a(safety.c.obj)
                0x0000000008006088                failsafe_led_init
 .text.dma_reset
                0x00000000080060b8       0x6c src/modules/px4iofirmware/libpx4iofirmware.a(serial.c.obj)
 .text.rx_dma_callback
                0x0000000008006124      0x114 src/modules/px4iofirmware/libpx4iofirmware.a(serial.c.obj)
 .text.serial_interrupt
                0x0000000008006238       0x7c src/modules/px4iofirmware/libpx4iofirmware.a(serial.c.obj)
 .text.interface_init
                0x00000000080062b4       0x84 src/modules/px4iofirmware/libpx4iofirmware.a(serial.c.obj)
                0x00000000080062b4                interface_init
 .text.adc_init
                0x0000000008006338       0x80 src/modules/px4iofirmware/libpx4iofirmware.a(adc.c.obj)
                0x0000000008006338                adc_init
 .text.adc_measure
                0x00000000080063b8       0x5c src/modules/px4iofirmware/libpx4iofirmware.a(adc.c.obj)
                0x00000000080063b8                adc_measure
 .text.controls_init
                0x0000000008006414       0x74 src/modules/px4iofirmware/libpx4iofirmware.a(controls.c.obj)
                0x0000000008006414                controls_init
 .text.controls_tick
                0x0000000008006488      0x600 src/modules/px4iofirmware/libpx4iofirmware.a(controls.c.obj)
                0x0000000008006488                controls_tick
 .text._ZL14mixer_callbackjhhRf
                0x0000000008006a88      0x1c4 src/modules/px4iofirmware/libpx4iofirmware.a(mixer.cpp.obj)
 .text._ZL20mixer_mix_threadsafePfPVt.constprop.3
                0x0000000008006c4c       0x3c src/modules/px4iofirmware/libpx4iofirmware.a(mixer.cpp.obj)
 .text.mixer_handle_text_create_mixer
                0x0000000008006c88       0x9c src/modules/px4iofirmware/libpx4iofirmware.a(mixer.cpp.obj)
                0x0000000008006c88                mixer_handle_text_create_mixer
 .text.mixer_tick
                0x0000000008006d24      0x584 src/modules/px4iofirmware/libpx4iofirmware.a(mixer.cpp.obj)
                0x0000000008006d24                mixer_tick
 .text.mixer_set_failsafe
                0x00000000080072a8      0x108 src/modules/px4iofirmware/libpx4iofirmware.a(mixer.cpp.obj)
                0x00000000080072a8                mixer_set_failsafe
 .text._ZN4ListIP5MixerE5clearEv
                0x00000000080073b0       0x18 src/modules/px4iofirmware/libpx4iofirmware.a(mixer.cpp.obj)
                0x00000000080073b0                List<Mixer*>::clear()
 .text.mixer_handle_text
                0x00000000080073c8      0x100 src/modules/px4iofirmware/libpx4iofirmware.a(mixer.cpp.obj)
                0x00000000080073c8                mixer_handle_text
 .text._ZN10MixerGroupD2Ev
                0x00000000080074c8        0xc src/modules/px4iofirmware/libpx4iofirmware.a(mixer.cpp.obj)
                0x00000000080074c8                MixerGroup::~MixerGroup()
                0x00000000080074c8                MixerGroup::~MixerGroup()
 .text.startup._GLOBAL__sub_I_mixer_tick
                0x00000000080074d4       0x18 src/modules/px4iofirmware/libpx4iofirmware.a(mixer.cpp.obj)
 .text.up_cxxinitialize
                0x00000000080074ec       0x30 NuttX/apps/libapps.a(gnu_cxxinitialize.o)
                0x00000000080074ec                up_cxxinitialize
 .text.up_pwm_servo_set
                0x000000000800751c        0x4 platforms/nuttx/src/px4/stm/stm32f1/io_pins/libarch_io_pins.a(pwm_servo.c.obj)
                0x000000000800751c                up_pwm_servo_set
 .text.up_pwm_servo_init
                0x0000000008007520       0x74 platforms/nuttx/src/px4/stm/stm32f1/io_pins/libarch_io_pins.a(pwm_servo.c.obj)
                0x0000000008007520                up_pwm_servo_init
 .text.up_pwm_servo_set_rate_group_update
                0x0000000008007594       0x30 platforms/nuttx/src/px4/stm/stm32f1/io_pins/libarch_io_pins.a(pwm_servo.c.obj)
                0x0000000008007594                up_pwm_servo_set_rate_group_update
 .text.up_pwm_update
                0x00000000080075c4        0x4 platforms/nuttx/src/px4/stm/stm32f1/io_pins/libarch_io_pins.a(pwm_servo.c.obj)
                0x00000000080075c4                up_pwm_update
 .text.up_pwm_servo_get_rate_group
                0x00000000080075c8       0x20 platforms/nuttx/src/px4/stm/stm32f1/io_pins/libarch_io_pins.a(pwm_servo.c.obj)
                0x00000000080075c8                up_pwm_servo_get_rate_group
 .text.up_pwm_servo_arm
                0x00000000080075e8       0x1a platforms/nuttx/src/px4/stm/stm32f1/io_pins/libarch_io_pins.a(pwm_servo.c.obj)
                0x00000000080075e8                up_pwm_servo_arm
 .text.io_timer_handler0
                0x0000000008007602        0x4 platforms/nuttx/src/px4/stm/stm32f1/io_pins/libarch_io_pins.a(io_timer.c.obj)
 *fill*         0x0000000008007606        0x2 
 .text.reallocate_channel_resources
                0x0000000008007608       0x30 platforms/nuttx/src/px4/stm/stm32f1/io_pins/libarch_io_pins.a(io_timer.c.obj)
 .text.io_timer_handler6
                0x0000000008007638        0x4 platforms/nuttx/src/px4/stm/stm32f1/io_pins/libarch_io_pins.a(io_timer.c.obj)
 .text.io_timer_handler7
                0x000000000800763c        0x4 platforms/nuttx/src/px4/stm/stm32f1/io_pins/libarch_io_pins.a(io_timer.c.obj)
 .text.io_timer_handler1
                0x0000000008007640        0x4 platforms/nuttx/src/px4/stm/stm32f1/io_pins/libarch_io_pins.a(io_timer.c.obj)
 .text.io_timer_handler2
                0x0000000008007644        0x4 platforms/nuttx/src/px4/stm/stm32f1/io_pins/libarch_io_pins.a(io_timer.c.obj)
 .text.io_timer_handler3
                0x0000000008007648        0x4 platforms/nuttx/src/px4/stm/stm32f1/io_pins/libarch_io_pins.a(io_timer.c.obj)
 .text.io_timer_handler4
                0x000000000800764c        0x4 platforms/nuttx/src/px4/stm/stm32f1/io_pins/libarch_io_pins.a(io_timer.c.obj)
 .text.io_timer_handler5
                0x0000000008007650        0x4 platforms/nuttx/src/px4/stm/stm32f1/io_pins/libarch_io_pins.a(io_timer.c.obj)
 .text.get_timer_channels
                0x0000000008007654       0x54 platforms/nuttx/src/px4/stm/stm32f1/io_pins/libarch_io_pins.a(io_timer.c.obj)
 .text.io_timer_validate_channel_index
                0x00000000080076a8       0x3c platforms/nuttx/src/px4/stm/stm32f1/io_pins/libarch_io_pins.a(io_timer.c.obj)
                0x00000000080076a8                io_timer_validate_channel_index
 .text.io_timer_is_channel_free
                0x00000000080076e4       0x20 platforms/nuttx/src/px4/stm/stm32f1/io_pins/libarch_io_pins.a(io_timer.c.obj)
                0x00000000080076e4                io_timer_is_channel_free
 .text.io_timer_get_mode_channels
                0x0000000008007704       0x14 platforms/nuttx/src/px4/stm/stm32f1/io_pins/libarch_io_pins.a(io_timer.c.obj)
                0x0000000008007704                io_timer_get_mode_channels
 .text.io_timer_get_channel_mode
                0x0000000008007718       0x24 platforms/nuttx/src/px4/stm/stm32f1/io_pins/libarch_io_pins.a(io_timer.c.obj)
                0x0000000008007718                io_timer_get_channel_mode
 .text.io_timer_trigger
                0x000000000800773c       0x80 platforms/nuttx/src/px4/stm/stm32f1/io_pins/libarch_io_pins.a(io_timer.c.obj)
                0x000000000800773c                io_timer_trigger
 .text.io_timer_init_timer
                0x00000000080077bc      0x114 platforms/nuttx/src/px4/stm/stm32f1/io_pins/libarch_io_pins.a(io_timer.c.obj)
                0x00000000080077bc                io_timer_init_timer
 .text.io_timer_set_rate
                0x00000000080078d0       0xb0 platforms/nuttx/src/px4/stm/stm32f1/io_pins/libarch_io_pins.a(io_timer.c.obj)
                0x00000000080078d0                io_timer_set_rate
 .text.io_timer_channel_init
                0x0000000008007980      0x114 platforms/nuttx/src/px4/stm/stm32f1/io_pins/libarch_io_pins.a(io_timer.c.obj)
                0x0000000008007980                io_timer_channel_init
 .text.io_timer_set_enable
                0x0000000008007a94      0x1ac platforms/nuttx/src/px4/stm/stm32f1/io_pins/libarch_io_pins.a(io_timer.c.obj)
                0x0000000008007a94                io_timer_set_enable
 .text.io_timer_free_channel
                0x0000000008007c40       0x54 platforms/nuttx/src/px4/stm/stm32f1/io_pins/libarch_io_pins.a(io_timer.c.obj)
                0x0000000008007c40                io_timer_free_channel
 .text.io_timer_set_ccr
                0x0000000008007c94       0x44 platforms/nuttx/src/px4/stm/stm32f1/io_pins/libarch_io_pins.a(io_timer.c.obj)
                0x0000000008007c94                io_timer_set_ccr
 .text.io_timer_get_group
                0x0000000008007cd8        0x4 platforms/nuttx/src/px4/stm/stm32f1/io_pins/libarch_io_pins.a(io_timer.c.obj)
                0x0000000008007cd8                io_timer_get_group
 .text._ZN10MixerGroup13load_from_bufEPFijhhRfEjPKcRj
                0x0000000008007cdc       0x96 src/lib/mixer/libmixer.a(MixerGroup.cpp.obj)
                0x0000000008007cdc                MixerGroup::load_from_buf(int (*)(unsigned int, unsigned char, unsigned char, float&), unsigned int, char const*, unsigned int&)
 .text._ZN4ListIP5MixerE8IteratorppEv
                0x0000000008007d72        0xa src/lib/mixer/libmixer.a(MixerGroup.cpp.obj)
                0x0000000008007d72                List<Mixer*>::Iterator::operator++()
 .text._ZN10MixerGroup3mixEPfj
                0x0000000008007d7c       0x34 src/lib/mixer/libmixer.a(MixerGroup.cpp.obj)
                0x0000000008007d7c                MixerGroup::mix(float*, unsigned int)
 .text._ZN10MixerGroup9set_trimsEPsj
                0x0000000008007db0       0x78 src/lib/mixer/libmixer.a(MixerGroup.cpp.obj)
                0x0000000008007db0                MixerGroup::set_trims(short*, unsigned int)
 .text._ZN10MixerGroup17set_thrust_factorEf
                0x0000000008007e28       0x24 src/lib/mixer/libmixer.a(MixerGroup.cpp.obj)
                0x0000000008007e28                MixerGroup::set_thrust_factor(float)
 .text._ZN10MixerGroup11set_airmodeEN5Mixer7AirmodeE
                0x0000000008007e4c       0x24 src/lib/mixer/libmixer.a(MixerGroup.cpp.obj)
                0x0000000008007e4c                MixerGroup::set_airmode(Mixer::Airmode)
 .text._ZN10MixerGroup21get_saturation_statusEv
                0x0000000008007e70       0x28 src/lib/mixer/libmixer.a(MixerGroup.cpp.obj)
                0x0000000008007e70                MixerGroup::get_saturation_status()
 .text._ZN10MixerGroup22set_max_delta_out_onceEf
                0x0000000008007e98       0x24 src/lib/mixer/libmixer.a(MixerGroup.cpp.obj)
                0x0000000008007e98                MixerGroup::set_max_delta_out_once(float)
 .text._ZN5Mixer21get_saturation_statusEv
                0x0000000008007ebc        0x4 src/lib/mixer/HelicopterMixer/libHelicopterMixer.a(HelicopterMixer.cpp.obj)
                0x0000000008007ebc                Mixer::get_saturation_status()
 .text._ZN5Mixer22set_max_delta_out_onceEf
                0x0000000008007ec0        0x2 src/lib/mixer/HelicopterMixer/libHelicopterMixer.a(HelicopterMixer.cpp.obj)
                0x0000000008007ec0                Mixer::set_max_delta_out_once(float)
 .text._ZN5Mixer17set_thrust_factorEf
                0x0000000008007ec2        0x2 src/lib/mixer/HelicopterMixer/libHelicopterMixer.a(HelicopterMixer.cpp.obj)
                0x0000000008007ec2                Mixer::set_thrust_factor(float)
 .text._ZN5Mixer11set_airmodeENS_7AirmodeE
                0x0000000008007ec4        0x2 src/lib/mixer/HelicopterMixer/libHelicopterMixer.a(HelicopterMixer.cpp.obj)
                0x0000000008007ec4                Mixer::set_airmode(Mixer::Airmode)
 .text._ZN5Mixer20get_multirotor_countEv
                0x0000000008007ec6        0x4 src/lib/mixer/HelicopterMixer/libHelicopterMixer.a(HelicopterMixer.cpp.obj)
                0x0000000008007ec6                Mixer::get_multirotor_count()
 .text._ZN15HelicopterMixer15groups_requiredERj
                0x0000000008007eca        0xa src/lib/mixer/HelicopterMixer/libHelicopterMixer.a(HelicopterMixer.cpp.obj)
                0x0000000008007eca                HelicopterMixer::groups_required(unsigned int&)
 .text._ZN15HelicopterMixer8set_trimEf
                0x0000000008007ed4        0x4 src/lib/mixer/HelicopterMixer/libHelicopterMixer.a(HelicopterMixer.cpp.obj)
                0x0000000008007ed4                HelicopterMixer::set_trim(float)
 .text._ZN15HelicopterMixer8get_trimEPf
                0x0000000008007ed8        0x4 src/lib/mixer/HelicopterMixer/libHelicopterMixer.a(HelicopterMixer.cpp.obj)
                0x0000000008007ed8                HelicopterMixer::get_trim(float*)
 .text._ZN15HelicopterMixerD2Ev
                0x0000000008007edc        0x2 src/lib/mixer/HelicopterMixer/libHelicopterMixer.a(HelicopterMixer.cpp.obj)
                0x0000000008007edc                HelicopterMixer::~HelicopterMixer()
                0x0000000008007edc                HelicopterMixer::~HelicopterMixer()
 .text._ZN15HelicopterMixerD0Ev
                0x0000000008007ede        0xc src/lib/mixer/HelicopterMixer/libHelicopterMixer.a(HelicopterMixer.cpp.obj)
                0x0000000008007ede                HelicopterMixer::~HelicopterMixer()
 *fill*         0x0000000008007eea        0x2 
 .text._ZN15HelicopterMixer3mixEPfj
                0x0000000008007eec      0x1f4 src/lib/mixer/HelicopterMixer/libHelicopterMixer.a(HelicopterMixer.cpp.obj)
                0x0000000008007eec                HelicopterMixer::mix(float*, unsigned int)
 .text._ZN15HelicopterMixer9from_textEPFijhhRfEjPKcRj
                0x00000000080080e0      0x238 src/lib/mixer/HelicopterMixer/libHelicopterMixer.a(HelicopterMixer.cpp.obj)
                0x00000000080080e0                HelicopterMixer::from_text(int (*)(unsigned int, unsigned char, unsigned char, float&), unsigned int, char const*, unsigned int&)
 .text._ZN15MultirotorMixer21get_saturation_statusEv
                0x0000000008008318        0x4 src/lib/mixer/MultirotorMixer/libMultirotorMixer.a(MultirotorMixer.cpp.obj)
                0x0000000008008318                MultirotorMixer::get_saturation_status()
 .text._ZN15MultirotorMixer15groups_requiredERj
                0x000000000800831c        0xa src/lib/mixer/MultirotorMixer/libMultirotorMixer.a(MultirotorMixer.cpp.obj)
                0x000000000800831c                MultirotorMixer::groups_required(unsigned int&)
 .text._ZN15MultirotorMixer22set_max_delta_out_onceEf
                0x0000000008008326        0x4 src/lib/mixer/MultirotorMixer/libMultirotorMixer.a(MultirotorMixer.cpp.obj)
                0x0000000008008326                MultirotorMixer::set_max_delta_out_once(float)
 .text._ZN15MultirotorMixer8set_trimEf
                0x000000000800832a        0x4 src/lib/mixer/MultirotorMixer/libMultirotorMixer.a(MultirotorMixer.cpp.obj)
                0x000000000800832a                MultirotorMixer::set_trim(float)
 .text._ZN15MultirotorMixer8get_trimEPf
                0x000000000800832e        0x4 src/lib/mixer/MultirotorMixer/libMultirotorMixer.a(MultirotorMixer.cpp.obj)
                0x000000000800832e                MultirotorMixer::get_trim(float*)
 .text._ZN15MultirotorMixer17set_thrust_factorEf
                0x0000000008008332       0x34 src/lib/mixer/MultirotorMixer/libMultirotorMixer.a(MultirotorMixer.cpp.obj)
                0x0000000008008332                MultirotorMixer::set_thrust_factor(float)
 .text._ZN15MultirotorMixer11set_airmodeEN5Mixer7AirmodeE
                0x0000000008008366        0x4 src/lib/mixer/MultirotorMixer/libMultirotorMixer.a(MultirotorMixer.cpp.obj)
                0x0000000008008366                MultirotorMixer::set_airmode(Mixer::Airmode)
 .text._ZN15MultirotorMixer20get_multirotor_countEv
                0x000000000800836a        0x4 src/lib/mixer/MultirotorMixer/libMultirotorMixer.a(MultirotorMixer.cpp.obj)
                0x000000000800836a                MultirotorMixer::get_multirotor_count()
 *fill*         0x000000000800836e        0x2 
 .text._ZN15MultirotorMixerD2Ev
                0x0000000008008370       0x20 src/lib/mixer/MultirotorMixer/libMultirotorMixer.a(MultirotorMixer.cpp.obj)
                0x0000000008008370                MultirotorMixer::~MultirotorMixer()
                0x0000000008008370                MultirotorMixer::~MultirotorMixer()
 .text._ZN15MultirotorMixerD0Ev
                0x0000000008008390       0x12 src/lib/mixer/MultirotorMixer/libMultirotorMixer.a(MultirotorMixer.cpp.obj)
                0x0000000008008390                MultirotorMixer::~MultirotorMixer()
 *fill*         0x00000000080083a2        0x2 
 .text._ZN15MultirotorMixerC2EPFijhhRfEjPKNS_5RotorEj
                0x00000000080083a4       0x70 src/lib/mixer/MultirotorMixer/libMultirotorMixer.a(MultirotorMixer.cpp.obj)
                0x00000000080083a4                MultirotorMixer::MultirotorMixer(int (*)(unsigned int, unsigned char, unsigned char, float&), unsigned int, MultirotorMixer::Rotor const*, unsigned int)
                0x00000000080083a4                MultirotorMixer::MultirotorMixer(int (*)(unsigned int, unsigned char, unsigned char, float&), unsigned int, MultirotorMixer::Rotor const*, unsigned int)
 .text._ZN15MultirotorMixerC2EPFijhhRfEj18MultirotorGeometryffff
                0x0000000008008414       0x44 src/lib/mixer/MultirotorMixer/libMultirotorMixer.a(MultirotorMixer.cpp.obj)
                0x0000000008008414                MultirotorMixer::MultirotorMixer(int (*)(unsigned int, unsigned char, unsigned char, float&), unsigned int, MultirotorGeometry, float, float, float, float)
                0x0000000008008414                MultirotorMixer::MultirotorMixer(int (*)(unsigned int, unsigned char, unsigned char, float&), unsigned int, MultirotorGeometry, float, float, float, float)
 .text._ZN15MultirotorMixer9from_textEPFijhhRfEjPKcRj
                0x0000000008008458       0xd0 src/lib/mixer/MultirotorMixer/libMultirotorMixer.a(MultirotorMixer.cpp.obj)
                0x0000000008008458                MultirotorMixer::from_text(int (*)(unsigned int, unsigned char, unsigned char, float&), unsigned int, char const*, unsigned int&)
 .text._ZNK15MultirotorMixer25compute_desaturation_gainEPKfS1_RNS_17saturation_statusEff
                0x0000000008008528       0xc2 src/lib/mixer/MultirotorMixer/libMultirotorMixer.a(MultirotorMixer.cpp.obj)
                0x0000000008008528                MultirotorMixer::compute_desaturation_gain(float const*, float const*, MultirotorMixer::saturation_status&, float, float) const
 .text._ZNK15MultirotorMixer19minimize_saturationEPKfPfRNS_17saturation_statusEffb
                0x00000000080085ea       0x9c src/lib/mixer/MultirotorMixer/libMultirotorMixer.a(MultirotorMixer.cpp.obj)
                0x00000000080085ea                MultirotorMixer::minimize_saturation(float const*, float*, MultirotorMixer::saturation_status&, float, float, bool) const
 *fill*         0x0000000008008686        0x2 
 .text._ZN15MultirotorMixer7mix_yawEfPf
                0x0000000008008688       0x94 src/lib/mixer/MultirotorMixer/libMultirotorMixer.a(MultirotorMixer.cpp.obj)
                0x0000000008008688                MultirotorMixer::mix_yaw(float, float*)
 .text._ZN15MultirotorMixer24update_saturation_statusEjbbb
                0x000000000800871c      0x180 src/lib/mixer/MultirotorMixer/libMultirotorMixer.a(MultirotorMixer.cpp.obj)
                0x000000000800871c                MultirotorMixer::update_saturation_status(unsigned int, bool, bool, bool)
 .text._ZN15MultirotorMixer3mixEPfj
                0x000000000800889c      0x4e8 src/lib/mixer/MultirotorMixer/libMultirotorMixer.a(MultirotorMixer.cpp.obj)
                0x000000000800889c                MultirotorMixer::mix(float*, unsigned int)
 .text._ZN5Mixer15groups_requiredERj
                0x0000000008008d84        0x2 src/lib/mixer/NullMixer/libNullMixer.a(NullMixer.cpp.obj)
                0x0000000008008d84                Mixer::groups_required(unsigned int&)
 .text._ZN9NullMixer8set_trimEf
                0x0000000008008d86        0x4 src/lib/mixer/NullMixer/libNullMixer.a(NullMixer.cpp.obj)
                0x0000000008008d86                NullMixer::set_trim(float)
 .text._ZN9NullMixer8get_trimEPf
                0x0000000008008d8a        0x4 src/lib/mixer/NullMixer/libNullMixer.a(NullMixer.cpp.obj)
                0x0000000008008d8a                NullMixer::get_trim(float*)
 *fill*         0x0000000008008d8e        0x2 
 .text._ZN9NullMixer3mixEPfj
                0x0000000008008d90       0x10 src/lib/mixer/NullMixer/libNullMixer.a(NullMixer.cpp.obj)
                0x0000000008008d90                NullMixer::mix(float*, unsigned int)
 .text._ZN9NullMixerD2Ev
                0x0000000008008da0        0x2 src/lib/mixer/NullMixer/libNullMixer.a(NullMixer.cpp.obj)
                0x0000000008008da0                NullMixer::~NullMixer()
                0x0000000008008da0                NullMixer::~NullMixer()
 .text._ZN9NullMixerD0Ev
                0x0000000008008da2        0xc src/lib/mixer/NullMixer/libNullMixer.a(NullMixer.cpp.obj)
                0x0000000008008da2                NullMixer::~NullMixer()
 *fill*         0x0000000008008dae        0x2 
 .text._ZN9NullMixer9from_textEPKcRj
                0x0000000008008db0       0x44 src/lib/mixer/NullMixer/libNullMixer.a(NullMixer.cpp.obj)
                0x0000000008008db0                NullMixer::from_text(char const*, unsigned int&)
 .text._ZN11SimpleMixer8set_trimEf
                0x0000000008008df4        0x8 src/lib/mixer/SimpleMixer/libSimpleMixer.a(SimpleMixer.cpp.obj)
                0x0000000008008df4                SimpleMixer::set_trim(float)
 .text._ZN11SimpleMixer8get_trimEPf
                0x0000000008008dfc        0xa src/lib/mixer/SimpleMixer/libSimpleMixer.a(SimpleMixer.cpp.obj)
                0x0000000008008dfc                SimpleMixer::get_trim(float*)
 .text._ZN11SimpleMixer15groups_requiredERj
                0x0000000008008e06       0x26 src/lib/mixer/SimpleMixer/libSimpleMixer.a(SimpleMixer.cpp.obj)
                0x0000000008008e06                SimpleMixer::groups_required(unsigned int&)
 .text._ZN11SimpleMixerD2Ev
                0x0000000008008e2c       0x18 src/lib/mixer/SimpleMixer/libSimpleMixer.a(SimpleMixer.cpp.obj)
                0x0000000008008e2c                SimpleMixer::~SimpleMixer()
                0x0000000008008e2c                SimpleMixer::~SimpleMixer()
 .text._ZN11SimpleMixerD0Ev
                0x0000000008008e44       0x12 src/lib/mixer/SimpleMixer/libSimpleMixer.a(SimpleMixer.cpp.obj)
                0x0000000008008e44                SimpleMixer::~SimpleMixer()
 *fill*         0x0000000008008e56        0x2 
 .text._ZN11SimpleMixer19parse_output_scalerEPKcRjR14mixer_scaler_s
                0x0000000008008e58       0xa4 src/lib/mixer/SimpleMixer/libSimpleMixer.a(SimpleMixer.cpp.obj)
                0x0000000008008e58                SimpleMixer::parse_output_scaler(char const*, unsigned int&, mixer_scaler_s&)
 .text._ZN11SimpleMixer20parse_control_scalerEPKcRjR14mixer_scaler_sRhS5_
                0x0000000008008efc       0xac src/lib/mixer/SimpleMixer/libSimpleMixer.a(SimpleMixer.cpp.obj)
                0x0000000008008efc                SimpleMixer::parse_control_scaler(char const*, unsigned int&, mixer_scaler_s&, unsigned char&, unsigned char&)
 .text._ZN11SimpleMixer9from_textEPFijhhRfEjPKcRj
                0x0000000008008fa8       0xe8 src/lib/mixer/SimpleMixer/libSimpleMixer.a(SimpleMixer.cpp.obj)
                0x0000000008008fa8                SimpleMixer::from_text(int (*)(unsigned int, unsigned char, unsigned char, float&), unsigned int, char const*, unsigned int&)
 .text._ZN11SimpleMixer5scaleERK14mixer_scaler_sf
                0x0000000008009090       0x52 src/lib/mixer/SimpleMixer/libSimpleMixer.a(SimpleMixer.cpp.obj)
                0x0000000008009090                SimpleMixer::scale(mixer_scaler_s const&, float)
 .text._ZN11SimpleMixer3mixEPfj
                0x00000000080090e2       0x6c src/lib/mixer/SimpleMixer/libSimpleMixer.a(SimpleMixer.cpp.obj)
                0x00000000080090e2                SimpleMixer::mix(float*, unsigned int)
 .text._ZN5Mixer11get_controlEhh
                0x000000000800914e       0x10 src/lib/mixer/MixerBase/libMixerBase.a(Mixer.cpp.obj)
                0x000000000800914e                Mixer::get_control(unsigned char, unsigned char)
 .text._ZN5Mixer7findtagEPKcRjc
                0x000000000800915e       0x24 src/lib/mixer/MixerBase/libMixerBase.a(Mixer.cpp.obj)
                0x000000000800915e                Mixer::findtag(char const*, unsigned int&, char)
 .text._ZN5Mixer11findnexttagEPKcj
                0x0000000008009182       0x22 src/lib/mixer/MixerBase/libMixerBase.a(Mixer.cpp.obj)
                0x0000000008009182                Mixer::findnexttag(char const*, unsigned int)
 .text._ZN5Mixer8skiplineEPKcRj
                0x00000000080091a4       0x2a src/lib/mixer/MixerBase/libMixerBase.a(Mixer.cpp.obj)
                0x00000000080091a4                Mixer::skipline(char const*, unsigned int&)
 .text._ZN5Mixer18string_well_formedEPKcRj
                0x00000000080091ce       0x1e src/lib/mixer/MixerBase/libMixerBase.a(Mixer.cpp.obj)
                0x00000000080091ce                Mixer::string_well_formed(char const*, unsigned int&)
 .text.st24_common_crc8
                0x00000000080091ec       0x38 src/lib/rc/librc.a(st24.cpp.obj)
                0x00000000080091ec                st24_common_crc8
 .text.st24_decode
                0x0000000008009224      0x218 src/lib/rc/librc.a(st24.cpp.obj)
                0x0000000008009224                st24_decode
 .text.sumd_crc16
                0x000000000800943c       0x1e src/lib/rc/librc.a(sumd.cpp.obj)
                0x000000000800943c                sumd_crc16
 *fill*         0x000000000800945a        0x2 
 .text.sumd_decode
                0x000000000800945c      0x3a4 src/lib/rc/librc.a(sumd.cpp.obj)
                0x000000000800945c                sumd_decode
 .text.sbus_config
                0x0000000008009800       0x70 src/lib/rc/librc.a(sbus.cpp.obj)
                0x0000000008009800                sbus_config
 .text.sbus_init
                0x0000000008009870       0x1e src/lib/rc/librc.a(sbus.cpp.obj)
                0x0000000008009870                sbus_init
 *fill*         0x000000000800988e        0x2 
 .text.sbus1_output
                0x0000000008009890      0x100 src/lib/rc/librc.a(sbus.cpp.obj)
                0x0000000008009890                sbus1_output
 .text.sbus2_output
                0x0000000008009990        0x4 src/lib/rc/librc.a(sbus.cpp.obj)
                0x0000000008009990                sbus2_output
 .text.sbus_parse
                0x0000000008009994      0x260 src/lib/rc/librc.a(sbus.cpp.obj)
                0x0000000008009994                sbus_parse
 .text.sbus_input
                0x0000000008009bf4       0x98 src/lib/rc/librc.a(sbus.cpp.obj)
                0x0000000008009bf4                sbus_input
 .text.sbus1_set_output_rate_hz
                0x0000000008009c8c       0x24 src/lib/rc/librc.a(sbus.cpp.obj)
                0x0000000008009c8c                sbus1_set_output_rate_hz
 .text._ZL18dsm_decode_channeltjRhRt
                0x0000000008009cb0       0x8c src/lib/rc/librc.a(dsm.cpp.obj)
 .text._ZL16dsm_guess_formatb.constprop.4
                0x0000000008009d3c       0x24 src/lib/rc/librc.a(dsm.cpp.obj)
 .text.dsm_config
                0x0000000008009d60       0x64 src/lib/rc/librc.a(dsm.cpp.obj)
                0x0000000008009d60                dsm_config
 .text.dsm_proto_init
                0x0000000008009dc4       0x38 src/lib/rc/librc.a(dsm.cpp.obj)
                0x0000000008009dc4                dsm_proto_init
 .text.dsm_init
                0x0000000008009dfc       0x2c src/lib/rc/librc.a(dsm.cpp.obj)
                0x0000000008009dfc                dsm_init
 .text.dsm_bind
                0x0000000008009e28       0x7c src/lib/rc/librc.a(dsm.cpp.obj)
                0x0000000008009e28                dsm_bind
 .text._ZNK3px46BitsetILj18EEixEj
                0x0000000008009ea4       0x18 src/lib/rc/librc.a(dsm.cpp.obj)
                0x0000000008009ea4                px4::Bitset<18u>::operator[](unsigned int) const
 .text._Z10dsm_decodeyPtS_PbjPa
                0x0000000008009ebc      0x304 src/lib/rc/librc.a(dsm.cpp.obj)
                0x0000000008009ebc                dsm_decode(unsigned long long, unsigned short*, unsigned short*, bool*, unsigned int, signed char*)
 .text.dsm_parse
                0x000000000800a1c0      0x118 src/lib/rc/librc.a(dsm.cpp.obj)
                0x000000000800a1c0                dsm_parse
 .text.dsm_input
                0x000000000800a2d8       0x60 src/lib/rc/librc.a(dsm.cpp.obj)
                0x000000000800a2d8                dsm_input
 .text.output_limit_init
                0x000000000800a338       0x12 src/lib/output_limit/liboutput_limit.a(output_limit.cpp.obj)
                0x000000000800a338                output_limit_init
 *fill*         0x000000000800a34a        0x2 
 .text.output_limit_calc
                0x000000000800a34c      0x250 src/lib/output_limit/liboutput_limit.a(output_limit.cpp.obj)
                0x000000000800a34c                output_limit_calc
 .text.up_systemreset
                0x000000000800a59c       0x1c NuttX/nuttx/arch/arm/src/libarch.a(up_systemreset.o)
                0x000000000800a59c                up_systemreset
 .text.up_udelay
                0x000000000800a5b8       0x72 NuttX/nuttx/arch/arm/src/libarch.a(up_udelay.o)
                0x000000000800a5b8                up_udelay
 .text.stm32_boardinitialize
                0x000000000800a62a      0x154 boards/px4/io-v2/src/libdrivers_board.a(init.c.obj)
                0x000000000800a62a                stm32_boardinitialize
 *fill*         0x000000000800a77e        0x2 
 .text.hrt_absolute_time
                0x000000000800a780       0x50 platforms/nuttx/src/px4/stm/stm32f1/hrt/libarch_hrt.a(hrt.c.obj)
                0x000000000800a780                hrt_absolute_time
 .text.hrt_call_reschedule
                0x000000000800a7d0       0x60 platforms/nuttx/src/px4/stm/stm32f1/hrt/libarch_hrt.a(hrt.c.obj)
 .text.hrt_call_enter
                0x000000000800a830       0x4c platforms/nuttx/src/px4/stm/stm32f1/hrt/libarch_hrt.a(hrt.c.obj)
 .text.hrt_call_internal
                0x000000000800a87c       0x4c platforms/nuttx/src/px4/stm/stm32f1/hrt/libarch_hrt.a(hrt.c.obj)
 .text.hrt_tim_isr
                0x000000000800a8c8      0x1f0 platforms/nuttx/src/px4/stm/stm32f1/hrt/libarch_hrt.a(hrt.c.obj)
 .text.hrt_elapsed_time_atomic
                0x000000000800aab8       0x28 platforms/nuttx/src/px4/stm/stm32f1/hrt/libarch_hrt.a(hrt.c.obj)
                0x000000000800aab8                hrt_elapsed_time_atomic
 .text.hrt_init
                0x000000000800aae0       0x84 platforms/nuttx/src/px4/stm/stm32f1/hrt/libarch_hrt.a(hrt.c.obj)
                0x000000000800aae0                hrt_init
 .text.hrt_call_every
                0x000000000800ab64       0x2e platforms/nuttx/src/px4/stm/stm32f1/hrt/libarch_hrt.a(hrt.c.obj)
                0x000000000800ab64                hrt_call_every
 .text.__aeabi_atexit
                0x000000000800ab92        0xa NuttX/nuttx/libs/libxx/libxx.a(libxx_eabi_atexit.o)
                0x000000000800ab92                __aeabi_atexit
 .text.__cxa_atexit
                0x000000000800ab9c        0x4 NuttX/nuttx/libs/libxx/libxx.a(libxx_cxa_atexit.o)
                0x000000000800ab9c                __cxa_atexit
 .text._ZdlPv   0x000000000800aba0        0x4 NuttX/nuttx/libs/libxx/libxx.a(libxx_delete.o)
                0x000000000800aba0                operator delete(void*)
 .text._ZdaPv   0x000000000800aba4        0x4 NuttX/nuttx/libs/libxx/libxx.a(libxx_deletea.o)
                0x000000000800aba4                operator delete[](void*)
 .text._Znwj    0x000000000800aba8        0xa NuttX/nuttx/libs/libxx/libxx.a(libxx_new.o)
                0x000000000800aba8                operator new(unsigned int)
 .text._Znaj    0x000000000800abb2        0xa NuttX/nuttx/libs/libxx/libxx.a(libxx_newa.o)
                0x000000000800abb2                operator new[](unsigned int)
 .text.crc32part
                0x000000000800abbc       0x24 NuttX/nuttx/libs/libc/libc.a(lib_crc32.o)
                0x000000000800abbc                crc32part
 .text.printf   0x000000000800abe0       0x20 NuttX/nuttx/libs/libc/libc.a(lib_printf.o)
                0x000000000800abe0                printf
 .text.vsnprintf
                0x000000000800ac00       0x2a NuttX/nuttx/libs/libc/libc.a(lib_vsnprintf.o)
                0x000000000800ac00                vsnprintf
 .text.memoutstream_putc
                0x000000000800ac2a       0x1a NuttX/nuttx/libs/libc/libc.a(lib_memoutstream.o)
 .text.lib_memoutstream
                0x000000000800ac44       0x20 NuttX/nuttx/libs/libc/libc.a(lib_memoutstream.o)
                0x000000000800ac44                lib_memoutstream
 .text.nulloutstream_putc
                0x000000000800ac64        0x8 NuttX/nuttx/libs/libc/libc.a(lib_nulloutstream.o)
 .text.lib_nulloutstream
                0x000000000800ac6c       0x18 NuttX/nuttx/libs/libc/libc.a(lib_nulloutstream.o)
                0x000000000800ac6c                lib_nulloutstream
 .text.sscanf   0x000000000800ac84       0x1a NuttX/nuttx/libs/libc/libc.a(lib_sscanf.o)
                0x000000000800ac84                sscanf
 .text.vsscanf  0x000000000800ac9e       0x24 NuttX/nuttx/libs/libc/libc.a(lib_vsscanf.o)
                0x000000000800ac9e                vsscanf
 .text.isspace  0x000000000800acc2       0x14 NuttX/nuttx/libs/libc/libc.a(lib_libvscanf.o)
 *fill*         0x000000000800acd6        0x2 
 .text.lib_vscanf
                0x000000000800acd8      0x5c4 NuttX/nuttx/libs/libc/libc.a(lib_libvscanf.o)
                0x000000000800acd8                lib_vscanf
 .text.lib_noflush
                0x000000000800b29c        0x4 NuttX/nuttx/libs/libc/libc.a(lib_libnoflush.o)
                0x000000000800b29c                lib_noflush
 .text.lib_vsprintf
                0x000000000800b2a0      0x3dc NuttX/nuttx/libs/libc/libc.a(lib_libvsprintf.o)
                0x000000000800b2a0                lib_vsprintf
 .text.__ultoa_invert
                0x000000000800b67c       0x34 NuttX/nuttx/libs/libc/libc.a(lib_ultoa_invert.o)
                0x000000000800b67c                __ultoa_invert
 .text.strtol   0x000000000800b6b0       0x74 NuttX/nuttx/libs/libc/libc.a(lib_strtol.o)
                0x000000000800b6b0                strtol
 .text.strtoul  0x000000000800b724       0xa2 NuttX/nuttx/libs/libc/libc.a(lib_strtoul.o)
                0x000000000800b724                strtoul
 .text.lib_checkbase
                0x000000000800b7c6       0x5c NuttX/nuttx/libs/libc/libc.a(lib_checkbase.o)
                0x000000000800b7c6                lib_checkbase
 .text.lib_isbasedigit
                0x000000000800b822       0x4e NuttX/nuttx/libs/libc/libc.a(lib_isbasedigit.o)
                0x000000000800b822                lib_isbasedigit
 .text.memchr   0x000000000800b870       0x1c NuttX/nuttx/libs/libc/libc.a(lib_memchr.o)
                0x000000000800b870                memchr
 .text.memmove  0x000000000800b88c       0x2e NuttX/nuttx/libs/libc/libc.a(lib_memmove.o)
                0x000000000800b88c                memmove
 .text.lib_skipspace
                0x000000000800b8ba       0x16 NuttX/nuttx/libs/libc/libc.a(lib_skipspace.o)
                0x000000000800b8ba                lib_skipspace
 .text.strchr   0x000000000800b8d0       0x16 NuttX/nuttx/libs/libc/libc.a(lib_strchr.o)
                0x000000000800b8d0                strchr
 .text.strcmp   0x000000000800b8e6       0x16 NuttX/nuttx/libs/libc/libc.a(lib_strcmp.o)
                0x000000000800b8e6                strcmp
 .text.strnlen  0x000000000800b8fc       0x18 NuttX/nuttx/libs/libc/libc.a(lib_strnlen.o)
                0x000000000800b8fc                strnlen
 .text.strncpy  0x000000000800b914       0x24 NuttX/nuttx/libs/libc/libc.a(lib_strncpy.o)
                0x000000000800b914                strncpy
 .text.vsyslog  0x000000000800b938       0x20 NuttX/nuttx/libs/libc/libc.a(lib_syslog.o)
                0x000000000800b938                vsyslog
 .text.syslog   0x000000000800b958       0x1a NuttX/nuttx/libs/libc/libc.a(lib_syslog.o)
                0x000000000800b958                syslog
 .text.tcgetattr
                0x000000000800b972        0xa NuttX/nuttx/libs/libc/libc.a(lib_tcgetattr.o)
                0x000000000800b972                tcgetattr
 .text.tcsetattr
                0x000000000800b97c       0x10 NuttX/nuttx/libs/libc/libc.a(lib_tcsetattr.o)
                0x000000000800b97c                tcsetattr
 .text.meminstream_getc
                0x000000000800b98c       0x1a NuttX/nuttx/libs/libc/libc.a(lib_meminstream.o)
 *fill*         0x000000000800b9a6        0x2 
 .text.lib_meminstream
                0x000000000800b9a8       0x14 NuttX/nuttx/libs/libc/libc.a(lib_meminstream.o)
                0x000000000800b9a8                lib_meminstream
 .text.nx_vsyslog
                0x000000000800b9bc       0x26 NuttX/nuttx/drivers/libdrivers.a(vsyslog.o)
                0x000000000800b9bc                nx_vsyslog
 .text.syslogstream_putc
                0x000000000800b9e2       0x22 NuttX/nuttx/drivers/libdrivers.a(syslog_stream.o)
 .text.syslogstream_create
                0x000000000800ba04       0x18 NuttX/nuttx/drivers/libdrivers.a(syslog_stream.o)
                0x000000000800ba04                syslogstream_create
 .text.emergstream_putc
                0x000000000800ba1c       0x1e NuttX/nuttx/drivers/libdrivers.a(syslog_emergstream.o)
 *fill*         0x000000000800ba3a        0x2 
 .text.emergstream
                0x000000000800ba3c       0x18 NuttX/nuttx/drivers/libdrivers.a(syslog_emergstream.o)
                0x000000000800ba3c                emergstream
 .text.syslog_putc
                0x000000000800ba54       0x2c NuttX/nuttx/drivers/libdrivers.a(syslog_putc.o)
                0x000000000800ba54                syslog_putc
 .text.syslog_force
                0x000000000800ba80        0xc NuttX/nuttx/drivers/libdrivers.a(syslog_force.o)
                0x000000000800ba80                syslog_force
 .text.file_ioctl
                0x000000000800ba8c       0x1a NuttX/nuttx/fs/libfs.a(fs_ioctl.o)
                0x000000000800ba8c                file_ioctl
 .text.ioctl    0x000000000800baa6       0x38 NuttX/nuttx/fs/libfs.a(fs_ioctl.o)
                0x000000000800baa6                ioctl
 .text.file_read
                0x000000000800bade       0x26 NuttX/nuttx/fs/libfs.a(fs_read.o)
                0x000000000800bade                file_read
 .text.nx_read  0x000000000800bb04       0x28 NuttX/nuttx/fs/libfs.a(fs_read.o)
                0x000000000800bb04                nx_read
 .text.read     0x000000000800bb2c       0x1a NuttX/nuttx/fs/libfs.a(fs_read.o)
                0x000000000800bb2c                read
 *fill*         0x000000000800bb46        0x2 
 .text.mallinfo
                0x000000000800bb48       0x24 NuttX/nuttx/mm/libmm.a(umm_mallinfo.o)
                0x000000000800bb48                mallinfo
 .text.mm_mallinfo
                0x000000000800bb6c       0x56 NuttX/nuttx/mm/libmm.a(mm_mallinfo.o)
                0x000000000800bb6c                mm_mallinfo
 *fill*         0x000000000800bbc2        0x2 
 .text.cosf     0x000000000800bbc4       0x78 /opt/gcc-arm-none-eabi-7-2017-q4-major/bin/../lib/gcc/arm-none-eabi/7.2.1/../../../../arm-none-eabi/lib/thumb/v7-m/libm.a(lib_a-sf_cos.o)
                0x000000000800bbc4                cosf
 .text.floorf   0x000000000800bc3c       0x88 /opt/gcc-arm-none-eabi-7-2017-q4-major/bin/../lib/gcc/arm-none-eabi/7.2.1/../../../../arm-none-eabi/lib/thumb/v7-m/libm.a(lib_a-sf_floor.o)
                0x000000000800bc3c                floorf
 .text.roundf   0x000000000800bcc4       0x48 /opt/gcc-arm-none-eabi-7-2017-q4-major/bin/../lib/gcc/arm-none-eabi/7.2.1/../../../../arm-none-eabi/lib/thumb/v7-m/libm.a(lib_a-sf_round.o)
                0x000000000800bcc4                roundf
 .text.sinf     0x000000000800bd0c       0x7c /opt/gcc-arm-none-eabi-7-2017-q4-major/bin/../lib/gcc/arm-none-eabi/7.2.1/../../../../arm-none-eabi/lib/thumb/v7-m/libm.a(lib_a-sf_sin.o)
                0x000000000800bd0c                sinf
 .text.sqrtf    0x000000000800bd88       0xa0 /opt/gcc-arm-none-eabi-7-2017-q4-major/bin/../lib/gcc/arm-none-eabi/7.2.1/../../../../arm-none-eabi/lib/thumb/v7-m/libm.a(lib_a-wf_sqrt.o)
                0x000000000800bd88                sqrtf
 .text.__ieee754_rem_pio2f
                0x000000000800be28      0x2e4 /opt/gcc-arm-none-eabi-7-2017-q4-major/bin/../lib/gcc/arm-none-eabi/7.2.1/../../../../arm-none-eabi/lib/thumb/v7-m/libm.a(lib_a-ef_rem_pio2.o)
                0x000000000800be28                __ieee754_rem_pio2f
 .text.__ieee754_sqrtf
                0x000000000800c10c       0xa8 /opt/gcc-arm-none-eabi-7-2017-q4-major/bin/../lib/gcc/arm-none-eabi/7.2.1/../../../../arm-none-eabi/lib/thumb/v7-m/libm.a(lib_a-ef_sqrt.o)
                0x000000000800c10c                __ieee754_sqrtf
 .text.__kernel_cosf
                0x000000000800c1b4      0x188 /opt/gcc-arm-none-eabi-7-2017-q4-major/bin/../lib/gcc/arm-none-eabi/7.2.1/../../../../arm-none-eabi/lib/thumb/v7-m/libm.a(lib_a-kf_cos.o)
                0x000000000800c1b4                __kernel_cosf
 .text.__kernel_rem_pio2f
                0x000000000800c33c      0x6c4 /opt/gcc-arm-none-eabi-7-2017-q4-major/bin/../lib/gcc/arm-none-eabi/7.2.1/../../../../arm-none-eabi/lib/thumb/v7-m/libm.a(lib_a-kf_rem_pio2.o)
                0x000000000800c33c                __kernel_rem_pio2f
 .text.__kernel_sinf
                0x000000000800ca00       0xec /opt/gcc-arm-none-eabi-7-2017-q4-major/bin/../lib/gcc/arm-none-eabi/7.2.1/../../../../arm-none-eabi/lib/thumb/v7-m/libm.a(lib_a-kf_sin.o)
                0x000000000800ca00                __kernel_sinf
 .text.matherr  0x000000000800caec        0x4 /opt/gcc-arm-none-eabi-7-2017-q4-major/bin/../lib/gcc/arm-none-eabi/7.2.1/../../../../arm-none-eabi/lib/thumb/v7-m/libm.a(lib_a-s_matherr.o)
                0x000000000800caec                matherr
 .text.fabsf    0x000000000800caf0        0x8 /opt/gcc-arm-none-eabi-7-2017-q4-major/bin/../lib/gcc/arm-none-eabi/7.2.1/../../../../arm-none-eabi/lib/thumb/v7-m/libm.a(lib_a-sf_fabs.o)
                0x000000000800caf0                fabsf
 .text.scalbnf  0x000000000800caf8       0xb0 /opt/gcc-arm-none-eabi-7-2017-q4-major/bin/../lib/gcc/arm-none-eabi/7.2.1/../../../../arm-none-eabi/lib/thumb/v7-m/libm.a(lib_a-sf_scalbn.o)
                0x000000000800caf8                scalbnf
 .text.copysignf
                0x000000000800cba8        0xc /opt/gcc-arm-none-eabi-7-2017-q4-major/bin/../lib/gcc/arm-none-eabi/7.2.1/../../../../arm-none-eabi/lib/thumb/v7-m/libm.a(lib_a-sf_copysign.o)
                0x000000000800cba8                copysignf
 .text          0x000000000800cbb4      0x378 /opt/gcc-arm-none-eabi-7-2017-q4-major/bin/../lib/gcc/arm-none-eabi/7.2.1/thumb/v7-m/libgcc.a(_arm_addsubdf3.o)
                0x000000000800cbb4                __aeabi_drsub
                0x000000000800cbbc                __aeabi_dsub
                0x000000000800cbbc                __subdf3
                0x000000000800cbc0                __adddf3
                0x000000000800cbc0                __aeabi_dadd
                0x000000000800ce38                __aeabi_ui2d
                0x000000000800ce38                __floatunsidf
                0x000000000800ce58                __floatsidf
                0x000000000800ce58                __aeabi_i2d
                0x000000000800ce7c                __extendsfdf2
                0x000000000800ce7c                __aeabi_f2d
                0x000000000800cec0                __aeabi_ul2d
                0x000000000800cec0                __floatundidf
                0x000000000800ced0                __floatdidf
                0x000000000800ced0                __aeabi_l2d
 .text          0x000000000800cf2c      0x424 /opt/gcc-arm-none-eabi-7-2017-q4-major/bin/../lib/gcc/arm-none-eabi/7.2.1/thumb/v7-m/libgcc.a(_arm_muldivdf3.o)
                0x000000000800cf2c                __aeabi_dmul
                0x000000000800cf2c                __muldf3
                0x000000000800d180                __aeabi_ddiv
                0x000000000800d180                __divdf3
 .text          0x000000000800d350       0xa0 /opt/gcc-arm-none-eabi-7-2017-q4-major/bin/../lib/gcc/arm-none-eabi/7.2.1/thumb/v7-m/libgcc.a(_arm_truncdfsf2.o)
                0x000000000800d350                __aeabi_d2f
                0x000000000800d350                __truncdfsf2
 .text          0x000000000800d3f0      0x21c /opt/gcc-arm-none-eabi-7-2017-q4-major/bin/../lib/gcc/arm-none-eabi/7.2.1/thumb/v7-m/libgcc.a(_arm_addsubsf3.o)
                0x000000000800d3f0                __aeabi_frsub
                0x000000000800d3f8                __subsf3
                0x000000000800d3f8                __aeabi_fsub
                0x000000000800d3fc                __aeabi_fadd
                0x000000000800d3fc                __addsf3
                0x000000000800d55c                __aeabi_ui2f
                0x000000000800d55c                __floatunsisf
                0x000000000800d564                __aeabi_i2f
                0x000000000800d564                __floatsisf
                0x000000000800d580                __floatundisf
                0x000000000800d580                __aeabi_ul2f
                0x000000000800d590                __floatdisf
                0x000000000800d590                __aeabi_l2f
 .text          0x000000000800d60c      0x2a0 /opt/gcc-arm-none-eabi-7-2017-q4-major/bin/../lib/gcc/arm-none-eabi/7.2.1/thumb/v7-m/libgcc.a(_arm_muldivsf3.o)
                0x000000000800d60c                __mulsf3
                0x000000000800d60c                __aeabi_fmul
                0x000000000800d774                __divsf3
                0x000000000800d774                __aeabi_fdiv
 .text          0x000000000800d8ac       0xec /opt/gcc-arm-none-eabi-7-2017-q4-major/bin/../lib/gcc/arm-none-eabi/7.2.1/thumb/v7-m/libgcc.a(_arm_cmpsf2.o)
                0x000000000800d8ac                __gtsf2
                0x000000000800d8ac                __gesf2
                0x000000000800d8b4                __lesf2
                0x000000000800d8b4                __ltsf2
                0x000000000800d8bc                __nesf2
                0x000000000800d8bc                __eqsf2
                0x000000000800d8bc                __cmpsf2
                0x000000000800d91c                __aeabi_cfrcmple
                0x000000000800d924                __aeabi_cfcmple
                0x000000000800d924                __aeabi_cfcmpeq
                0x000000000800d934                __aeabi_fcmpeq
                0x000000000800d948                __aeabi_fcmplt
                0x000000000800d95c                __aeabi_fcmple
                0x000000000800d970                __aeabi_fcmpge
                0x000000000800d984                __aeabi_fcmpgt
 .text          0x000000000800d998       0x2c /opt/gcc-arm-none-eabi-7-2017-q4-major/bin/../lib/gcc/arm-none-eabi/7.2.1/thumb/v7-m/libgcc.a(_arm_unordsf2.o)
                0x000000000800d998                __aeabi_fcmpun
                0x000000000800d998                __unordsf2
 .text          0x000000000800d9c4       0x4c /opt/gcc-arm-none-eabi-7-2017-q4-major/bin/../lib/gcc/arm-none-eabi/7.2.1/thumb/v7-m/libgcc.a(_arm_fixsfsi.o)
                0x000000000800d9c4                __fixsfsi
                0x000000000800d9c4                __aeabi_f2iz
 .text          0x000000000800da10       0x40 /opt/gcc-arm-none-eabi-7-2017-q4-major/bin/../lib/gcc/arm-none-eabi/7.2.1/thumb/v7-m/libgcc.a(_arm_fixunssfsi.o)
                0x000000000800da10                __aeabi_f2uiz
                0x000000000800da10                __fixunssfsi
 *(.fixup)
 *(.gnu.warning)
 *(.rodata .rodata.*)
 .rodata.g_idle_topstack
                0x000000000800da50        0x4 NuttX/nuttx/arch/arm/src/libarch.a(stm32_start.o)
                0x000000000800da50                g_idle_topstack
 .rodata.g_gpiobase
                0x000000000800da54       0x10 NuttX/nuttx/arch/arm/src/libarch.a(stm32_gpio.o)
                0x000000000800da54                g_gpiobase
 .rodata.g_uart_devs
                0x000000000800da64        0xc NuttX/nuttx/arch/arm/src/libarch.a(stm32_serial.o)
 .rodata.g_uart_dma_ops
                0x000000000800da70       0x38 NuttX/nuttx/arch/arm/src/libarch.a(stm32_serial.o)
 .rodata.g_uart_ops
                0x000000000800daa8       0x38 NuttX/nuttx/arch/arm/src/libarch.a(stm32_serial.o)
 .rodata.up_serialinit.str1.1
                0x000000000800dae0       0x23 NuttX/nuttx/arch/arm/src/libarch.a(stm32_serial.o)
 .rodata.up_hardfault.str1.1
                0x000000000800db03       0x17 NuttX/nuttx/arch/arm/src/libarch.a(up_hardfault.o)
 *fill*         0x000000000800db1a        0x2 
 .rodata.g_serialops
                0x000000000800db1c       0x1c NuttX/nuttx/drivers/libdrivers.a(serial.o)
 .rodata.g_default_channel
                0x000000000800db38       0x10 NuttX/nuttx/drivers/libdrivers.a(syslog_channel.o)
                0x000000000800db38                g_default_channel
 .rodata.g_idlename
                0x000000000800db48        0xa NuttX/nuttx/sched/libsched.a(nx_start.o)
 *fill*         0x000000000800db52        0x2 
 .rodata.g_tasklisttable
                0x000000000800db54       0x38 NuttX/nuttx/sched/libsched.a(nx_start.o)
                0x000000000800db54                g_tasklisttable
 .rodata.nx_bringup.str1.1
                0x000000000800db8c        0x5 NuttX/nuttx/sched/libsched.a(nx_bringup.o)
 .rodata.irq_unexpected_isr.str1.1
                0x000000000800db91       0x18 NuttX/nuttx/sched/libsched.a(irq_unexpectedisr.o)
 .rodata.g_noname
                0x000000000800dba9        0x9 NuttX/nuttx/sched/libsched.a(task_setup.o)
 .rodata.group_setupidlefiles.str1.1
                0x000000000800dbb2        0xd NuttX/nuttx/sched/libsched.a(group_setupidlefiles.o)
 .rodata.g_daysbeforemonth
                0x000000000800dbb2       0x1a NuttX/nuttx/libs/libc/libc.a(lib_daysbeforemonth.o)
 .rodata.g_syslog_console_channel
                0x000000000800dbcc       0x10 NuttX/nuttx/drivers/libdrivers.a(syslog_consolechannel.o)
 .rodata.syslog_console_channel.str1.1
                0x000000000800dbdc        0xd NuttX/nuttx/drivers/libdrivers.a(syslog_consolechannel.o)
 .rodata.g_syscrlf
                0x000000000800dbdc        0x2 NuttX/nuttx/drivers/libdrivers.a(syslog_device.o)
 .rodata.user_start.str1.1
                0x000000000800dbde       0x63 src/modules/px4iofirmware/libpx4iofirmware.a(px4io.c.obj)
 *fill*         0x000000000800dc41        0x1 
 .rodata.r_page_config
                0x000000000800dc42       0x12 src/modules/px4iofirmware/libpx4iofirmware.a(registers.c.obj)
 .rodata.registers_set.str1.1
                0x000000000800dc54       0x33 src/modules/px4iofirmware/libpx4iofirmware.a(registers.c.obj)
 .rodata.crc8_tab
                0x000000000800dc87      0x100 src/modules/px4iofirmware/libpx4iofirmware.a(serial.c.obj)
 .rodata.controls_init.str1.1
                0x000000000800dd87        0xb src/modules/px4iofirmware/libpx4iofirmware.a(controls.c.obj)
                                         0x16 (size before relaxing)
 .rodata.mixer_handle_text.str1.1
                0x000000000800dd92       0x25 src/modules/px4iofirmware/libpx4iofirmware.a(mixer.cpp.obj)
 .rodata.mixer_handle_text_create_mixer.str1.1
                0x000000000800ddb7        0x8 src/modules/px4iofirmware/libpx4iofirmware.a(mixer.cpp.obj)
 .rodata.mixer_tick.str1.1
                0x000000000800ddbf       0x2b src/modules/px4iofirmware/libpx4iofirmware.a(mixer.cpp.obj)
 .rodata._ZN15HelicopterMixer9from_textEPFijhhRfEjPKcRj.str1.1
                0x000000000800ddea       0x41 src/lib/mixer/HelicopterMixer/libHelicopterMixer.a(HelicopterMixer.cpp.obj)
 *fill*         0x000000000800de2b        0x1 
 .rodata._ZTV15HelicopterMixer
                0x000000000800de2c       0x34 src/lib/mixer/HelicopterMixer/libHelicopterMixer.a(HelicopterMixer.cpp.obj)
                0x000000000800de2c                vtable for HelicopterMixer
 .rodata._ZN12_GLOBAL__N_111_config_keyE
                0x000000000800de60       0x58 src/lib/mixer/MultirotorMixer/libMultirotorMixer.a(MultirotorMixer.cpp.obj)
 .rodata._ZN12_GLOBAL__N_1L13_config_hex_tE
                0x000000000800deb8       0x60 src/lib/mixer/MultirotorMixer/libMultirotorMixer.a(MultirotorMixer.cpp.obj)
 .rodata._ZN12_GLOBAL__N_1L13_config_indexE
                0x000000000800df18       0x58 src/lib/mixer/MultirotorMixer/libMultirotorMixer.a(MultirotorMixer.cpp.obj)
 .rodata._ZN12_GLOBAL__N_1L13_config_tri_yE
                0x000000000800df70       0x30 src/lib/mixer/MultirotorMixer/libMultirotorMixer.a(MultirotorMixer.cpp.obj)
 .rodata._ZN12_GLOBAL__N_1L14_config_octa_xE
                0x000000000800dfa0       0x80 src/lib/mixer/MultirotorMixer/libMultirotorMixer.a(MultirotorMixer.cpp.obj)
 .rodata._ZN12_GLOBAL__N_1L14_config_quad_hE
                0x000000000800e020       0x40 src/lib/mixer/MultirotorMixer/libMultirotorMixer.a(MultirotorMixer.cpp.obj)
 .rodata._ZN12_GLOBAL__N_1L14_config_quad_xE
                0x000000000800e060       0x40 src/lib/mixer/MultirotorMixer/libMultirotorMixer.a(MultirotorMixer.cpp.obj)
 .rodata._ZN12_GLOBAL__N_1L14_config_quad_yE
                0x000000000800e0a0       0x40 src/lib/mixer/MultirotorMixer/libMultirotorMixer.a(MultirotorMixer.cpp.obj)
 .rodata._ZN12_GLOBAL__N_1L15_config_hex_coxE
                0x000000000800e0e0       0x60 src/lib/mixer/MultirotorMixer/libMultirotorMixer.a(MultirotorMixer.cpp.obj)
 .rodata._ZN12_GLOBAL__N_1L16_config_hex_plusE
                0x000000000800e140       0x60 src/lib/mixer/MultirotorMixer/libMultirotorMixer.a(MultirotorMixer.cpp.obj)
 .rodata._ZN12_GLOBAL__N_1L16_config_octa_coxE
                0x000000000800e1a0       0x80 src/lib/mixer/MultirotorMixer/libMultirotorMixer.a(MultirotorMixer.cpp.obj)
 .rodata._ZN12_GLOBAL__N_1L17_config_octa_plusE
                0x000000000800e220       0x80 src/lib/mixer/MultirotorMixer/libMultirotorMixer.a(MultirotorMixer.cpp.obj)
 .rodata._ZN12_GLOBAL__N_1L17_config_quad_plusE
                0x000000000800e2a0       0x40 src/lib/mixer/MultirotorMixer/libMultirotorMixer.a(MultirotorMixer.cpp.obj)
 .rodata._ZN12_GLOBAL__N_1L17_config_quad_wideE
                0x000000000800e2e0       0x40 src/lib/mixer/MultirotorMixer/libMultirotorMixer.a(MultirotorMixer.cpp.obj)
 .rodata._ZN12_GLOBAL__N_1L17_config_quad_x_cwE
                0x000000000800e320       0x40 src/lib/mixer/MultirotorMixer/libMultirotorMixer.a(MultirotorMixer.cpp.obj)
 .rodata._ZN12_GLOBAL__N_1L18_config_quad_vtailE
                0x000000000800e360       0x40 src/lib/mixer/MultirotorMixer/libMultirotorMixer.a(MultirotorMixer.cpp.obj)
 .rodata._ZN12_GLOBAL__N_1L19_config_quad_s250aqE
                0x000000000800e3a0       0x40 src/lib/mixer/MultirotorMixer/libMultirotorMixer.a(MultirotorMixer.cpp.obj)
 .rodata._ZN12_GLOBAL__N_1L19_config_rotor_countE
                0x000000000800e3e0       0x58 src/lib/mixer/MultirotorMixer/libMultirotorMixer.a(MultirotorMixer.cpp.obj)
 .rodata._ZN12_GLOBAL__N_1L19_config_twin_engineE
                0x000000000800e438       0x20 src/lib/mixer/MultirotorMixer/libMultirotorMixer.a(MultirotorMixer.cpp.obj)
 .rodata._ZN12_GLOBAL__N_1L20_config_quad_deadcatE
                0x000000000800e458       0x40 src/lib/mixer/MultirotorMixer/libMultirotorMixer.a(MultirotorMixer.cpp.obj)
 .rodata._ZN12_GLOBAL__N_1L21_config_octa_cox_wideE
                0x000000000800e498       0x80 src/lib/mixer/MultirotorMixer/libMultirotorMixer.a(MultirotorMixer.cpp.obj)
 .rodata._ZN12_GLOBAL__N_1L21_config_quad_x_pusherE
                0x000000000800e518       0x50 src/lib/mixer/MultirotorMixer/libMultirotorMixer.a(MultirotorMixer.cpp.obj)
 .rodata._ZN12_GLOBAL__N_1L22_config_dodeca_top_coxE
                0x000000000800e568       0x60 src/lib/mixer/MultirotorMixer/libMultirotorMixer.a(MultirotorMixer.cpp.obj)
 .rodata._ZN12_GLOBAL__N_1L25_config_dodeca_bottom_coxE
                0x000000000800e5c8       0x60 src/lib/mixer/MultirotorMixer/libMultirotorMixer.a(MultirotorMixer.cpp.obj)
 .rodata._ZN15MultirotorMixer9from_textEPFijhhRfEjPKcRj.str1.1
                0x000000000800e628       0x16 src/lib/mixer/MultirotorMixer/libMultirotorMixer.a(MultirotorMixer.cpp.obj)
 *fill*         0x000000000800e63e        0x2 
 .rodata._ZTV15MultirotorMixer
                0x000000000800e640       0x34 src/lib/mixer/MultirotorMixer/libMultirotorMixer.a(MultirotorMixer.cpp.obj)
                0x000000000800e640                vtable for MultirotorMixer
 .rodata.str1.1
                0x000000000800e674       0x49 src/lib/mixer/MultirotorMixer/libMultirotorMixer.a(MultirotorMixer.cpp.obj)
 *fill*         0x000000000800e6bd        0x3 
 .rodata._ZTV9NullMixer
                0x000000000800e6c0       0x34 src/lib/mixer/NullMixer/libNullMixer.a(NullMixer.cpp.obj)
                0x000000000800e6c0                vtable for NullMixer
 .rodata._ZN11SimpleMixer19parse_output_scalerEPKcRjR14mixer_scaler_s.str1.1
                0x000000000800e6f4       0x15 src/lib/mixer/SimpleMixer/libSimpleMixer.a(SimpleMixer.cpp.obj)
 .rodata._ZN11SimpleMixer20parse_control_scalerEPKcRjR14mixer_scaler_sRhS5_.str1.1
                0x000000000800e709       0x18 src/lib/mixer/SimpleMixer/libSimpleMixer.a(SimpleMixer.cpp.obj)
 .rodata._ZN11SimpleMixer9from_textEPFijhhRfEjPKcRj.str1.1
                0x000000000800e721        0x8 src/lib/mixer/SimpleMixer/libSimpleMixer.a(SimpleMixer.cpp.obj)
 *fill*         0x000000000800e729        0x3 
 .rodata._ZTV11SimpleMixer
                0x000000000800e72c       0x34 src/lib/mixer/SimpleMixer/libSimpleMixer.a(SimpleMixer.cpp.obj)
                0x000000000800e72c                vtable for SimpleMixer
 .rodata.sumd_decode.str1.1
                0x000000000800e760      0x238 src/lib/rc/librc.a(sumd.cpp.obj)
 .rodata._ZL12sbus_decoder
                0x000000000800e998       0xc0 src/lib/rc/librc.a(sbus.cpp.obj)
 .rodata._ZL14lu_dbm_percent
                0x000000000800ea58       0x81 src/lib/rc/librc.a(dsm.cpp.obj)
 *fill*         0x000000000800ead9        0x3 
 .rodata._ZZL16dsm_guess_formatbE5masks
                0x000000000800eadc       0x20 src/lib/rc/librc.a(dsm.cpp.obj)
 .rodata.io_timers
                0x000000000800eafc       0x54 boards/px4/io-v2/src/libdrivers_board.a(timer_config.cpp.obj)
                0x000000000800eafc                io_timers
 .rodata.io_timers_channel_mapping
                0x000000000800eb50       0x18 boards/px4/io-v2/src/libdrivers_board.a(timer_config.cpp.obj)
                0x000000000800eb50                io_timers_channel_mapping
 .rodata.timer_io_channels
                0x000000000800eb68       0x80 boards/px4/io-v2/src/libdrivers_board.a(timer_config.cpp.obj)
                0x000000000800eb68                timer_io_channels
 .rodata.latency_buckets
                0x000000000800ebe8       0x10 platforms/nuttx/src/px4/stm/stm32f1/hrt/libarch_hrt.a(hrt.c.obj)
                0x000000000800ebe8                latency_buckets
 .rodata.crc32_tab
                0x000000000800ebf8      0x400 NuttX/nuttx/libs/libc/libc.a(lib_crc32.o)
 .rodata.lib_vscanf.str1.1
                0x000000000800eff8       0x25 NuttX/nuttx/libs/libc/libc.a(lib_libvscanf.o)
 .rodata.g_nullstring
                0x000000000800f01d        0x7 NuttX/nuttx/libs/libc/libc.a(lib_libvsprintf.o)
 .rodata.lib_vsprintf.str1.1
                0x000000000800f024        0x8 NuttX/nuttx/libs/libc/libc.a(lib_libvsprintf.o)
 .rodata.sqrtf.str1.4
                0x000000000800f02c        0x8 /opt/gcc-arm-none-eabi-7-2017-q4-major/bin/../lib/gcc/arm-none-eabi/7.2.1/../../../../arm-none-eabi/lib/thumb/v7-m/libm.a(lib_a-wf_sqrt.o)
                                          0x6 (size before relaxing)
 .rodata.npio2_hw
                0x000000000800f034       0x80 /opt/gcc-arm-none-eabi-7-2017-q4-major/bin/../lib/gcc/arm-none-eabi/7.2.1/../../../../arm-none-eabi/lib/thumb/v7-m/libm.a(lib_a-ef_rem_pio2.o)
 .rodata.two_over_pi
                0x000000000800f0b4      0x318 /opt/gcc-arm-none-eabi-7-2017-q4-major/bin/../lib/gcc/arm-none-eabi/7.2.1/../../../../arm-none-eabi/lib/thumb/v7-m/libm.a(lib_a-ef_rem_pio2.o)
 .rodata.PIo2   0x000000000800f3cc       0x2c /opt/gcc-arm-none-eabi-7-2017-q4-major/bin/../lib/gcc/arm-none-eabi/7.2.1/../../../../arm-none-eabi/lib/thumb/v7-m/libm.a(lib_a-kf_rem_pio2.o)
 .rodata.init_jk
                0x000000000800f3f8        0xc /opt/gcc-arm-none-eabi-7-2017-q4-major/bin/../lib/gcc/arm-none-eabi/7.2.1/../../../../arm-none-eabi/lib/thumb/v7-m/libm.a(lib_a-kf_rem_pio2.o)
 *(.gnu.linkonce.t.*)
 *(.glue_7)
 .glue_7        0x000000000800f404        0x0 linker stubs
 *(.glue_7t)
 .glue_7t       0x000000000800f404        0x0 linker stubs
 *(.got)
 *(.gcc_except_table)
 *(.gnu.linkonce.r.*)
                0x000000000800f404                _etext = ABSOLUTE (.)
                0x0000000008002bbc                __errno = get_errno_ptr

.vfp11_veneer   0x000000000800f404        0x0
 .vfp11_veneer  0x000000000800f404        0x0 linker stubs

.v4_bx          0x000000000800f404        0x0
 .v4_bx         0x000000000800f404        0x0 linker stubs

.iplt           0x000000000800f404        0x0
 .iplt          0x000000000800f404        0x0 NuttX/nuttx/arch/arm/src/libarch.a(stm32_start.o)

.init_section   0x000000000800f404        0x4
                0x000000000800f404                _sinit = ABSOLUTE (.)
 *(.init_array .init_array.*)
 .init_array    0x000000000800f404        0x4 src/modules/px4iofirmware/libpx4iofirmware.a(mixer.cpp.obj)
                0x000000000800f408                _einit = ABSOLUTE (.)

.ARM.extab
 *(.ARM.extab*)
                0x000000000800f408                __exidx_start = ABSOLUTE (.)

.ARM.exidx      0x000000000800f408        0x8
 *(.ARM.exidx*)
 .ARM.exidx     0x000000000800f408        0x8 /opt/gcc-arm-none-eabi-7-2017-q4-major/bin/../lib/gcc/arm-none-eabi/7.2.1/thumb/v7-m/libgcc.a(_udivmoddi4.o)
                0x000000000800f410                __exidx_end = ABSOLUTE (.)
                0x000000000800f410                _eronly = ABSOLUTE (.)

.rel.dyn        0x000000000800f410        0x0
 .rel.iplt      0x000000000800f410        0x0 NuttX/nuttx/arch/arm/src/libarch.a(stm32_start.o)

.data           0x0000000020000000      0x288 load address 0x000000000800f410
                0x0000000020000000                _sdata = ABSOLUTE (.)
 *(.data .data.*)
 .data.g_usart1priv
                0x0000000020000000       0x84 NuttX/nuttx/arch/arm/src/libarch.a(stm32_serial.o)
 .data.g_usart2priv
                0x0000000020000084       0x84 NuttX/nuttx/arch/arm/src/libarch.a(stm32_serial.o)
 .data.g_usart3priv
                0x0000000020000108       0x84 NuttX/nuttx/arch/arm/src/libarch.a(stm32_serial.o)
 .data.g_dma    0x000000002000018c       0x70 NuttX/nuttx/arch/arm/src/libarch.a(stm32_dma.o)
 .data.g_syslog_channel
                0x00000000200001fc        0x4 NuttX/nuttx/drivers/libdrivers.a(syslog_channel.o)
                0x00000000200001fc                g_syslog_channel
 .data.brightness.7486
                0x0000000020000200        0x4 src/modules/px4iofirmware/libpx4iofirmware.a(px4io.c.obj)
 .data.r_page_servo_control_max
                0x0000000020000204       0x10 src/modules/px4iofirmware/libpx4iofirmware.a(registers.c.obj)
                0x0000000020000204                r_page_servo_control_max
 .data.r_page_servo_control_min
                0x0000000020000214       0x10 src/modules/px4iofirmware/libpx4iofirmware.a(registers.c.obj)
                0x0000000020000214                r_page_servo_control_min
 .data.r_page_setup
                0x0000000020000224       0x3a src/modules/px4iofirmware/libpx4iofirmware.a(registers.c.obj)
                0x0000000020000224                r_page_setup
 *fill*         0x000000002000025e        0x2 
 .data._dsm_fd  0x0000000020000260        0x4 src/modules/px4iofirmware/libpx4iofirmware.a(controls.c.obj)
 .data._sbus_fd
                0x0000000020000264        0x4 src/modules/px4iofirmware/libpx4iofirmware.a(controls.c.obj)
                0x0000000020000264                _sbus_fd
 .data.channel_allocations
                0x0000000020000268        0xe platforms/nuttx/src/px4/stm/stm32f1/io_pins/libarch_io_pins.a(io_timer.c.obj)
                0x0000000020000268                channel_allocations
 .data._sumd    0x0000000020000276        0x1 src/lib/rc/librc.a(sumd.cpp.obj)
                0x0000000020000276                _sumd
 *fill*         0x0000000020000277        0x1 
 .data._ZL17sbus1_frame_delay
                0x0000000020000278        0x4 src/lib/rc/librc.a(sbus.cpp.obj)
 .data._ZL17sbus_decode_state
                0x000000002000027c        0x2 src/lib/rc/librc.a(sbus.cpp.obj)
 *fill*         0x000000002000027e        0x2 
 .data._ZL6dsm_fd
                0x0000000020000280        0x4 src/lib/rc/librc.a(dsm.cpp.obj)
 .data.g_syslog_mask
                0x0000000020000284        0x1 NuttX/nuttx/libs/libc/libc.a(lib_setlogmask.o)
                0x0000000020000284                g_syslog_mask
 .data.__fdlib_version
                0x0000000020000285        0x1 /opt/gcc-arm-none-eabi-7-2017-q4-major/bin/../lib/gcc/arm-none-eabi/7.2.1/../../../../arm-none-eabi/lib/thumb/v7-m/libm.a(lib_a-s_lib_ver.o)
                0x0000000020000285                __fdlib_version
 *(.gnu.linkonce.d.*)
                0x0000000020000286                _edata = ABSOLUTE (.)
                0x0000000020000288                . = ALIGN (0x4)
 *fill*         0x0000000020000286        0x2 

.igot.plt       0x0000000020000288        0x0 load address 0x000000000800f698
 .igot.plt      0x0000000020000288        0x0 NuttX/nuttx/arch/arm/src/libarch.a(stm32_start.o)

.bss            0x0000000020000288      0xcac load address 0x000000000800f698
                0x0000000020000288                _sbss = ABSOLUTE (.)
 *(.bss .bss.*)
 .bss.g_usart1rxbuffer
                0x0000000020000288       0x40 NuttX/nuttx/arch/arm/src/libarch.a(stm32_serial.o)
 .bss.g_usart1rxfifo
                0x00000000200002c8       0x20 NuttX/nuttx/arch/arm/src/libarch.a(stm32_serial.o)
 .bss.g_usart1txbuffer
                0x00000000200002e8       0x20 NuttX/nuttx/arch/arm/src/libarch.a(stm32_serial.o)
 .bss.g_usart2rxbuffer
                0x0000000020000308       0x40 NuttX/nuttx/arch/arm/src/libarch.a(stm32_serial.o)
 .bss.g_usart2txbuffer
                0x0000000020000348       0x40 NuttX/nuttx/arch/arm/src/libarch.a(stm32_serial.o)
 .bss.g_usart3rxbuffer
                0x0000000020000388       0x40 NuttX/nuttx/arch/arm/src/libarch.a(stm32_serial.o)
 .bss.g_usart3rxfifo
                0x00000000200003c8       0x20 NuttX/nuttx/arch/arm/src/libarch.a(stm32_serial.o)
 .bss.g_usart3txbuffer
                0x00000000200003e8       0x40 NuttX/nuttx/arch/arm/src/libarch.a(stm32_serial.o)
 .bss.g_current_regs
                0x0000000020000428        0x4 NuttX/nuttx/arch/arm/src/libarch.a(stm32_irq.o)
                0x0000000020000428                g_current_regs
 .bss.g_inode_sem
                0x000000002000042c        0x6 NuttX/nuttx/fs/libfs.a(fs_inode.o)
 *fill*         0x0000000020000432        0x2 
 .bss.g_root_inode
                0x0000000020000434        0x4 NuttX/nuttx/fs/libfs.a(fs_inodesearch.o)
                0x0000000020000434                g_root_inode
 .bss.g_mmheap  0x0000000020000438       0xa4 NuttX/nuttx/mm/libmm.a(umm_globals.o)
                0x0000000020000438                g_mmheap
 .bss.g_basetime
                0x00000000200004dc        0x8 NuttX/nuttx/sched/libsched.a(clock_initialize.o)
                0x00000000200004dc                g_basetime
 .bss.g_system_timer
                0x00000000200004e4        0x4 NuttX/nuttx/sched/libsched.a(clock_initialize.o)
                0x00000000200004e4                g_system_timer
 .bss.g_irqerrno
                0x00000000200004e8        0x4 NuttX/nuttx/sched/libsched.a(errno_getptr.o)
 .bss.g_delayed_kufree
                0x00000000200004ec        0x8 NuttX/nuttx/sched/libsched.a(nx_start.o)
                0x00000000200004ec                g_delayed_kufree
 .bss.g_idleargv
                0x00000000200004f4        0x8 NuttX/nuttx/sched/libsched.a(nx_start.o)
 .bss.g_idletcb
                0x00000000200004fc       0xb8 NuttX/nuttx/sched/libsched.a(nx_start.o)
 .bss.g_inactivetasks
                0x00000000200005b4        0x8 NuttX/nuttx/sched/libsched.a(nx_start.o)
                0x00000000200005b4                g_inactivetasks
 .bss.g_lastpid
                0x00000000200005bc        0x2 NuttX/nuttx/sched/libsched.a(nx_start.o)
                0x00000000200005bc                g_lastpid
 .bss.g_nx_initstate
                0x00000000200005be        0x1 NuttX/nuttx/sched/libsched.a(nx_start.o)
                0x00000000200005be                g_nx_initstate
 *fill*         0x00000000200005bf        0x1 
 .bss.g_pendingtasks
                0x00000000200005c0        0x8 NuttX/nuttx/sched/libsched.a(nx_start.o)
                0x00000000200005c0                g_pendingtasks
 .bss.g_pidhash
                0x00000000200005c8       0x10 NuttX/nuttx/sched/libsched.a(nx_start.o)
                0x00000000200005c8                g_pidhash
 .bss.g_readytorun
                0x00000000200005d8        0x8 NuttX/nuttx/sched/libsched.a(nx_start.o)
                0x00000000200005d8                g_readytorun
 .bss.g_running_tasks
                0x00000000200005e0        0x4 NuttX/nuttx/sched/libsched.a(nx_start.o)
                0x00000000200005e0                g_running_tasks
 .bss.g_waitingforsemaphore
                0x00000000200005e4        0x8 NuttX/nuttx/sched/libsched.a(nx_start.o)
                0x00000000200005e4                g_waitingforsemaphore
 .bss.g_waitingforsignal
                0x00000000200005ec        0x8 NuttX/nuttx/sched/libsched.a(nx_start.o)
                0x00000000200005ec                g_waitingforsignal
 .bss.g_irqvector
                0x00000000200005f4      0x268 NuttX/nuttx/sched/libsched.a(irq_initialize.o)
                0x00000000200005f4                g_irqvector
 .bss.g_sigfreeaction
                0x000000002000085c        0x8 NuttX/nuttx/sched/libsched.a(sig_initialize.o)
                0x000000002000085c                g_sigfreeaction
 .bss.g_sigpendingaction
                0x0000000020000864        0x8 NuttX/nuttx/sched/libsched.a(sig_initialize.o)
                0x0000000020000864                g_sigpendingaction
 .bss.g_sigpendingirqaction
                0x000000002000086c        0x8 NuttX/nuttx/sched/libsched.a(sig_initialize.o)
                0x000000002000086c                g_sigpendingirqaction
 .bss.g_sigpendingirqsignal
                0x0000000020000874        0x8 NuttX/nuttx/sched/libsched.a(sig_initialize.o)
                0x0000000020000874                g_sigpendingirqsignal
 .bss.g_sigpendingsignal
                0x000000002000087c        0x8 NuttX/nuttx/sched/libsched.a(sig_initialize.o)
                0x000000002000087c                g_sigpendingsignal
 .bss.g_wdactivelist
                0x0000000020000884        0x8 NuttX/nuttx/sched/libsched.a(wd_initialize.o)
                0x0000000020000884                g_wdactivelist
 .bss.g_wdfreelist
                0x000000002000088c        0x8 NuttX/nuttx/sched/libsched.a(wd_initialize.o)
                0x000000002000088c                g_wdfreelist
 .bss.g_wdnfree
                0x0000000020000894        0x2 NuttX/nuttx/sched/libsched.a(wd_initialize.o)
                0x0000000020000894                g_wdnfree
 *fill*         0x0000000020000896        0x2 
 .bss.g_wdpool  0x0000000020000898       0x18 NuttX/nuttx/sched/libsched.a(wd_initialize.o)
 .bss.g_syslog_dev
                0x00000000200008b0       0x1c NuttX/nuttx/drivers/libdrivers.a(syslog_device.o)
 .bss.brightness_counter.7487
                0x00000000200008cc        0x4 src/modules/px4iofirmware/libpx4iofirmware.a(px4io.c.obj)
 .bss.counter.7485
                0x00000000200008d0        0x4 src/modules/px4iofirmware/libpx4iofirmware.a(px4io.c.obj)
 .bss.dt        0x00000000200008d4        0x4 src/modules/px4iofirmware/libpx4iofirmware.a(px4io.c.obj)
                0x00000000200008d4                dt
 .bss.heartbeat.7480
                0x00000000200008d8        0x1 src/modules/px4iofirmware/libpx4iofirmware.a(px4io.c.obj)
 *fill*         0x00000000200008d9        0x7 
 .bss.last_mem_time.7474
                0x00000000200008e0        0x8 src/modules/px4iofirmware/libpx4iofirmware.a(px4io.c.obj)
 .bss.last_msg_counter
                0x00000000200008e8        0x4 src/modules/px4iofirmware/libpx4iofirmware.a(px4io.c.obj)
 .bss.msg       0x00000000200008ec       0x20 src/modules/px4iofirmware/libpx4iofirmware.a(px4io.c.obj)
 .bss.msg_counter
                0x000000002000090c        0x4 src/modules/px4iofirmware/libpx4iofirmware.a(px4io.c.obj)
 .bss.msg_next_in
                0x0000000020000910        0x1 src/modules/px4iofirmware/libpx4iofirmware.a(px4io.c.obj)
 .bss.msg_next_out
                0x0000000020000911        0x1 src/modules/px4iofirmware/libpx4iofirmware.a(px4io.c.obj)
 *fill*         0x0000000020000912        0x2 
 .bss.on_counter.7488
                0x0000000020000914        0x4 src/modules/px4iofirmware/libpx4iofirmware.a(px4io.c.obj)
 .bss.pwm_limit
                0x0000000020000918       0x18 src/modules/px4iofirmware/libpx4iofirmware.a(px4io.c.obj)
                0x0000000020000918                pwm_limit
 .bss.reboot_time
                0x0000000020000930        0x8 src/modules/px4iofirmware/libpx4iofirmware.a(px4io.c.obj)
 .bss.serial_dma_call
                0x0000000020000938       0x20 src/modules/px4iofirmware/libpx4iofirmware.a(px4io.c.obj)
 .bss.system_state
                0x0000000020000958       0x18 src/modules/px4iofirmware/libpx4iofirmware.a(px4io.c.obj)
                0x0000000020000958                system_state
 .bss.last_offset
                0x0000000020000970        0x1 src/modules/px4iofirmware/libpx4iofirmware.a(registers.c.obj)
                0x0000000020000970                last_offset
 .bss.last_page
                0x0000000020000971        0x1 src/modules/px4iofirmware/libpx4iofirmware.a(registers.c.obj)
                0x0000000020000971                last_page
 .bss.r_page_actuators
                0x0000000020000972       0x10 src/modules/px4iofirmware/libpx4iofirmware.a(registers.c.obj)
                0x0000000020000972                r_page_actuators
 .bss.r_page_controls
                0x0000000020000982       0x40 src/modules/px4iofirmware/libpx4iofirmware.a(registers.c.obj)
                0x0000000020000982                r_page_controls
 .bss.r_page_direct_pwm
                0x00000000200009c2       0x10 src/modules/px4iofirmware/libpx4iofirmware.a(registers.c.obj)
                0x00000000200009c2                r_page_direct_pwm
 .bss.r_page_raw_rc_input
                0x00000000200009d2       0x32 src/modules/px4iofirmware/libpx4iofirmware.a(registers.c.obj)
                0x00000000200009d2                r_page_raw_rc_input
 .bss.r_page_rc_input
                0x0000000020000a04       0x14 src/modules/px4iofirmware/libpx4iofirmware.a(registers.c.obj)
                0x0000000020000a04                r_page_rc_input
 .bss.r_page_rc_input_config
                0x0000000020000a18       0xd8 src/modules/px4iofirmware/libpx4iofirmware.a(registers.c.obj)
                0x0000000020000a18                r_page_rc_input_config
 .bss.r_page_scratch
                0x0000000020000af0       0x40 src/modules/px4iofirmware/libpx4iofirmware.a(registers.c.obj)
                0x0000000020000af0                r_page_scratch
 .bss.r_page_servo_control_trim
                0x0000000020000b30       0x10 src/modules/px4iofirmware/libpx4iofirmware.a(registers.c.obj)
                0x0000000020000b30                r_page_servo_control_trim
 .bss.r_page_servo_disarmed
                0x0000000020000b40       0x10 src/modules/px4iofirmware/libpx4iofirmware.a(registers.c.obj)
                0x0000000020000b40                r_page_servo_disarmed
 .bss.r_page_servo_failsafe
                0x0000000020000b50       0x10 src/modules/px4iofirmware/libpx4iofirmware.a(registers.c.obj)
                0x0000000020000b50                r_page_servo_failsafe
 .bss.r_page_servos
                0x0000000020000b60       0x10 src/modules/px4iofirmware/libpx4iofirmware.a(registers.c.obj)
                0x0000000020000b60                r_page_servos
 .bss.r_page_status
                0x0000000020000b70       0x14 src/modules/px4iofirmware/libpx4iofirmware.a(registers.c.obj)
                0x0000000020000b70                r_page_status
 .bss.update_mc_thrust_param
                0x0000000020000b84        0x1 src/modules/px4iofirmware/libpx4iofirmware.a(registers.c.obj)
                0x0000000020000b84                update_mc_thrust_param
 .bss.update_trims
                0x0000000020000b85        0x1 src/modules/px4iofirmware/libpx4iofirmware.a(registers.c.obj)
                0x0000000020000b85                update_trims
 *fill*         0x0000000020000b86        0x2 
 .bss.arming_call
                0x0000000020000b88       0x20 src/modules/px4iofirmware/libpx4iofirmware.a(safety.c.obj)
 .bss.blink_counter
                0x0000000020000ba8        0x4 src/modules/px4iofirmware/libpx4iofirmware.a(safety.c.obj)
 .bss.counter   0x0000000020000bac        0x4 src/modules/px4iofirmware/libpx4iofirmware.a(safety.c.obj)
 .bss.failsafe.7187
                0x0000000020000bb0        0x1 src/modules/px4iofirmware/libpx4iofirmware.a(safety.c.obj)
 *fill*         0x0000000020000bb1        0x7 
 .bss.failsafe_call
                0x0000000020000bb8       0x20 src/modules/px4iofirmware/libpx4iofirmware.a(safety.c.obj)
 .bss.abort_on_idle.7144
                0x0000000020000bd8        0x1 src/modules/px4iofirmware/libpx4iofirmware.a(serial.c.obj)
 .bss.dma_packet
                0x0000000020000bd9       0x44 src/modules/px4iofirmware/libpx4iofirmware.a(serial.c.obj)
 *fill*         0x0000000020000c1d        0x3 
 .bss.rx_dma    0x0000000020000c20        0x4 src/modules/px4iofirmware/libpx4iofirmware.a(serial.c.obj)
 .bss.tx_dma    0x0000000020000c24        0x4 src/modules/px4iofirmware/libpx4iofirmware.a(serial.c.obj)
 .bss._rssi     0x0000000020000c28        0x2 src/modules/px4iofirmware/libpx4iofirmware.a(controls.c.obj)
 *fill*         0x0000000020000c2a        0x2 
 .bss._rssi_adc_counts
                0x0000000020000c2c        0x4 src/modules/px4iofirmware/libpx4iofirmware.a(controls.c.obj)
 .bss.rc_value_override
                0x0000000020000c30        0x2 src/modules/px4iofirmware/libpx4iofirmware.a(controls.c.obj)
 .bss._ZL10mixer_text
                0x0000000020000c32      0x14a src/modules/px4iofirmware/libpx4iofirmware.a(mixer.cpp.obj)
 .bss._ZL10should_arm
                0x0000000020000d7c        0x1 src/modules/px4iofirmware/libpx4iofirmware.a(mixer.cpp.obj)
 *fill*         0x0000000020000d7d        0x3 
 .bss._ZL11mixer_group
                0x0000000020000d80        0x4 src/modules/px4iofirmware/libpx4iofirmware.a(mixer.cpp.obj)
 .bss._ZL12new_fmu_data
                0x0000000020000d84        0x1 src/modules/px4iofirmware/libpx4iofirmware.a(mixer.cpp.obj)
 *fill*         0x0000000020000d85        0x3 
 .bss._ZL15last_fmu_update
                0x0000000020000d88        0x8 src/modules/px4iofirmware/libpx4iofirmware.a(mixer.cpp.obj)
 .bss._ZL17mixer_text_length
                0x0000000020000d90        0x4 src/modules/px4iofirmware/libpx4iofirmware.a(mixer.cpp.obj)
 .bss._ZL18mixer_servos_armed
                0x0000000020000d94        0x1 src/modules/px4iofirmware/libpx4iofirmware.a(mixer.cpp.obj)
 .bss._ZL20mixer_update_pending
                0x0000000020000d95        0x1 src/modules/px4iofirmware/libpx4iofirmware.a(mixer.cpp.obj)
 .bss._ZL21should_arm_nothrottle
                0x0000000020000d96        0x1 src/modules/px4iofirmware/libpx4iofirmware.a(mixer.cpp.obj)
 .bss._ZL24should_always_enable_pwm
                0x0000000020000d97        0x1 src/modules/px4iofirmware/libpx4iofirmware.a(mixer.cpp.obj)
 .bss._ZL6source
                0x0000000020000d98        0x1 src/modules/px4iofirmware/libpx4iofirmware.a(mixer.cpp.obj)
 .bss._ZL8in_mixer
                0x0000000020000d99        0x1 src/modules/px4iofirmware/libpx4iofirmware.a(mixer.cpp.obj)
 *fill*         0x0000000020000d9a        0x2 
 .bss.channels_cache.7488
                0x0000000020000d9c        0xc platforms/nuttx/src/px4/stm/stm32f1/io_pins/libarch_io_pins.a(io_timer.c.obj)
 .bss.once      0x0000000020000da8        0x1 platforms/nuttx/src/px4/stm/stm32f1/io_pins/libarch_io_pins.a(io_timer.c.obj)
 .bss._ZL13_decode_state
                0x0000000020000da9        0x1 src/lib/rc/librc.a(st24.cpp.obj)
 .bss._ZL6_rxlen
                0x0000000020000daa        0x1 src/lib/rc/librc.a(st24.cpp.obj)
 .bss._ZL13_decode_state
                0x0000000020000dab        0x1 src/lib/rc/librc.a(sumd.cpp.obj)
 .bss._ZL6_rxlen
                0x0000000020000dac        0x1 src/lib/rc/librc.a(sumd.cpp.obj)
 *fill*         0x0000000020000dad        0x1 
 .bss._crc16    0x0000000020000dae        0x2 src/lib/rc/librc.a(sumd.cpp.obj)
                0x0000000020000dae                _crc16
 .bss._crc8     0x0000000020000db0        0x1 src/lib/rc/librc.a(sumd.cpp.obj)
                0x0000000020000db0                _crc8
 .bss._crcOK    0x0000000020000db1        0x1 src/lib/rc/librc.a(sumd.cpp.obj)
                0x0000000020000db1                _crcOK
 .bss._debug    0x0000000020000db2        0x1 src/lib/rc/librc.a(sumd.cpp.obj)
                0x0000000020000db2                _debug
 *fill*         0x0000000020000db3        0x5 
 .bss._ZL12last_rx_time
                0x0000000020000db8        0x8 src/lib/rc/librc.a(sbus.cpp.obj)
 .bss._ZL16sbus_frame_drops
                0x0000000020000dc0        0x4 src/lib/rc/librc.a(sbus.cpp.obj)
 *fill*         0x0000000020000dc4        0x4 
 .bss._ZL17last_txframe_time
                0x0000000020000dc8        0x8 src/lib/rc/librc.a(sbus.cpp.obj)
 .bss._ZL19partial_frame_count
                0x0000000020000dd0        0x4 src/lib/rc/librc.a(sbus.cpp.obj)
 .bss._ZL12dsm_chan_buf
                0x0000000020000dd4       0x24 src/lib/rc/librc.a(dsm.cpp.obj)
 .bss._ZL14dsm_chan_count
                0x0000000020000df8        0x2 src/lib/rc/librc.a(dsm.cpp.obj)
 *fill*         0x0000000020000dfa        0x2 
 .bss._ZL15dsm_frame_drops
                0x0000000020000dfc        0x4 src/lib/rc/librc.a(dsm.cpp.obj)
 .bss._ZL16dsm_decode_state
                0x0000000020000e00        0x1 src/lib/rc/librc.a(dsm.cpp.obj)
 *fill*         0x0000000020000e01        0x7 
 .bss._ZL16dsm_last_rx_time
                0x0000000020000e08        0x8 src/lib/rc/librc.a(dsm.cpp.obj)
 .bss._ZL17dsm_channel_shift
                0x0000000020000e10        0x4 src/lib/rc/librc.a(dsm.cpp.obj)
 *fill*         0x0000000020000e14        0x4 
 .bss._ZL19dsm_last_frame_time
                0x0000000020000e18        0x8 src/lib/rc/librc.a(dsm.cpp.obj)
 .bss._ZL23dsm_partial_frame_count
                0x0000000020000e20        0x4 src/lib/rc/librc.a(dsm.cpp.obj)
 .bss._ZZL16dsm_guess_formatbE4cs10
                0x0000000020000e24        0x4 src/lib/rc/librc.a(dsm.cpp.obj)
 .bss._ZZL16dsm_guess_formatbE4cs11
                0x0000000020000e28        0x4 src/lib/rc/librc.a(dsm.cpp.obj)
 .bss._ZZL16dsm_guess_formatbE7samples
                0x0000000020000e2c        0x4 src/lib/rc/librc.a(dsm.cpp.obj)
 .bss.rc_decode_buf
                0x0000000020000e30       0x47 src/lib/rc/librc.a(common_rc.cpp.obj)
                0x0000000020000e30                rc_decode_buf
 *fill*         0x0000000020000e77        0x1 
 .bss.base_time.7118
                0x0000000020000e78        0x8 platforms/nuttx/src/px4/stm/stm32f1/hrt/libarch_hrt.a(hrt.c.obj)
 .bss.callout_queue
                0x0000000020000e80        0x8 platforms/nuttx/src/px4/stm/stm32f1/hrt/libarch_hrt.a(hrt.c.obj)
 .bss.last_count.7119
                0x0000000020000e88        0x4 platforms/nuttx/src/px4/stm/stm32f1/hrt/libarch_hrt.a(hrt.c.obj)
 .bss.latency_actual
                0x0000000020000e8c        0x2 platforms/nuttx/src/px4/stm/stm32f1/hrt/libarch_hrt.a(hrt.c.obj)
 .bss.latency_baseline
                0x0000000020000e8e        0x2 platforms/nuttx/src/px4/stm/stm32f1/hrt/libarch_hrt.a(hrt.c.obj)
 .bss.latency_counters
                0x0000000020000e90       0x24 platforms/nuttx/src/px4/stm/stm32f1/hrt/libarch_hrt.a(hrt.c.obj)
                0x0000000020000e90                latency_counters
 .bss.new_channel_count.7096
                0x0000000020000eb4        0x4 platforms/nuttx/src/px4/stm/stm32f1/hrt/libarch_hrt.a(hrt.c.obj)
 .bss.new_channel_holdoff.7097
                0x0000000020000eb8        0x4 platforms/nuttx/src/px4/stm/stm32f1/hrt/libarch_hrt.a(hrt.c.obj)
 .bss.ppm       0x0000000020000ebc       0x10 platforms/nuttx/src/px4/stm/stm32f1/hrt/libarch_hrt.a(hrt.c.obj)
                0x0000000020000ebc                ppm
 .bss.ppm_buffer
                0x0000000020000ecc       0x28 platforms/nuttx/src/px4/stm/stm32f1/hrt/libarch_hrt.a(hrt.c.obj)
                0x0000000020000ecc                ppm_buffer
 .bss.ppm_decoded_channels
                0x0000000020000ef4        0x4 platforms/nuttx/src/px4/stm/stm32f1/hrt/libarch_hrt.a(hrt.c.obj)
                0x0000000020000ef4                ppm_decoded_channels
 .bss.ppm_frame_length
                0x0000000020000ef8        0x2 platforms/nuttx/src/px4/stm/stm32f1/hrt/libarch_hrt.a(hrt.c.obj)
                0x0000000020000ef8                ppm_frame_length
 *fill*         0x0000000020000efa        0x6 
 .bss.ppm_last_valid_decode
                0x0000000020000f00        0x8 platforms/nuttx/src/px4/stm/stm32f1/hrt/libarch_hrt.a(hrt.c.obj)
                0x0000000020000f00                ppm_last_valid_decode
 .bss.ppm_temp_buffer
                0x0000000020000f08       0x28 platforms/nuttx/src/px4/stm/stm32f1/hrt/libarch_hrt.a(hrt.c.obj)
 .bss.__dso_handle
                0x0000000020000f30        0x4 NuttX/nuttx/libs/libxx/libxx.a(libxx_cxa_atexit.o)
                0x0000000020000f30                __dso_handle
 *(.gnu.linkonce.b.*)
 *(COMMON)
                0x0000000020000f34                . = ALIGN (0x4)
                0x0000000020000f34                _ebss = ABSOLUTE (.)

.stab
 *(.stab)

.stabstr
 *(.stabstr)

.stab.excl
 *(.stab.excl)

.stab.exclstr
 *(.stab.exclstr)

.stab.index
 *(.stab.index)

.stab.indexstr
 *(.stab.indexstr)

.comment        0x0000000000000000       0x7e
 *(.comment)
 .comment       0x0000000000000000       0x7e NuttX/nuttx/arch/arm/src/libarch.a(stm32_start.o)
                                         0x7f (size before relaxing)
 .comment       0x000000000000007e       0x7f NuttX/nuttx/arch/arm/src/libarch.a(stm32_rcc.o)
 .comment       0x000000000000007e       0x7f NuttX/nuttx/arch/arm/src/libarch.a(stm32_gpio.o)
 .comment       0x000000000000007e       0x7f NuttX/nuttx/arch/arm/src/libarch.a(stm32_lowputc.o)
 .comment       0x000000000000007e       0x7f NuttX/nuttx/arch/arm/src/libarch.a(stm32_serial.o)
 .comment       0x000000000000007e       0x7f NuttX/nuttx/arch/arm/src/libarch.a(up_modifyreg32.o)
 .comment       0x000000000000007e       0x7f NuttX/nuttx/arch/arm/src/libarch.a(up_vectors.o)
 .comment       0x000000000000007e       0x7f NuttX/nuttx/arch/arm/src/libarch.a(stm32_irq.o)
 .comment       0x000000000000007e       0x7f NuttX/nuttx/arch/arm/src/libarch.a(stm32_dma.o)
 .comment       0x000000000000007e       0x7f NuttX/nuttx/arch/arm/src/libarch.a(up_hardfault.o)
 .comment       0x000000000000007e       0x7f NuttX/nuttx/arch/arm/src/libarch.a(up_svcall.o)
 .comment       0x000000000000007e       0x7f NuttX/nuttx/arch/arm/src/libarch.a(up_doirq.o)
 .comment       0x000000000000007e       0x7f NuttX/nuttx/arch/arm/src/libarch.a(up_assert.o)
 .comment       0x000000000000007e       0x7f NuttX/nuttx/arch/arm/src/libarch.a(up_interruptcontext.o)
 .comment       0x000000000000007e       0x7f NuttX/nuttx/libs/libc/libc.a(sem_init.o)
 .comment       0x000000000000007e       0x7f NuttX/nuttx/libs/libc/libc.a(lib_abort.o)
 .comment       0x000000000000007e       0x7f NuttX/nuttx/libs/libc/libc.a(lib_strcpy.o)
 .comment       0x000000000000007e       0x7f NuttX/nuttx/libs/libc/libc.a(lib_memcpy.o)
 .comment       0x000000000000007e       0x7f NuttX/nuttx/libs/libc/libc.a(lib_cfgetspeed.o)
 .comment       0x000000000000007e       0x7f NuttX/nuttx/libs/libc/libc.a(lib_cfsetspeed.o)
 .comment       0x000000000000007e       0x7f NuttX/nuttx/drivers/libdrivers.a(serial.o)
 .comment       0x000000000000007e       0x7f NuttX/nuttx/drivers/libdrivers.a(serial_io.o)
 .comment       0x000000000000007e       0x7f NuttX/nuttx/drivers/libdrivers.a(syslog_flush.o)
 .comment       0x000000000000007e       0x7f NuttX/nuttx/drivers/libdrivers.a(syslog_channel.o)
 .comment       0x000000000000007e       0x7f NuttX/nuttx/fs/libfs.a(fs_registerdriver.o)
 .comment       0x000000000000007e       0x7f NuttX/nuttx/fs/libfs.a(fs_inode.o)
 .comment       0x000000000000007e       0x7f NuttX/nuttx/fs/libfs.a(fs_inodereserve.o)
 .comment       0x000000000000007e       0x7f NuttX/nuttx/fs/libfs.a(fs_inodesearch.o)
 .comment       0x000000000000007e       0x7f NuttX/nuttx/mm/libmm.a(umm_zalloc.o)
 .comment       0x000000000000007e       0x7f NuttX/nuttx/mm/libmm.a(umm_globals.o)
 .comment       0x000000000000007e       0x7f NuttX/nuttx/mm/libmm.a(mm_zalloc.o)
 .comment       0x000000000000007e       0x7f NuttX/nuttx/mm/libmm.a(mm_malloc.o)
 .comment       0x000000000000007e       0x7f NuttX/nuttx/mm/libmm.a(mm_sem.o)
 .comment       0x000000000000007e       0x7f NuttX/nuttx/mm/libmm.a(mm_addfreechunk.o)
 .comment       0x000000000000007e       0x7f NuttX/nuttx/mm/libmm.a(mm_size2ndx.o)
 .comment       0x000000000000007e       0x7f NuttX/nuttx/sched/libsched.a(clock_initialize.o)
 .comment       0x000000000000007e       0x7f NuttX/nuttx/sched/libsched.a(clock_ticks2time.o)
 .comment       0x000000000000007e       0x7f NuttX/nuttx/sched/libsched.a(errno_getptr.o)
 .comment       0x000000000000007e       0x7f NuttX/nuttx/sched/libsched.a(nx_start.o)
 .comment       0x000000000000007e       0x7f NuttX/nuttx/sched/libsched.a(nx_bringup.o)
 .comment       0x000000000000007e       0x7f NuttX/nuttx/sched/libsched.a(irq_attach.o)
 .comment       0x000000000000007e       0x7f NuttX/nuttx/sched/libsched.a(irq_dispatch.o)
 .comment       0x000000000000007e       0x7f NuttX/nuttx/sched/libsched.a(irq_unexpectedisr.o)
 .comment       0x000000000000007e       0x7f NuttX/nuttx/sched/libsched.a(sched_garbage.o)
 .comment       0x000000000000007e       0x7f NuttX/nuttx/sched/libsched.a(sched_idletask.o)
 .comment       0x000000000000007e       0x7f NuttX/nuttx/sched/libsched.a(sem_wait.o)
 .comment       0x000000000000007e       0x7f NuttX/nuttx/sched/libsched.a(sem_trywait.o)
 .comment       0x000000000000007e       0x7f NuttX/nuttx/sched/libsched.a(sem_post.o)
 .comment       0x000000000000007e       0x7f NuttX/nuttx/sched/libsched.a(sem_reset.o)
 .comment       0x000000000000007e       0x7f NuttX/nuttx/sched/libsched.a(sig_usleep.o)
 .comment       0x000000000000007e       0x7f NuttX/nuttx/sched/libsched.a(task_create.o)
 .comment       0x000000000000007e       0x7f NuttX/nuttx/sched/libsched.a(task_setup.o)
 .comment       0x000000000000007e       0x7f NuttX/nuttx/sched/libsched.a(task_activate.o)
 .comment       0x000000000000007e       0x7f NuttX/nuttx/sched/libsched.a(task_start.o)
 .comment       0x000000000000007e       0x7f NuttX/nuttx/sched/libsched.a(task_getpid.o)
 .comment       0x000000000000007e       0x7f NuttX/nuttx/sched/libsched.a(exit.o)
 .comment       0x000000000000007e       0x7f NuttX/nuttx/sched/libsched.a(group_create.o)
 .comment       0x000000000000007e       0x7f NuttX/nuttx/sched/libsched.a(group_setupidlefiles.o)
 .comment       0x000000000000007e       0x7f NuttX/nuttx/sched/libsched.a(group_setuptaskfiles.o)
 .comment       0x000000000000007e       0x7f NuttX/nuttx/sched/libsched.a(irq_initialize.o)
 .comment       0x000000000000007e       0x7f NuttX/nuttx/sched/libsched.a(sched_releasetcb.o)
 .comment       0x000000000000007e       0x7f NuttX/nuttx/sched/libsched.a(sched_lock.o)
 .comment       0x000000000000007e       0x7f NuttX/nuttx/sched/libsched.a(sched_unlock.o)
 .comment       0x000000000000007e       0x7f NuttX/nuttx/sched/libsched.a(sig_procmask.o)
 .comment       0x000000000000007e       0x7f NuttX/nuttx/sched/libsched.a(sig_unmaskpendingsignal.o)
 .comment       0x000000000000007e       0x7f NuttX/nuttx/sched/libsched.a(sig_removependingsignal.o)
 .comment       0x000000000000007e       0x7f NuttX/nuttx/sched/libsched.a(sig_releasependingsignal.o)
 .comment       0x000000000000007e       0x7f NuttX/nuttx/sched/libsched.a(sig_lowest.o)
 .comment       0x000000000000007e       0x7f NuttX/nuttx/sched/libsched.a(sig_dispatch.o)
 .comment       0x000000000000007e       0x7f NuttX/nuttx/sched/libsched.a(sig_deliver.o)
 .comment       0x000000000000007e       0x7f NuttX/nuttx/sched/libsched.a(sig_nanosleep.o)
 .comment       0x000000000000007e       0x7f NuttX/nuttx/sched/libsched.a(task_exithook.o)
 .comment       0x000000000000007e       0x7f NuttX/nuttx/sched/libsched.a(task_recover.o)
 .comment       0x000000000000007e       0x7f NuttX/nuttx/sched/libsched.a(wd_recover.o)
 .comment       0x000000000000007e       0x7f NuttX/nuttx/sched/libsched.a(clock_time2ticks.o)
 .comment       0x000000000000007e       0x7f NuttX/nuttx/sched/libsched.a(group_leave.o)
 .comment       0x000000000000007e       0x7f NuttX/nuttx/sched/libsched.a(sched_free.o)
 .comment       0x000000000000007e       0x7f NuttX/nuttx/sched/libsched.a(sched_gettcb.o)
 .comment       0x000000000000007e       0x7f NuttX/nuttx/sched/libsched.a(sem_recover.o)
 .comment       0x000000000000007e       0x7f NuttX/nuttx/sched/libsched.a(sem_waitirq.o)
 .comment       0x000000000000007e       0x7f NuttX/nuttx/sched/libsched.a(sig_initialize.o)
 .comment       0x000000000000007e       0x7f NuttX/nuttx/sched/libsched.a(sig_pending.o)
 .comment       0x000000000000007e       0x7f NuttX/nuttx/sched/libsched.a(sig_timedwait.o)
 .comment       0x000000000000007e       0x7f NuttX/nuttx/sched/libsched.a(sig_findaction.o)
 .comment       0x000000000000007e       0x7f NuttX/nuttx/sched/libsched.a(sig_allocpendingsigaction.o)
 .comment       0x000000000000007e       0x7f NuttX/nuttx/sched/libsched.a(sig_releasependingsigaction.o)
 .comment       0x000000000000007e       0x7f NuttX/nuttx/sched/libsched.a(sig_cleanup.o)
 .comment       0x000000000000007e       0x7f NuttX/nuttx/sched/libsched.a(wd_create.o)
 .comment       0x000000000000007e       0x7f NuttX/nuttx/sched/libsched.a(wd_start.o)
 .comment       0x000000000000007e       0x7f NuttX/nuttx/sched/libsched.a(wd_cancel.o)
 .comment       0x000000000000007e       0x7f NuttX/nuttx/sched/libsched.a(wd_delete.o)
 .comment       0x000000000000007e       0x7f NuttX/nuttx/sched/libsched.a(sig_action.o)
 .comment       0x000000000000007e       0x7f NuttX/nuttx/sched/libsched.a(wd_initialize.o)
 .comment       0x000000000000007e       0x7f NuttX/nuttx/arch/arm/src/libarch.a(stm32_allocateheap.o)
 .comment       0x000000000000007e       0x7f NuttX/nuttx/arch/arm/src/libarch.a(stm32_idle.o)
 .comment       0x000000000000007e       0x7f NuttX/nuttx/arch/arm/src/libarch.a(up_blocktask.o)
 .comment       0x000000000000007e       0x7f NuttX/nuttx/arch/arm/src/libarch.a(up_copyfullstate.o)
 .comment       0x000000000000007e       0x7f NuttX/nuttx/arch/arm/src/libarch.a(up_createstack.o)
 .comment       0x000000000000007e       0x7f NuttX/nuttx/arch/arm/src/libarch.a(up_exit.o)
 .comment       0x000000000000007e       0x7f NuttX/nuttx/arch/arm/src/libarch.a(up_initialize.o)
 .comment       0x000000000000007e       0x7f NuttX/nuttx/arch/arm/src/libarch.a(up_initialstate.o)
 .comment       0x000000000000007e       0x7f NuttX/nuttx/arch/arm/src/libarch.a(up_releasepending.o)
 .comment       0x000000000000007e       0x7f NuttX/nuttx/arch/arm/src/libarch.a(up_releasestack.o)
 .comment       0x000000000000007e       0x7f NuttX/nuttx/arch/arm/src/libarch.a(up_schedulesigaction.o)
 .comment       0x000000000000007e       0x7f NuttX/nuttx/arch/arm/src/libarch.a(up_sigdeliver.o)
 .comment       0x000000000000007e       0x7f NuttX/nuttx/arch/arm/src/libarch.a(up_stackframe.o)
 .comment       0x000000000000007e       0x7f NuttX/nuttx/arch/arm/src/libarch.a(up_unblocktask.o)
 .comment       0x000000000000007e       0x7f NuttX/nuttx/arch/arm/src/libarch.a(stm32_timerisr.o)
 .comment       0x000000000000007e       0x7f NuttX/nuttx/libs/libc/libc.a(sq_addlast.o)
 .comment       0x000000000000007e       0x7f NuttX/nuttx/libs/libc/libc.a(sq_addfirst.o)
 .comment       0x000000000000007e       0x7f NuttX/nuttx/libs/libc/libc.a(sq_addafter.o)
 .comment       0x000000000000007e       0x7f NuttX/nuttx/libs/libc/libc.a(sq_rem.o)
 .comment       0x000000000000007e       0x7f NuttX/nuttx/libs/libc/libc.a(sq_remfirst.o)
 .comment       0x000000000000007e       0x7f NuttX/nuttx/libs/libc/libc.a(sq_remafter.o)
 .comment       0x000000000000007e       0x7f NuttX/nuttx/libs/libc/libc.a(dq_addfirst.o)
 .comment       0x000000000000007e       0x7f NuttX/nuttx/libs/libc/libc.a(dq_rem.o)
 .comment       0x000000000000007e       0x7f NuttX/nuttx/libs/libc/libc.a(sem_getvalue.o)
 .comment       0x000000000000007e       0x7f NuttX/nuttx/libs/libc/libc.a(sem_setprotocol.o)
 .comment       0x000000000000007e       0x7f NuttX/nuttx/libs/libc/libc.a(sig_addset.o)
 .comment       0x000000000000007e       0x7f NuttX/nuttx/libs/libc/libc.a(sig_delset.o)
 .comment       0x000000000000007e       0x7f NuttX/nuttx/libs/libc/libc.a(sig_emptyset.o)
 .comment       0x000000000000007e       0x7f NuttX/nuttx/libs/libc/libc.a(sig_ismember.o)
 .comment       0x000000000000007e       0x7f NuttX/nuttx/libs/libc/libc.a(lib_memset.o)
 .comment       0x000000000000007e       0x7f NuttX/nuttx/libs/libc/libc.a(lib_strlen.o)
 .comment       0x000000000000007e       0x7f NuttX/nuttx/libs/libc/libc.a(lib_calendar2utc.o)
 .comment       0x000000000000007e       0x7f NuttX/nuttx/libs/libc/libc.a(lib_daysbeforemonth.o)
 .comment       0x000000000000007e       0x7f NuttX/nuttx/libs/libc/libc.a(lib_isleapyear.o)
 .comment       0x000000000000007e       0x7f NuttX/nuttx/drivers/libdrivers.a(syslog_initialize.o)
 .comment       0x000000000000007e       0x7f NuttX/nuttx/drivers/libdrivers.a(syslog_consolechannel.o)
 .comment       0x000000000000007e       0x7f NuttX/nuttx/drivers/libdrivers.a(syslog_device.o)
 .comment       0x000000000000007e       0x7f NuttX/nuttx/fs/libfs.a(fs_initialize.o)
 .comment       0x000000000000007e       0x7f NuttX/nuttx/fs/libfs.a(fs_files.o)
 .comment       0x000000000000007e       0x7f NuttX/nuttx/fs/libfs.a(fs_inodeaddref.o)
 .comment       0x000000000000007e       0x7f NuttX/nuttx/fs/libfs.a(fs_inoderelease.o)
 .comment       0x000000000000007e       0x7f NuttX/nuttx/fs/libfs.a(fs_fileopen.o)
 .comment       0x000000000000007e       0x7f NuttX/nuttx/fs/libfs.a(fs_filedetach.o)
 .comment       0x000000000000007e       0x7f NuttX/nuttx/fs/libfs.a(fs_close.o)
 .comment       0x000000000000007e       0x7f NuttX/nuttx/fs/libfs.a(fs_dupfd2.o)
 .comment       0x000000000000007e       0x7f NuttX/nuttx/fs/libfs.a(fs_getfilep.o)
 .comment       0x000000000000007e       0x7f NuttX/nuttx/fs/libfs.a(fs_open.o)
 .comment       0x000000000000007e       0x7f NuttX/nuttx/fs/libfs.a(fs_write.o)
 .comment       0x000000000000007e       0x7f NuttX/nuttx/fs/libfs.a(fs_inodefind.o)
 .comment       0x000000000000007e       0x7f NuttX/nuttx/fs/libfs.a(fs_inodefree.o)
 .comment       0x000000000000007e       0x7f NuttX/nuttx/mm/libmm.a(umm_initialize.o)
 .comment       0x000000000000007e       0x7f NuttX/nuttx/mm/libmm.a(umm_sem.o)
 .comment       0x000000000000007e       0x7f NuttX/nuttx/mm/libmm.a(umm_free.o)
 .comment       0x000000000000007e       0x7f NuttX/nuttx/mm/libmm.a(umm_malloc.o)
 .comment       0x000000000000007e       0x7f NuttX/nuttx/mm/libmm.a(umm_heapmember.o)
 .comment       0x000000000000007e       0x7f NuttX/nuttx/mm/libmm.a(mm_initialize.o)
 .comment       0x000000000000007e       0x7f NuttX/nuttx/mm/libmm.a(mm_free.o)
 .comment       0x000000000000007e       0x7f NuttX/nuttx/mm/libmm.a(mm_heapmember.o)
 .comment       0x000000000000007e       0x7f NuttX/nuttx/sched/libsched.a(sched_getfiles.o)
 .comment       0x000000000000007e       0x7f NuttX/nuttx/sched/libsched.a(sched_addreadytorun.o)
 .comment       0x000000000000007e       0x7f NuttX/nuttx/sched/libsched.a(sched_removereadytorun.o)
 .comment       0x000000000000007e       0x7f NuttX/nuttx/sched/libsched.a(sched_addprioritized.o)
 .comment       0x000000000000007e       0x7f NuttX/nuttx/sched/libsched.a(sched_mergepending.o)
 .comment       0x000000000000007e       0x7f NuttX/nuttx/sched/libsched.a(sched_addblocked.o)
 .comment       0x000000000000007e       0x7f NuttX/nuttx/sched/libsched.a(sched_removeblocked.o)
 .comment       0x000000000000007e       0x7f NuttX/nuttx/sched/libsched.a(sched_processtimer.o)
 .comment       0x000000000000007e       0x7f NuttX/nuttx/sched/libsched.a(sem_destroy.o)
 .comment       0x000000000000007e       0x7f NuttX/nuttx/sched/libsched.a(task_exit.o)
 .comment       0x000000000000007e       0x7f NuttX/nuttx/sched/libsched.a(task_terminate.o)
 .comment       0x000000000000007e       0x7f NuttX/nuttx/libs/libc/libc.a(dq_addlast.o)
 .comment       0x000000000000007e       0x7f NuttX/nuttx/libs/libc/libc.a(lib_strdup.o)
 .comment       0x000000000000007e       0x7f src/modules/px4iofirmware/libpx4iofirmware.a(px4io.c.obj)
 .comment       0x000000000000007e       0x7f src/modules/px4iofirmware/libpx4iofirmware.a(registers.c.obj)
 .comment       0x000000000000007e       0x7f src/modules/px4iofirmware/libpx4iofirmware.a(safety.c.obj)
 .comment       0x000000000000007e       0x7f src/modules/px4iofirmware/libpx4iofirmware.a(serial.c.obj)
 .comment       0x000000000000007e       0x7f src/modules/px4iofirmware/libpx4iofirmware.a(adc.c.obj)
 .comment       0x000000000000007e       0x7f src/modules/px4iofirmware/libpx4iofirmware.a(controls.c.obj)
 .comment       0x000000000000007e       0x7f src/modules/px4iofirmware/libpx4iofirmware.a(mixer.cpp.obj)
 .comment       0x000000000000007e       0x7f NuttX/apps/libapps.a(gnu_cxxinitialize.o)
 .comment       0x000000000000007e       0x7f platforms/nuttx/src/px4/stm/stm32f1/io_pins/libarch_io_pins.a(pwm_servo.c.obj)
 .comment       0x000000000000007e       0x7f platforms/nuttx/src/px4/stm/stm32f1/io_pins/libarch_io_pins.a(io_timer.c.obj)
 .comment       0x000000000000007e       0x7f src/lib/mixer/libmixer.a(MixerGroup.cpp.obj)
 .comment       0x000000000000007e       0x7f src/lib/mixer/HelicopterMixer/libHelicopterMixer.a(HelicopterMixer.cpp.obj)
 .comment       0x000000000000007e       0x7f src/lib/mixer/MultirotorMixer/libMultirotorMixer.a(MultirotorMixer.cpp.obj)
 .comment       0x000000000000007e       0x7f src/lib/mixer/NullMixer/libNullMixer.a(NullMixer.cpp.obj)
 .comment       0x000000000000007e       0x7f src/lib/mixer/SimpleMixer/libSimpleMixer.a(SimpleMixer.cpp.obj)
 .comment       0x000000000000007e       0x7f src/lib/mixer/MixerBase/libMixerBase.a(Mixer.cpp.obj)
 .comment       0x000000000000007e       0x7f src/lib/rc/librc.a(st24.cpp.obj)
 .comment       0x000000000000007e       0x7f src/lib/rc/librc.a(sumd.cpp.obj)
 .comment       0x000000000000007e       0x7f src/lib/rc/librc.a(sbus.cpp.obj)
 .comment       0x000000000000007e       0x7f src/lib/rc/librc.a(dsm.cpp.obj)
 .comment       0x000000000000007e       0x7f src/lib/rc/librc.a(common_rc.cpp.obj)
 .comment       0x000000000000007e       0x7f src/lib/output_limit/liboutput_limit.a(output_limit.cpp.obj)
 .comment       0x000000000000007e       0x7f NuttX/nuttx/arch/arm/src/libarch.a(up_systemreset.o)
 .comment       0x000000000000007e       0x7f NuttX/nuttx/arch/arm/src/libarch.a(up_udelay.o)
 .comment       0x000000000000007e       0x7f boards/px4/io-v2/src/libdrivers_board.a(init.c.obj)
 .comment       0x000000000000007e       0x7f boards/px4/io-v2/src/libdrivers_board.a(timer_config.cpp.obj)
 .comment       0x000000000000007e       0x7f platforms/nuttx/src/px4/stm/stm32f1/hrt/libarch_hrt.a(hrt.c.obj)
 .comment       0x000000000000007e       0x7f NuttX/nuttx/libs/libxx/libxx.a(libxx_eabi_atexit.o)
 .comment       0x000000000000007e       0x7f NuttX/nuttx/libs/libxx/libxx.a(libxx_cxa_atexit.o)
 .comment       0x000000000000007e       0x7f NuttX/nuttx/libs/libxx/libxx.a(libxx_delete.o)
 .comment       0x000000000000007e       0x7f NuttX/nuttx/libs/libxx/libxx.a(libxx_deletea.o)
 .comment       0x000000000000007e       0x7f NuttX/nuttx/libs/libxx/libxx.a(libxx_new.o)
 .comment       0x000000000000007e       0x7f NuttX/nuttx/libs/libxx/libxx.a(libxx_newa.o)
 .comment       0x000000000000007e       0x7f NuttX/nuttx/libs/libc/libc.a(lib_crc32.o)
 .comment       0x000000000000007e       0x7f NuttX/nuttx/libs/libc/libc.a(lib_printf.o)
 .comment       0x000000000000007e       0x7f NuttX/nuttx/libs/libc/libc.a(lib_vsnprintf.o)
 .comment       0x000000000000007e       0x7f NuttX/nuttx/libs/libc/libc.a(lib_memoutstream.o)
 .comment       0x000000000000007e       0x7f NuttX/nuttx/libs/libc/libc.a(lib_nulloutstream.o)
 .comment       0x000000000000007e       0x7f NuttX/nuttx/libs/libc/libc.a(lib_sscanf.o)
 .comment       0x000000000000007e       0x7f NuttX/nuttx/libs/libc/libc.a(lib_vsscanf.o)
 .comment       0x000000000000007e       0x7f NuttX/nuttx/libs/libc/libc.a(lib_libvscanf.o)
 .comment       0x000000000000007e       0x7f NuttX/nuttx/libs/libc/libc.a(lib_libnoflush.o)
 .comment       0x000000000000007e       0x7f NuttX/nuttx/libs/libc/libc.a(lib_libvsprintf.o)
 .comment       0x000000000000007e       0x7f NuttX/nuttx/libs/libc/libc.a(lib_ultoa_invert.o)
 .comment       0x000000000000007e       0x7f NuttX/nuttx/libs/libc/libc.a(lib_strtol.o)
 .comment       0x000000000000007e       0x7f NuttX/nuttx/libs/libc/libc.a(lib_strtoul.o)
 .comment       0x000000000000007e       0x7f NuttX/nuttx/libs/libc/libc.a(lib_checkbase.o)
 .comment       0x000000000000007e       0x7f NuttX/nuttx/libs/libc/libc.a(lib_isbasedigit.o)
 .comment       0x000000000000007e       0x7f NuttX/nuttx/libs/libc/libc.a(lib_memchr.o)
 .comment       0x000000000000007e       0x7f NuttX/nuttx/libs/libc/libc.a(lib_memmove.o)
 .comment       0x000000000000007e       0x7f NuttX/nuttx/libs/libc/libc.a(lib_skipspace.o)
 .comment       0x000000000000007e       0x7f NuttX/nuttx/libs/libc/libc.a(lib_strchr.o)
 .comment       0x000000000000007e       0x7f NuttX/nuttx/libs/libc/libc.a(lib_strcmp.o)
 .comment       0x000000000000007e       0x7f NuttX/nuttx/libs/libc/libc.a(lib_strnlen.o)
 .comment       0x000000000000007e       0x7f NuttX/nuttx/libs/libc/libc.a(lib_strncpy.o)
 .comment       0x000000000000007e       0x7f NuttX/nuttx/libs/libc/libc.a(lib_syslog.o)
 .comment       0x000000000000007e       0x7f NuttX/nuttx/libs/libc/libc.a(lib_setlogmask.o)
 .comment       0x000000000000007e       0x7f NuttX/nuttx/libs/libc/libc.a(lib_tcgetattr.o)
 .comment       0x000000000000007e       0x7f NuttX/nuttx/libs/libc/libc.a(lib_tcsetattr.o)
 .comment       0x000000000000007e       0x7f NuttX/nuttx/libs/libc/libc.a(lib_meminstream.o)
 .comment       0x000000000000007e       0x7f NuttX/nuttx/drivers/libdrivers.a(vsyslog.o)
 .comment       0x000000000000007e       0x7f NuttX/nuttx/drivers/libdrivers.a(syslog_stream.o)
 .comment       0x000000000000007e       0x7f NuttX/nuttx/drivers/libdrivers.a(syslog_emergstream.o)
 .comment       0x000000000000007e       0x7f NuttX/nuttx/drivers/libdrivers.a(syslog_putc.o)
 .comment       0x000000000000007e       0x7f NuttX/nuttx/drivers/libdrivers.a(syslog_force.o)
 .comment       0x000000000000007e       0x7f NuttX/nuttx/fs/libfs.a(fs_ioctl.o)
 .comment       0x000000000000007e       0x7f NuttX/nuttx/fs/libfs.a(fs_read.o)
 .comment       0x000000000000007e       0x7f NuttX/nuttx/mm/libmm.a(umm_mallinfo.o)
 .comment       0x000000000000007e       0x7f NuttX/nuttx/mm/libmm.a(mm_mallinfo.o)

.ARM.attributes
                0x0000000000000000       0x31
 .ARM.attributes
                0x0000000000000000       0x33 NuttX/nuttx/arch/arm/src/libarch.a(stm32_start.o)
 .ARM.attributes
                0x0000000000000033       0x33 NuttX/nuttx/arch/arm/src/libarch.a(stm32_rcc.o)
 .ARM.attributes
                0x0000000000000066       0x33 NuttX/nuttx/arch/arm/src/libarch.a(stm32_gpio.o)
 .ARM.attributes
                0x0000000000000099       0x33 NuttX/nuttx/arch/arm/src/libarch.a(stm32_lowputc.o)
 .ARM.attributes
                0x00000000000000cc       0x33 NuttX/nuttx/arch/arm/src/libarch.a(stm32_serial.o)
 .ARM.attributes
                0x00000000000000ff       0x33 NuttX/nuttx/arch/arm/src/libarch.a(up_modifyreg32.o)
 .ARM.attributes
                0x0000000000000132       0x33 NuttX/nuttx/arch/arm/src/libarch.a(up_vectors.o)
 .ARM.attributes
                0x0000000000000165       0x21 NuttX/nuttx/arch/arm/src/libarch.a(up_exception.o)
 .ARM.attributes
                0x0000000000000186       0x33 NuttX/nuttx/arch/arm/src/libarch.a(stm32_irq.o)
 .ARM.attributes
                0x00000000000001b9       0x33 NuttX/nuttx/arch/arm/src/libarch.a(stm32_dma.o)
 .ARM.attributes
                0x00000000000001ec       0x33 NuttX/nuttx/arch/arm/src/libarch.a(up_hardfault.o)
 .ARM.attributes
                0x000000000000021f       0x33 NuttX/nuttx/arch/arm/src/libarch.a(up_svcall.o)
 .ARM.attributes
                0x0000000000000252       0x33 NuttX/nuttx/arch/arm/src/libarch.a(up_doirq.o)
 .ARM.attributes
                0x0000000000000285       0x33 NuttX/nuttx/arch/arm/src/libarch.a(up_assert.o)
 .ARM.attributes
                0x00000000000002b8       0x33 NuttX/nuttx/arch/arm/src/libarch.a(up_interruptcontext.o)
 .ARM.attributes
                0x00000000000002eb       0x33 NuttX/nuttx/libs/libc/libc.a(sem_init.o)
 .ARM.attributes
                0x000000000000031e       0x33 NuttX/nuttx/libs/libc/libc.a(lib_abort.o)
 .ARM.attributes
                0x0000000000000351       0x33 NuttX/nuttx/libs/libc/libc.a(lib_strcpy.o)
 .ARM.attributes
                0x0000000000000384       0x33 NuttX/nuttx/libs/libc/libc.a(lib_memcpy.o)
 .ARM.attributes
                0x00000000000003b7       0x33 NuttX/nuttx/libs/libc/libc.a(lib_cfgetspeed.o)
 .ARM.attributes
                0x00000000000003ea       0x33 NuttX/nuttx/libs/libc/libc.a(lib_cfsetspeed.o)
 .ARM.attributes
                0x000000000000041d       0x33 NuttX/nuttx/drivers/libdrivers.a(serial.o)
 .ARM.attributes
                0x0000000000000450       0x33 NuttX/nuttx/drivers/libdrivers.a(serial_io.o)
 .ARM.attributes
                0x0000000000000483       0x33 NuttX/nuttx/drivers/libdrivers.a(syslog_flush.o)
 .ARM.attributes
                0x00000000000004b6       0x33 NuttX/nuttx/drivers/libdrivers.a(syslog_channel.o)
 .ARM.attributes
                0x00000000000004e9       0x33 NuttX/nuttx/fs/libfs.a(fs_registerdriver.o)
 .ARM.attributes
                0x000000000000051c       0x33 NuttX/nuttx/fs/libfs.a(fs_inode.o)
 .ARM.attributes
                0x000000000000054f       0x33 NuttX/nuttx/fs/libfs.a(fs_inodereserve.o)
 .ARM.attributes
                0x0000000000000582       0x33 NuttX/nuttx/fs/libfs.a(fs_inodesearch.o)
 .ARM.attributes
                0x00000000000005b5       0x33 NuttX/nuttx/mm/libmm.a(umm_zalloc.o)
 .ARM.attributes
                0x00000000000005e8       0x33 NuttX/nuttx/mm/libmm.a(umm_globals.o)
 .ARM.attributes
                0x000000000000061b       0x33 NuttX/nuttx/mm/libmm.a(mm_zalloc.o)
 .ARM.attributes
                0x000000000000064e       0x33 NuttX/nuttx/mm/libmm.a(mm_malloc.o)
 .ARM.attributes
                0x0000000000000681       0x33 NuttX/nuttx/mm/libmm.a(mm_sem.o)
 .ARM.attributes
                0x00000000000006b4       0x33 NuttX/nuttx/mm/libmm.a(mm_addfreechunk.o)
 .ARM.attributes
                0x00000000000006e7       0x33 NuttX/nuttx/mm/libmm.a(mm_size2ndx.o)
 .ARM.attributes
                0x000000000000071a       0x33 NuttX/nuttx/sched/libsched.a(clock_initialize.o)
 .ARM.attributes
                0x000000000000074d       0x33 NuttX/nuttx/sched/libsched.a(clock_ticks2time.o)
 .ARM.attributes
                0x0000000000000780       0x33 NuttX/nuttx/sched/libsched.a(errno_getptr.o)
 .ARM.attributes
                0x00000000000007b3       0x33 NuttX/nuttx/sched/libsched.a(nx_start.o)
 .ARM.attributes
                0x00000000000007e6       0x33 NuttX/nuttx/sched/libsched.a(nx_bringup.o)
 .ARM.attributes
                0x0000000000000819       0x33 NuttX/nuttx/sched/libsched.a(irq_attach.o)
 .ARM.attributes
                0x000000000000084c       0x33 NuttX/nuttx/sched/libsched.a(irq_dispatch.o)
 .ARM.attributes
                0x000000000000087f       0x33 NuttX/nuttx/sched/libsched.a(irq_unexpectedisr.o)
 .ARM.attributes
                0x00000000000008b2       0x33 NuttX/nuttx/sched/libsched.a(sched_garbage.o)
 .ARM.attributes
                0x00000000000008e5       0x33 NuttX/nuttx/sched/libsched.a(sched_idletask.o)
 .ARM.attributes
                0x0000000000000918       0x33 NuttX/nuttx/sched/libsched.a(sem_wait.o)
 .ARM.attributes
                0x000000000000094b       0x33 NuttX/nuttx/sched/libsched.a(sem_trywait.o)
 .ARM.attributes
                0x000000000000097e       0x33 NuttX/nuttx/sched/libsched.a(sem_post.o)
 .ARM.attributes
                0x00000000000009b1       0x33 NuttX/nuttx/sched/libsched.a(sem_reset.o)
 .ARM.attributes
                0x00000000000009e4       0x33 NuttX/nuttx/sched/libsched.a(sig_usleep.o)
 .ARM.attributes
                0x0000000000000a17       0x33 NuttX/nuttx/sched/libsched.a(task_create.o)
 .ARM.attributes
                0x0000000000000a4a       0x33 NuttX/nuttx/sched/libsched.a(task_setup.o)
 .ARM.attributes
                0x0000000000000a7d       0x33 NuttX/nuttx/sched/libsched.a(task_activate.o)
 .ARM.attributes
                0x0000000000000ab0       0x33 NuttX/nuttx/sched/libsched.a(task_start.o)
 .ARM.attributes
                0x0000000000000ae3       0x33 NuttX/nuttx/sched/libsched.a(task_getpid.o)
 .ARM.attributes
                0x0000000000000b16       0x33 NuttX/nuttx/sched/libsched.a(exit.o)
 .ARM.attributes
                0x0000000000000b49       0x33 NuttX/nuttx/sched/libsched.a(group_create.o)
 .ARM.attributes
                0x0000000000000b7c       0x33 NuttX/nuttx/sched/libsched.a(group_setupidlefiles.o)
 .ARM.attributes
                0x0000000000000baf       0x33 NuttX/nuttx/sched/libsched.a(group_setuptaskfiles.o)
 .ARM.attributes
                0x0000000000000be2       0x33 NuttX/nuttx/sched/libsched.a(irq_initialize.o)
 .ARM.attributes
                0x0000000000000c15       0x33 NuttX/nuttx/sched/libsched.a(sched_releasetcb.o)
 .ARM.attributes
                0x0000000000000c48       0x33 NuttX/nuttx/sched/libsched.a(sched_lock.o)
 .ARM.attributes
                0x0000000000000c7b       0x33 NuttX/nuttx/sched/libsched.a(sched_unlock.o)
 .ARM.attributes
                0x0000000000000cae       0x33 NuttX/nuttx/sched/libsched.a(sig_procmask.o)
 .ARM.attributes
                0x0000000000000ce1       0x33 NuttX/nuttx/sched/libsched.a(sig_unmaskpendingsignal.o)
 .ARM.attributes
                0x0000000000000d14       0x33 NuttX/nuttx/sched/libsched.a(sig_removependingsignal.o)
 .ARM.attributes
                0x0000000000000d47       0x33 NuttX/nuttx/sched/libsched.a(sig_releasependingsignal.o)
 .ARM.attributes
                0x0000000000000d7a       0x33 NuttX/nuttx/sched/libsched.a(sig_lowest.o)
 .ARM.attributes
                0x0000000000000dad       0x33 NuttX/nuttx/sched/libsched.a(sig_dispatch.o)
 .ARM.attributes
                0x0000000000000de0       0x33 NuttX/nuttx/sched/libsched.a(sig_deliver.o)
 .ARM.attributes
                0x0000000000000e13       0x33 NuttX/nuttx/sched/libsched.a(sig_nanosleep.o)
 .ARM.attributes
                0x0000000000000e46       0x33 NuttX/nuttx/sched/libsched.a(task_exithook.o)
 .ARM.attributes
                0x0000000000000e79       0x33 NuttX/nuttx/sched/libsched.a(task_recover.o)
 .ARM.attributes
                0x0000000000000eac       0x33 NuttX/nuttx/sched/libsched.a(wd_recover.o)
 .ARM.attributes
                0x0000000000000edf       0x33 NuttX/nuttx/sched/libsched.a(clock_time2ticks.o)
 .ARM.attributes
                0x0000000000000f12       0x33 NuttX/nuttx/sched/libsched.a(group_leave.o)
 .ARM.attributes
                0x0000000000000f45       0x33 NuttX/nuttx/sched/libsched.a(sched_free.o)
 .ARM.attributes
                0x0000000000000f78       0x33 NuttX/nuttx/sched/libsched.a(sched_gettcb.o)
 .ARM.attributes
                0x0000000000000fab       0x33 NuttX/nuttx/sched/libsched.a(sem_recover.o)
 .ARM.attributes
                0x0000000000000fde       0x33 NuttX/nuttx/sched/libsched.a(sem_waitirq.o)
 .ARM.attributes
                0x0000000000001011       0x33 NuttX/nuttx/sched/libsched.a(sig_initialize.o)
 .ARM.attributes
                0x0000000000001044       0x33 NuttX/nuttx/sched/libsched.a(sig_pending.o)
 .ARM.attributes
                0x0000000000001077       0x33 NuttX/nuttx/sched/libsched.a(sig_timedwait.o)
 .ARM.attributes
                0x00000000000010aa       0x33 NuttX/nuttx/sched/libsched.a(sig_findaction.o)
 .ARM.attributes
                0x00000000000010dd       0x33 NuttX/nuttx/sched/libsched.a(sig_allocpendingsigaction.o)
 .ARM.attributes
                0x0000000000001110       0x33 NuttX/nuttx/sched/libsched.a(sig_releasependingsigaction.o)
 .ARM.attributes
                0x0000000000001143       0x33 NuttX/nuttx/sched/libsched.a(sig_cleanup.o)
 .ARM.attributes
                0x0000000000001176       0x33 NuttX/nuttx/sched/libsched.a(wd_create.o)
 .ARM.attributes
                0x00000000000011a9       0x33 NuttX/nuttx/sched/libsched.a(wd_start.o)
 .ARM.attributes
                0x00000000000011dc       0x33 NuttX/nuttx/sched/libsched.a(wd_cancel.o)
 .ARM.attributes
                0x000000000000120f       0x33 NuttX/nuttx/sched/libsched.a(wd_delete.o)
 .ARM.attributes
                0x0000000000001242       0x33 NuttX/nuttx/sched/libsched.a(sig_action.o)
 .ARM.attributes
                0x0000000000001275       0x33 NuttX/nuttx/sched/libsched.a(wd_initialize.o)
 .ARM.attributes
                0x00000000000012a8       0x33 NuttX/nuttx/arch/arm/src/libarch.a(stm32_allocateheap.o)
 .ARM.attributes
                0x00000000000012db       0x33 NuttX/nuttx/arch/arm/src/libarch.a(stm32_idle.o)
 .ARM.attributes
                0x000000000000130e       0x33 NuttX/nuttx/arch/arm/src/libarch.a(up_blocktask.o)
 .ARM.attributes
                0x0000000000001341       0x33 NuttX/nuttx/arch/arm/src/libarch.a(up_copyfullstate.o)
 .ARM.attributes
                0x0000000000001374       0x33 NuttX/nuttx/arch/arm/src/libarch.a(up_createstack.o)
 .ARM.attributes
                0x00000000000013a7       0x33 NuttX/nuttx/arch/arm/src/libarch.a(up_exit.o)
 .ARM.attributes
                0x00000000000013da       0x33 NuttX/nuttx/arch/arm/src/libarch.a(up_initialize.o)
 .ARM.attributes
                0x000000000000140d       0x33 NuttX/nuttx/arch/arm/src/libarch.a(up_initialstate.o)
 .ARM.attributes
                0x0000000000001440       0x33 NuttX/nuttx/arch/arm/src/libarch.a(up_releasepending.o)
 .ARM.attributes
                0x0000000000001473       0x33 NuttX/nuttx/arch/arm/src/libarch.a(up_releasestack.o)
 .ARM.attributes
                0x00000000000014a6       0x33 NuttX/nuttx/arch/arm/src/libarch.a(up_schedulesigaction.o)
 .ARM.attributes
                0x00000000000014d9       0x33 NuttX/nuttx/arch/arm/src/libarch.a(up_sigdeliver.o)
 .ARM.attributes
                0x000000000000150c       0x33 NuttX/nuttx/arch/arm/src/libarch.a(up_stackframe.o)
 .ARM.attributes
                0x000000000000153f       0x33 NuttX/nuttx/arch/arm/src/libarch.a(up_unblocktask.o)
 .ARM.attributes
                0x0000000000001572       0x21 NuttX/nuttx/arch/arm/src/libarch.a(up_fullcontextrestore.o)
 .ARM.attributes
                0x0000000000001593       0x21 NuttX/nuttx/arch/arm/src/libarch.a(up_switchcontext.o)
 .ARM.attributes
                0x00000000000015b4       0x33 NuttX/nuttx/arch/arm/src/libarch.a(stm32_timerisr.o)
 .ARM.attributes
                0x00000000000015e7       0x33 NuttX/nuttx/libs/libc/libc.a(sq_addlast.o)
 .ARM.attributes
                0x000000000000161a       0x33 NuttX/nuttx/libs/libc/libc.a(sq_addfirst.o)
 .ARM.attributes
                0x000000000000164d       0x33 NuttX/nuttx/libs/libc/libc.a(sq_addafter.o)
 .ARM.attributes
                0x0000000000001680       0x33 NuttX/nuttx/libs/libc/libc.a(sq_rem.o)
 .ARM.attributes
                0x00000000000016b3       0x33 NuttX/nuttx/libs/libc/libc.a(sq_remfirst.o)
 .ARM.attributes
                0x00000000000016e6       0x33 NuttX/nuttx/libs/libc/libc.a(sq_remafter.o)
 .ARM.attributes
                0x0000000000001719       0x33 NuttX/nuttx/libs/libc/libc.a(dq_addfirst.o)
 .ARM.attributes
                0x000000000000174c       0x33 NuttX/nuttx/libs/libc/libc.a(dq_rem.o)
 .ARM.attributes
                0x000000000000177f       0x33 NuttX/nuttx/libs/libc/libc.a(sem_getvalue.o)
 .ARM.attributes
                0x00000000000017b2       0x33 NuttX/nuttx/libs/libc/libc.a(sem_setprotocol.o)
 .ARM.attributes
                0x00000000000017e5       0x33 NuttX/nuttx/libs/libc/libc.a(sig_addset.o)
 .ARM.attributes
                0x0000000000001818       0x33 NuttX/nuttx/libs/libc/libc.a(sig_delset.o)
 .ARM.attributes
                0x000000000000184b       0x33 NuttX/nuttx/libs/libc/libc.a(sig_emptyset.o)
 .ARM.attributes
                0x000000000000187e       0x33 NuttX/nuttx/libs/libc/libc.a(sig_ismember.o)
 .ARM.attributes
                0x00000000000018b1       0x33 NuttX/nuttx/libs/libc/libc.a(lib_memset.o)
 .ARM.attributes
                0x00000000000018e4       0x33 NuttX/nuttx/libs/libc/libc.a(lib_strlen.o)
 .ARM.attributes
                0x0000000000001917       0x33 NuttX/nuttx/libs/libc/libc.a(lib_calendar2utc.o)
 .ARM.attributes
                0x000000000000194a       0x33 NuttX/nuttx/libs/libc/libc.a(lib_daysbeforemonth.o)
 .ARM.attributes
                0x000000000000197d       0x33 NuttX/nuttx/libs/libc/libc.a(lib_isleapyear.o)
 .ARM.attributes
                0x00000000000019b0       0x33 NuttX/nuttx/drivers/libdrivers.a(syslog_initialize.o)
 .ARM.attributes
                0x00000000000019e3       0x33 NuttX/nuttx/drivers/libdrivers.a(syslog_consolechannel.o)
 .ARM.attributes
                0x0000000000001a16       0x33 NuttX/nuttx/drivers/libdrivers.a(syslog_device.o)
 .ARM.attributes
                0x0000000000001a49       0x33 NuttX/nuttx/fs/libfs.a(fs_initialize.o)
 .ARM.attributes
                0x0000000000001a7c       0x33 NuttX/nuttx/fs/libfs.a(fs_files.o)
 .ARM.attributes
                0x0000000000001aaf       0x33 NuttX/nuttx/fs/libfs.a(fs_inodeaddref.o)
 .ARM.attributes
                0x0000000000001ae2       0x33 NuttX/nuttx/fs/libfs.a(fs_inoderelease.o)
 .ARM.attributes
                0x0000000000001b15       0x33 NuttX/nuttx/fs/libfs.a(fs_fileopen.o)
 .ARM.attributes
                0x0000000000001b48       0x33 NuttX/nuttx/fs/libfs.a(fs_filedetach.o)
 .ARM.attributes
                0x0000000000001b7b       0x33 NuttX/nuttx/fs/libfs.a(fs_close.o)
 .ARM.attributes
                0x0000000000001bae       0x33 NuttX/nuttx/fs/libfs.a(fs_dupfd2.o)
 .ARM.attributes
                0x0000000000001be1       0x33 NuttX/nuttx/fs/libfs.a(fs_getfilep.o)
 .ARM.attributes
                0x0000000000001c14       0x33 NuttX/nuttx/fs/libfs.a(fs_open.o)
 .ARM.attributes
                0x0000000000001c47       0x33 NuttX/nuttx/fs/libfs.a(fs_write.o)
 .ARM.attributes
                0x0000000000001c7a       0x33 NuttX/nuttx/fs/libfs.a(fs_inodefind.o)
 .ARM.attributes
                0x0000000000001cad       0x33 NuttX/nuttx/fs/libfs.a(fs_inodefree.o)
 .ARM.attributes
                0x0000000000001ce0       0x33 NuttX/nuttx/mm/libmm.a(umm_initialize.o)
 .ARM.attributes
                0x0000000000001d13       0x33 NuttX/nuttx/mm/libmm.a(umm_sem.o)
 .ARM.attributes
                0x0000000000001d46       0x33 NuttX/nuttx/mm/libmm.a(umm_free.o)
 .ARM.attributes
                0x0000000000001d79       0x33 NuttX/nuttx/mm/libmm.a(umm_malloc.o)
 .ARM.attributes
                0x0000000000001dac       0x33 NuttX/nuttx/mm/libmm.a(umm_heapmember.o)
 .ARM.attributes
                0x0000000000001ddf       0x33 NuttX/nuttx/mm/libmm.a(mm_initialize.o)
 .ARM.attributes
                0x0000000000001e12       0x33 NuttX/nuttx/mm/libmm.a(mm_free.o)
 .ARM.attributes
                0x0000000000001e45       0x33 NuttX/nuttx/mm/libmm.a(mm_heapmember.o)
 .ARM.attributes
                0x0000000000001e78       0x33 NuttX/nuttx/sched/libsched.a(sched_getfiles.o)
 .ARM.attributes
                0x0000000000001eab       0x33 NuttX/nuttx/sched/libsched.a(sched_addreadytorun.o)
 .ARM.attributes
                0x0000000000001ede       0x33 NuttX/nuttx/sched/libsched.a(sched_removereadytorun.o)
 .ARM.attributes
                0x0000000000001f11       0x33 NuttX/nuttx/sched/libsched.a(sched_addprioritized.o)
 .ARM.attributes
                0x0000000000001f44       0x33 NuttX/nuttx/sched/libsched.a(sched_mergepending.o)
 .ARM.attributes
                0x0000000000001f77       0x33 NuttX/nuttx/sched/libsched.a(sched_addblocked.o)
 .ARM.attributes
                0x0000000000001faa       0x33 NuttX/nuttx/sched/libsched.a(sched_removeblocked.o)
 .ARM.attributes
                0x0000000000001fdd       0x33 NuttX/nuttx/sched/libsched.a(sched_processtimer.o)
 .ARM.attributes
                0x0000000000002010       0x33 NuttX/nuttx/sched/libsched.a(sem_destroy.o)
 .ARM.attributes
                0x0000000000002043       0x33 NuttX/nuttx/sched/libsched.a(task_exit.o)
 .ARM.attributes
                0x0000000000002076       0x33 NuttX/nuttx/sched/libsched.a(task_terminate.o)
 .ARM.attributes
                0x00000000000020a9       0x33 NuttX/nuttx/libs/libc/libc.a(dq_addlast.o)
 .ARM.attributes
                0x00000000000020dc       0x33 NuttX/nuttx/libs/libc/libc.a(lib_strdup.o)
 .ARM.attributes
                0x000000000000210f       0x1d /opt/gcc-arm-none-eabi-7-2017-q4-major/bin/../lib/gcc/arm-none-eabi/7.2.1/thumb/v7-m/libgcc.a(_aeabi_ldivmod.o)
 .ARM.attributes
                0x000000000000212c       0x1d /opt/gcc-arm-none-eabi-7-2017-q4-major/bin/../lib/gcc/arm-none-eabi/7.2.1/thumb/v7-m/libgcc.a(_aeabi_uldivmod.o)
 .ARM.attributes
                0x0000000000002149       0x2d /opt/gcc-arm-none-eabi-7-2017-q4-major/bin/../lib/gcc/arm-none-eabi/7.2.1/thumb/v7-m/libgcc.a(_udivmoddi4.o)
 .ARM.attributes
                0x0000000000002176       0x1d /opt/gcc-arm-none-eabi-7-2017-q4-major/bin/../lib/gcc/arm-none-eabi/7.2.1/thumb/v7-m/libgcc.a(_dvmd_tls.o)
 .ARM.attributes
                0x0000000000002193       0x33 src/modules/px4iofirmware/libpx4iofirmware.a(px4io.c.obj)
 .ARM.attributes
                0x00000000000021c6       0x33 src/modules/px4iofirmware/libpx4iofirmware.a(registers.c.obj)
 .ARM.attributes
                0x00000000000021f9       0x33 src/modules/px4iofirmware/libpx4iofirmware.a(safety.c.obj)
 .ARM.attributes
                0x000000000000222c       0x33 src/modules/px4iofirmware/libpx4iofirmware.a(serial.c.obj)
 .ARM.attributes
                0x000000000000225f       0x33 src/modules/px4iofirmware/libpx4iofirmware.a(adc.c.obj)
 .ARM.attributes
                0x0000000000002292       0x33 src/modules/px4iofirmware/libpx4iofirmware.a(controls.c.obj)
 .ARM.attributes
                0x00000000000022c5       0x33 src/modules/px4iofirmware/libpx4iofirmware.a(mixer.cpp.obj)
 .ARM.attributes
                0x00000000000022f8       0x33 NuttX/apps/libapps.a(gnu_cxxinitialize.o)
 .ARM.attributes
                0x000000000000232b       0x33 platforms/nuttx/src/px4/stm/stm32f1/io_pins/libarch_io_pins.a(pwm_servo.c.obj)
 .ARM.attributes
                0x000000000000235e       0x33 platforms/nuttx/src/px4/stm/stm32f1/io_pins/libarch_io_pins.a(io_timer.c.obj)
 .ARM.attributes
                0x0000000000002391       0x33 src/lib/mixer/libmixer.a(MixerGroup.cpp.obj)
 .ARM.attributes
                0x00000000000023c4       0x33 src/lib/mixer/HelicopterMixer/libHelicopterMixer.a(HelicopterMixer.cpp.obj)
 .ARM.attributes
                0x00000000000023f7       0x33 src/lib/mixer/MultirotorMixer/libMultirotorMixer.a(MultirotorMixer.cpp.obj)
 .ARM.attributes
                0x000000000000242a       0x33 src/lib/mixer/NullMixer/libNullMixer.a(NullMixer.cpp.obj)
 .ARM.attributes
                0x000000000000245d       0x33 src/lib/mixer/SimpleMixer/libSimpleMixer.a(SimpleMixer.cpp.obj)
 .ARM.attributes
                0x0000000000002490       0x33 src/lib/mixer/MixerBase/libMixerBase.a(Mixer.cpp.obj)
 .ARM.attributes
                0x00000000000024c3       0x33 src/lib/rc/librc.a(st24.cpp.obj)
 .ARM.attributes
                0x00000000000024f6       0x33 src/lib/rc/librc.a(sumd.cpp.obj)
 .ARM.attributes
                0x0000000000002529       0x33 src/lib/rc/librc.a(sbus.cpp.obj)
 .ARM.attributes
                0x000000000000255c       0x33 src/lib/rc/librc.a(dsm.cpp.obj)
 .ARM.attributes
                0x000000000000258f       0x33 src/lib/rc/librc.a(common_rc.cpp.obj)
 .ARM.attributes
                0x00000000000025c2       0x33 src/lib/output_limit/liboutput_limit.a(output_limit.cpp.obj)
 .ARM.attributes
                0x00000000000025f5       0x33 NuttX/nuttx/arch/arm/src/libarch.a(up_systemreset.o)
 .ARM.attributes
                0x0000000000002628       0x33 NuttX/nuttx/arch/arm/src/libarch.a(up_udelay.o)
 .ARM.attributes
                0x000000000000265b       0x33 boards/px4/io-v2/src/libdrivers_board.a(init.c.obj)
 .ARM.attributes
                0x000000000000268e       0x33 boards/px4/io-v2/src/libdrivers_board.a(timer_config.cpp.obj)
 .ARM.attributes
                0x00000000000026c1       0x33 platforms/nuttx/src/px4/stm/stm32f1/hrt/libarch_hrt.a(hrt.c.obj)
 .ARM.attributes
                0x00000000000026f4       0x33 NuttX/nuttx/libs/libxx/libxx.a(libxx_eabi_atexit.o)
 .ARM.attributes
                0x0000000000002727       0x33 NuttX/nuttx/libs/libxx/libxx.a(libxx_cxa_atexit.o)
 .ARM.attributes
                0x000000000000275a       0x33 NuttX/nuttx/libs/libxx/libxx.a(libxx_delete.o)
 .ARM.attributes
                0x000000000000278d       0x33 NuttX/nuttx/libs/libxx/libxx.a(libxx_deletea.o)
 .ARM.attributes
                0x00000000000027c0       0x33 NuttX/nuttx/libs/libxx/libxx.a(libxx_new.o)
 .ARM.attributes
                0x00000000000027f3       0x33 NuttX/nuttx/libs/libxx/libxx.a(libxx_newa.o)
 .ARM.attributes
                0x0000000000002826       0x33 NuttX/nuttx/libs/libc/libc.a(lib_crc32.o)
 .ARM.attributes
                0x0000000000002859       0x33 NuttX/nuttx/libs/libc/libc.a(lib_printf.o)
 .ARM.attributes
                0x000000000000288c       0x33 NuttX/nuttx/libs/libc/libc.a(lib_vsnprintf.o)
 .ARM.attributes
                0x00000000000028bf       0x33 NuttX/nuttx/libs/libc/libc.a(lib_memoutstream.o)
 .ARM.attributes
                0x00000000000028f2       0x33 NuttX/nuttx/libs/libc/libc.a(lib_nulloutstream.o)
 .ARM.attributes
                0x0000000000002925       0x33 NuttX/nuttx/libs/libc/libc.a(lib_sscanf.o)
 .ARM.attributes
                0x0000000000002958       0x33 NuttX/nuttx/libs/libc/libc.a(lib_vsscanf.o)
 .ARM.attributes
                0x000000000000298b       0x33 NuttX/nuttx/libs/libc/libc.a(lib_libvscanf.o)
 .ARM.attributes
                0x00000000000029be       0x33 NuttX/nuttx/libs/libc/libc.a(lib_libnoflush.o)
 .ARM.attributes
                0x00000000000029f1       0x33 NuttX/nuttx/libs/libc/libc.a(lib_libvsprintf.o)
 .ARM.attributes
                0x0000000000002a24       0x33 NuttX/nuttx/libs/libc/libc.a(lib_ultoa_invert.o)
 .ARM.attributes
                0x0000000000002a57       0x33 NuttX/nuttx/libs/libc/libc.a(lib_strtol.o)
 .ARM.attributes
                0x0000000000002a8a       0x33 NuttX/nuttx/libs/libc/libc.a(lib_strtoul.o)
 .ARM.attributes
                0x0000000000002abd       0x33 NuttX/nuttx/libs/libc/libc.a(lib_checkbase.o)
 .ARM.attributes
                0x0000000000002af0       0x33 NuttX/nuttx/libs/libc/libc.a(lib_isbasedigit.o)
 .ARM.attributes
                0x0000000000002b23       0x33 NuttX/nuttx/libs/libc/libc.a(lib_memchr.o)
 .ARM.attributes
                0x0000000000002b56       0x33 NuttX/nuttx/libs/libc/libc.a(lib_memmove.o)
 .ARM.attributes
                0x0000000000002b89       0x33 NuttX/nuttx/libs/libc/libc.a(lib_skipspace.o)
 .ARM.attributes
                0x0000000000002bbc       0x33 NuttX/nuttx/libs/libc/libc.a(lib_strchr.o)
 .ARM.attributes
                0x0000000000002bef       0x33 NuttX/nuttx/libs/libc/libc.a(lib_strcmp.o)
 .ARM.attributes
                0x0000000000002c22       0x33 NuttX/nuttx/libs/libc/libc.a(lib_strnlen.o)
 .ARM.attributes
                0x0000000000002c55       0x33 NuttX/nuttx/libs/libc/libc.a(lib_strncpy.o)
 .ARM.attributes
                0x0000000000002c88       0x33 NuttX/nuttx/libs/libc/libc.a(lib_syslog.o)
 .ARM.attributes
                0x0000000000002cbb       0x33 NuttX/nuttx/libs/libc/libc.a(lib_setlogmask.o)
 .ARM.attributes
                0x0000000000002cee       0x33 NuttX/nuttx/libs/libc/libc.a(lib_tcgetattr.o)
 .ARM.attributes
                0x0000000000002d21       0x33 NuttX/nuttx/libs/libc/libc.a(lib_tcsetattr.o)
 .ARM.attributes
                0x0000000000002d54       0x33 NuttX/nuttx/libs/libc/libc.a(lib_meminstream.o)
 .ARM.attributes
                0x0000000000002d87       0x33 NuttX/nuttx/drivers/libdrivers.a(vsyslog.o)
 .ARM.attributes
                0x0000000000002dba       0x33 NuttX/nuttx/drivers/libdrivers.a(syslog_stream.o)
 .ARM.attributes
                0x0000000000002ded       0x33 NuttX/nuttx/drivers/libdrivers.a(syslog_emergstream.o)
 .ARM.attributes
                0x0000000000002e20       0x33 NuttX/nuttx/drivers/libdrivers.a(syslog_putc.o)
 .ARM.attributes
                0x0000000000002e53       0x33 NuttX/nuttx/drivers/libdrivers.a(syslog_force.o)
 .ARM.attributes
                0x0000000000002e86       0x33 NuttX/nuttx/fs/libfs.a(fs_ioctl.o)
 .ARM.attributes
                0x0000000000002eb9       0x33 NuttX/nuttx/fs/libfs.a(fs_read.o)
 .ARM.attributes
                0x0000000000002eec       0x33 NuttX/nuttx/mm/libmm.a(umm_mallinfo.o)
 .ARM.attributes
                0x0000000000002f1f       0x33 NuttX/nuttx/mm/libmm.a(mm_mallinfo.o)
 .ARM.attributes
                0x0000000000002f52       0x2d /opt/gcc-arm-none-eabi-7-2017-q4-major/bin/../lib/gcc/arm-none-eabi/7.2.1/../../../../arm-none-eabi/lib/thumb/v7-m/libm.a(lib_a-sf_cos.o)
 .ARM.attributes
                0x0000000000002f7f       0x2d /opt/gcc-arm-none-eabi-7-2017-q4-major/bin/../lib/gcc/arm-none-eabi/7.2.1/../../../../arm-none-eabi/lib/thumb/v7-m/libm.a(lib_a-sf_floor.o)
 .ARM.attributes
                0x0000000000002fac       0x2d /opt/gcc-arm-none-eabi-7-2017-q4-major/bin/../lib/gcc/arm-none-eabi/7.2.1/../../../../arm-none-eabi/lib/thumb/v7-m/libm.a(lib_a-sf_round.o)
 .ARM.attributes
                0x0000000000002fd9       0x2d /opt/gcc-arm-none-eabi-7-2017-q4-major/bin/../lib/gcc/arm-none-eabi/7.2.1/../../../../arm-none-eabi/lib/thumb/v7-m/libm.a(lib_a-sf_sin.o)
 .ARM.attributes
                0x0000000000003006       0x2d /opt/gcc-arm-none-eabi-7-2017-q4-major/bin/../lib/gcc/arm-none-eabi/7.2.1/../../../../arm-none-eabi/lib/thumb/v7-m/libm.a(lib_a-wf_sqrt.o)
 .ARM.attributes
                0x0000000000003033       0x2d /opt/gcc-arm-none-eabi-7-2017-q4-major/bin/../lib/gcc/arm-none-eabi/7.2.1/../../../../arm-none-eabi/lib/thumb/v7-m/libm.a(lib_a-ef_rem_pio2.o)
 .ARM.attributes
                0x0000000000003060       0x2d /opt/gcc-arm-none-eabi-7-2017-q4-major/bin/../lib/gcc/arm-none-eabi/7.2.1/../../../../arm-none-eabi/lib/thumb/v7-m/libm.a(lib_a-ef_sqrt.o)
 .ARM.attributes
                0x000000000000308d       0x2d /opt/gcc-arm-none-eabi-7-2017-q4-major/bin/../lib/gcc/arm-none-eabi/7.2.1/../../../../arm-none-eabi/lib/thumb/v7-m/libm.a(lib_a-kf_cos.o)
 .ARM.attributes
                0x00000000000030ba       0x2d /opt/gcc-arm-none-eabi-7-2017-q4-major/bin/../lib/gcc/arm-none-eabi/7.2.1/../../../../arm-none-eabi/lib/thumb/v7-m/libm.a(lib_a-kf_rem_pio2.o)
 .ARM.attributes
                0x00000000000030e7       0x2d /opt/gcc-arm-none-eabi-7-2017-q4-major/bin/../lib/gcc/arm-none-eabi/7.2.1/../../../../arm-none-eabi/lib/thumb/v7-m/libm.a(lib_a-kf_sin.o)
 .ARM.attributes
                0x0000000000003114       0x2d /opt/gcc-arm-none-eabi-7-2017-q4-major/bin/../lib/gcc/arm-none-eabi/7.2.1/../../../../arm-none-eabi/lib/thumb/v7-m/libm.a(lib_a-s_lib_ver.o)
 .ARM.attributes
                0x0000000000003141       0x2d /opt/gcc-arm-none-eabi-7-2017-q4-major/bin/../lib/gcc/arm-none-eabi/7.2.1/../../../../arm-none-eabi/lib/thumb/v7-m/libm.a(lib_a-s_matherr.o)
 .ARM.attributes
                0x000000000000316e       0x2d /opt/gcc-arm-none-eabi-7-2017-q4-major/bin/../lib/gcc/arm-none-eabi/7.2.1/../../../../arm-none-eabi/lib/thumb/v7-m/libm.a(lib_a-sf_fabs.o)
 .ARM.attributes
                0x000000000000319b       0x2d /opt/gcc-arm-none-eabi-7-2017-q4-major/bin/../lib/gcc/arm-none-eabi/7.2.1/../../../../arm-none-eabi/lib/thumb/v7-m/libm.a(lib_a-sf_scalbn.o)
 .ARM.attributes
                0x00000000000031c8       0x2d /opt/gcc-arm-none-eabi-7-2017-q4-major/bin/../lib/gcc/arm-none-eabi/7.2.1/../../../../arm-none-eabi/lib/thumb/v7-m/libm.a(lib_a-sf_copysign.o)
 .ARM.attributes
                0x00000000000031f5       0x1d /opt/gcc-arm-none-eabi-7-2017-q4-major/bin/../lib/gcc/arm-none-eabi/7.2.1/thumb/v7-m/libgcc.a(_arm_addsubdf3.o)
 .ARM.attributes
                0x0000000000003212       0x1d /opt/gcc-arm-none-eabi-7-2017-q4-major/bin/../lib/gcc/arm-none-eabi/7.2.1/thumb/v7-m/libgcc.a(_arm_muldivdf3.o)
 .ARM.attributes
                0x000000000000322f       0x1d /opt/gcc-arm-none-eabi-7-2017-q4-major/bin/../lib/gcc/arm-none-eabi/7.2.1/thumb/v7-m/libgcc.a(_arm_truncdfsf2.o)
 .ARM.attributes
                0x000000000000324c       0x1d /opt/gcc-arm-none-eabi-7-2017-q4-major/bin/../lib/gcc/arm-none-eabi/7.2.1/thumb/v7-m/libgcc.a(_arm_addsubsf3.o)
 .ARM.attributes
                0x0000000000003269       0x1d /opt/gcc-arm-none-eabi-7-2017-q4-major/bin/../lib/gcc/arm-none-eabi/7.2.1/thumb/v7-m/libgcc.a(_arm_muldivsf3.o)
 .ARM.attributes
                0x0000000000003286       0x1d /opt/gcc-arm-none-eabi-7-2017-q4-major/bin/../lib/gcc/arm-none-eabi/7.2.1/thumb/v7-m/libgcc.a(_arm_cmpsf2.o)
 .ARM.attributes
                0x00000000000032a3       0x1d /opt/gcc-arm-none-eabi-7-2017-q4-major/bin/../lib/gcc/arm-none-eabi/7.2.1/thumb/v7-m/libgcc.a(_arm_unordsf2.o)
 .ARM.attributes
                0x00000000000032c0       0x1d /opt/gcc-arm-none-eabi-7-2017-q4-major/bin/../lib/gcc/arm-none-eabi/7.2.1/thumb/v7-m/libgcc.a(_arm_fixsfsi.o)
 .ARM.attributes
                0x00000000000032dd       0x1d /opt/gcc-arm-none-eabi-7-2017-q4-major/bin/../lib/gcc/arm-none-eabi/7.2.1/thumb/v7-m/libgcc.a(_arm_fixunssfsi.o)

.debug_abbrev   0x0000000000000000    0x19f7c
 *(.debug_abbrev)
 .debug_abbrev  0x0000000000000000      0x15b NuttX/nuttx/arch/arm/src/libarch.a(stm32_start.o)
 .debug_abbrev  0x000000000000015b      0x17c NuttX/nuttx/arch/arm/src/libarch.a(stm32_rcc.o)
 .debug_abbrev  0x00000000000002d7      0x1ef NuttX/nuttx/arch/arm/src/libarch.a(stm32_gpio.o)
 .debug_abbrev  0x00000000000004c6      0x11d NuttX/nuttx/arch/arm/src/libarch.a(stm32_lowputc.o)
 .debug_abbrev  0x00000000000005e3      0x3b7 NuttX/nuttx/arch/arm/src/libarch.a(stm32_serial.o)
 .debug_abbrev  0x000000000000099a      0x179 NuttX/nuttx/arch/arm/src/libarch.a(up_modifyreg32.o)
 .debug_abbrev  0x0000000000000b13       0x8f NuttX/nuttx/arch/arm/src/libarch.a(up_vectors.o)
 .debug_abbrev  0x0000000000000ba2       0x14 NuttX/nuttx/arch/arm/src/libarch.a(up_exception.o)
 .debug_abbrev  0x0000000000000bb6      0x21e NuttX/nuttx/arch/arm/src/libarch.a(stm32_irq.o)
 .debug_abbrev  0x0000000000000dd4      0x336 NuttX/nuttx/arch/arm/src/libarch.a(stm32_dma.o)
 .debug_abbrev  0x000000000000110a      0x193 NuttX/nuttx/arch/arm/src/libarch.a(up_hardfault.o)
 .debug_abbrev  0x000000000000129d      0x118 NuttX/nuttx/arch/arm/src/libarch.a(up_svcall.o)
 .debug_abbrev  0x00000000000013b5      0x105 NuttX/nuttx/arch/arm/src/libarch.a(up_doirq.o)
 .debug_abbrev  0x00000000000014ba      0x285 NuttX/nuttx/arch/arm/src/libarch.a(up_assert.o)
 .debug_abbrev  0x000000000000173f       0x9c NuttX/nuttx/arch/arm/src/libarch.a(up_interruptcontext.o)
 .debug_abbrev  0x00000000000017db      0x13f NuttX/nuttx/libs/libc/libc.a(sem_init.o)
 .debug_abbrev  0x000000000000191a       0x9d NuttX/nuttx/libs/libc/libc.a(lib_abort.o)
 .debug_abbrev  0x00000000000019b7       0x83 NuttX/nuttx/libs/libc/libc.a(lib_strcpy.o)
 .debug_abbrev  0x0000000000001a3a       0xb1 NuttX/nuttx/libs/libc/libc.a(lib_memcpy.o)
 .debug_abbrev  0x0000000000001aeb       0xa2 NuttX/nuttx/libs/libc/libc.a(lib_cfgetspeed.o)
 .debug_abbrev  0x0000000000001b8d       0xaa NuttX/nuttx/libs/libc/libc.a(lib_cfsetspeed.o)
 .debug_abbrev  0x0000000000001c37      0x42b NuttX/nuttx/drivers/libdrivers.a(serial.o)
 .debug_abbrev  0x0000000000002062      0x1b9 NuttX/nuttx/drivers/libdrivers.a(serial_io.o)
 .debug_abbrev  0x000000000000221b       0xb5 NuttX/nuttx/drivers/libdrivers.a(syslog_flush.o)
 .debug_abbrev  0x00000000000022d0      0x106 NuttX/nuttx/drivers/libdrivers.a(syslog_channel.o)
 .debug_abbrev  0x00000000000023d6      0x1a7 NuttX/nuttx/fs/libfs.a(fs_registerdriver.o)
 .debug_abbrev  0x000000000000257d      0x1c9 NuttX/nuttx/fs/libfs.a(fs_inode.o)
 .debug_abbrev  0x0000000000002746      0x296 NuttX/nuttx/fs/libfs.a(fs_inodereserve.o)
 .debug_abbrev  0x00000000000029dc      0x20e NuttX/nuttx/fs/libfs.a(fs_inodesearch.o)
 .debug_abbrev  0x0000000000002bea      0x101 NuttX/nuttx/mm/libmm.a(umm_zalloc.o)
 .debug_abbrev  0x0000000000002ceb       0xa9 NuttX/nuttx/mm/libmm.a(umm_globals.o)
 .debug_abbrev  0x0000000000002d94      0x12d NuttX/nuttx/mm/libmm.a(mm_zalloc.o)
 .debug_abbrev  0x0000000000002ec1      0x154 NuttX/nuttx/mm/libmm.a(mm_malloc.o)
 .debug_abbrev  0x0000000000003015      0x17e NuttX/nuttx/mm/libmm.a(mm_sem.o)
 .debug_abbrev  0x0000000000003193      0x107 NuttX/nuttx/mm/libmm.a(mm_addfreechunk.o)
 .debug_abbrev  0x000000000000329a       0xdc NuttX/nuttx/mm/libmm.a(mm_size2ndx.o)
 .debug_abbrev  0x0000000000003376      0x177 NuttX/nuttx/sched/libsched.a(clock_initialize.o)
 .debug_abbrev  0x00000000000034ed       0xd0 NuttX/nuttx/sched/libsched.a(clock_ticks2time.o)
 .debug_abbrev  0x00000000000035bd      0x1d5 NuttX/nuttx/sched/libsched.a(errno_getptr.o)
 .debug_abbrev  0x0000000000003792      0x241 NuttX/nuttx/sched/libsched.a(nx_start.o)
 .debug_abbrev  0x00000000000039d3      0x118 NuttX/nuttx/sched/libsched.a(nx_bringup.o)
 .debug_abbrev  0x0000000000003aeb      0x210 NuttX/nuttx/sched/libsched.a(irq_attach.o)
 .debug_abbrev  0x0000000000003cfb      0x1ac NuttX/nuttx/sched/libsched.a(irq_dispatch.o)
 .debug_abbrev  0x0000000000003ea7      0x1cb NuttX/nuttx/sched/libsched.a(irq_unexpectedisr.o)
 .debug_abbrev  0x0000000000004072      0x2e0 NuttX/nuttx/sched/libsched.a(sched_garbage.o)
 .debug_abbrev  0x0000000000004352      0x181 NuttX/nuttx/sched/libsched.a(sched_idletask.o)
 .debug_abbrev  0x00000000000044d3      0x2f9 NuttX/nuttx/sched/libsched.a(sem_wait.o)
 .debug_abbrev  0x00000000000047cc      0x2ba NuttX/nuttx/sched/libsched.a(sem_trywait.o)
 .debug_abbrev  0x0000000000004a86      0x2b8 NuttX/nuttx/sched/libsched.a(sem_post.o)
 .debug_abbrev  0x0000000000004d3e      0x1a9 NuttX/nuttx/sched/libsched.a(sem_reset.o)
 .debug_abbrev  0x0000000000004ee7       0xf4 NuttX/nuttx/sched/libsched.a(sig_usleep.o)
 .debug_abbrev  0x0000000000004fdb      0x246 NuttX/nuttx/sched/libsched.a(task_create.o)
 .debug_abbrev  0x0000000000005221      0x2d2 NuttX/nuttx/sched/libsched.a(task_setup.o)
 .debug_abbrev  0x00000000000054f3      0x267 NuttX/nuttx/sched/libsched.a(task_activate.o)
 .debug_abbrev  0x000000000000575a      0x1ac NuttX/nuttx/sched/libsched.a(task_start.o)
 .debug_abbrev  0x0000000000005906      0x19d NuttX/nuttx/sched/libsched.a(task_getpid.o)
 .debug_abbrev  0x0000000000005aa3      0x1d9 NuttX/nuttx/sched/libsched.a(exit.o)
 .debug_abbrev  0x0000000000005c7c      0x212 NuttX/nuttx/sched/libsched.a(group_create.o)
 .debug_abbrev  0x0000000000005e8e      0x1c5 NuttX/nuttx/sched/libsched.a(group_setupidlefiles.o)
 .debug_abbrev  0x0000000000006053      0x1ae NuttX/nuttx/sched/libsched.a(group_setuptaskfiles.o)
 .debug_abbrev  0x0000000000006201       0xf5 NuttX/nuttx/sched/libsched.a(irq_initialize.o)
 .debug_abbrev  0x00000000000062f6      0x23e NuttX/nuttx/sched/libsched.a(sched_releasetcb.o)
 .debug_abbrev  0x0000000000006534      0x19f NuttX/nuttx/sched/libsched.a(sched_lock.o)
 .debug_abbrev  0x00000000000066d3      0x270 NuttX/nuttx/sched/libsched.a(sched_unlock.o)
 .debug_abbrev  0x0000000000006943      0x2e7 NuttX/nuttx/sched/libsched.a(sig_procmask.o)
 .debug_abbrev  0x0000000000006c2a      0x1d8 NuttX/nuttx/sched/libsched.a(sig_unmaskpendingsignal.o)
 .debug_abbrev  0x0000000000006e02      0x274 NuttX/nuttx/sched/libsched.a(sig_removependingsignal.o)
 .debug_abbrev  0x0000000000007076      0x223 NuttX/nuttx/sched/libsched.a(sig_releasependingsignal.o)
 .debug_abbrev  0x0000000000007299      0x117 NuttX/nuttx/sched/libsched.a(sig_lowest.o)
 .debug_abbrev  0x00000000000073b0      0x360 NuttX/nuttx/sched/libsched.a(sig_dispatch.o)
 .debug_abbrev  0x0000000000007710      0x2fc NuttX/nuttx/sched/libsched.a(sig_deliver.o)
 .debug_abbrev  0x0000000000007a0c      0x28c NuttX/nuttx/sched/libsched.a(sig_nanosleep.o)
 .debug_abbrev  0x0000000000007c98      0x1c5 NuttX/nuttx/sched/libsched.a(task_exithook.o)
 .debug_abbrev  0x0000000000007e5d      0x1b9 NuttX/nuttx/sched/libsched.a(task_recover.o)
 .debug_abbrev  0x0000000000008016      0x274 NuttX/nuttx/sched/libsched.a(wd_recover.o)
 .debug_abbrev  0x000000000000828a       0xc8 NuttX/nuttx/sched/libsched.a(clock_time2ticks.o)
 .debug_abbrev  0x0000000000008352      0x20c NuttX/nuttx/sched/libsched.a(group_leave.o)
 .debug_abbrev  0x000000000000855e      0x2d9 NuttX/nuttx/sched/libsched.a(sched_free.o)
 .debug_abbrev  0x0000000000008837      0x28a NuttX/nuttx/sched/libsched.a(sched_gettcb.o)
 .debug_abbrev  0x0000000000008ac1      0x279 NuttX/nuttx/sched/libsched.a(sem_recover.o)
 .debug_abbrev  0x0000000000008d3a      0x2a3 NuttX/nuttx/sched/libsched.a(sem_waitirq.o)
 .debug_abbrev  0x0000000000008fdd      0x27d NuttX/nuttx/sched/libsched.a(sig_initialize.o)
 .debug_abbrev  0x000000000000925a      0x2d4 NuttX/nuttx/sched/libsched.a(sig_pending.o)
 .debug_abbrev  0x000000000000952e      0x37e NuttX/nuttx/sched/libsched.a(sig_timedwait.o)
 .debug_abbrev  0x00000000000098ac      0x193 NuttX/nuttx/sched/libsched.a(sig_findaction.o)
 .debug_abbrev  0x0000000000009a3f      0x277 NuttX/nuttx/sched/libsched.a(sig_allocpendingsigaction.o)
 .debug_abbrev  0x0000000000009cb6      0x24d NuttX/nuttx/sched/libsched.a(sig_releasependingsigaction.o)
 .debug_abbrev  0x0000000000009f03      0x1df NuttX/nuttx/sched/libsched.a(sig_cleanup.o)
 .debug_abbrev  0x000000000000a0e2      0x215 NuttX/nuttx/sched/libsched.a(wd_create.o)
 .debug_abbrev  0x000000000000a2f7      0x311 NuttX/nuttx/sched/libsched.a(wd_start.o)
 .debug_abbrev  0x000000000000a608      0x283 NuttX/nuttx/sched/libsched.a(wd_cancel.o)
 .debug_abbrev  0x000000000000a88b      0x217 NuttX/nuttx/sched/libsched.a(wd_delete.o)
 .debug_abbrev  0x000000000000aaa2      0x2c2 NuttX/nuttx/sched/libsched.a(sig_action.o)
 .debug_abbrev  0x000000000000ad64      0x146 NuttX/nuttx/sched/libsched.a(wd_initialize.o)
 .debug_abbrev  0x000000000000aeaa       0xf1 NuttX/nuttx/arch/arm/src/libarch.a(stm32_allocateheap.o)
 .debug_abbrev  0x000000000000af9b       0x9f NuttX/nuttx/arch/arm/src/libarch.a(stm32_idle.o)
 .debug_abbrev  0x000000000000b03a      0x212 NuttX/nuttx/arch/arm/src/libarch.a(up_blocktask.o)
 .debug_abbrev  0x000000000000b24c       0xc7 NuttX/nuttx/arch/arm/src/libarch.a(up_copyfullstate.o)
 .debug_abbrev  0x000000000000b313      0x23e NuttX/nuttx/arch/arm/src/libarch.a(up_createstack.o)
 .debug_abbrev  0x000000000000b551      0x268 NuttX/nuttx/arch/arm/src/libarch.a(up_exit.o)
 .debug_abbrev  0x000000000000b7b9      0x13c NuttX/nuttx/arch/arm/src/libarch.a(up_initialize.o)
 .debug_abbrev  0x000000000000b8f5      0x1ba NuttX/nuttx/arch/arm/src/libarch.a(up_initialstate.o)
 .debug_abbrev  0x000000000000baaf      0x1cb NuttX/nuttx/arch/arm/src/libarch.a(up_releasepending.o)
 .debug_abbrev  0x000000000000bc7a      0x1ae NuttX/nuttx/arch/arm/src/libarch.a(up_releasestack.o)
 .debug_abbrev  0x000000000000be28      0x28c NuttX/nuttx/arch/arm/src/libarch.a(up_schedulesigaction.o)
 .debug_abbrev  0x000000000000c0b4      0x274 NuttX/nuttx/arch/arm/src/libarch.a(up_sigdeliver.o)
 .debug_abbrev  0x000000000000c328      0x19f NuttX/nuttx/arch/arm/src/libarch.a(up_stackframe.o)
 .debug_abbrev  0x000000000000c4c7      0x1dc NuttX/nuttx/arch/arm/src/libarch.a(up_unblocktask.o)
 .debug_abbrev  0x000000000000c6a3       0x14 NuttX/nuttx/arch/arm/src/libarch.a(up_fullcontextrestore.o)
 .debug_abbrev  0x000000000000c6b7       0x14 NuttX/nuttx/arch/arm/src/libarch.a(up_switchcontext.o)
 .debug_abbrev  0x000000000000c6cb      0x173 NuttX/nuttx/arch/arm/src/libarch.a(stm32_timerisr.o)
 .debug_abbrev  0x000000000000c83e       0x87 NuttX/nuttx/libs/libc/libc.a(sq_addlast.o)
 .debug_abbrev  0x000000000000c8c5       0x87 NuttX/nuttx/libs/libc/libc.a(sq_addfirst.o)
 .debug_abbrev  0x000000000000c94c       0xb2 NuttX/nuttx/libs/libc/libc.a(sq_addafter.o)
 .debug_abbrev  0x000000000000c9fe       0xbe NuttX/nuttx/libs/libc/libc.a(sq_rem.o)
 .debug_abbrev  0x000000000000cabc       0x98 NuttX/nuttx/libs/libc/libc.a(sq_remfirst.o)
 .debug_abbrev  0x000000000000cb54       0x98 NuttX/nuttx/libs/libc/libc.a(sq_remafter.o)
 .debug_abbrev  0x000000000000cbec       0x87 NuttX/nuttx/libs/libc/libc.a(dq_addfirst.o)
 .debug_abbrev  0x000000000000cc73       0xa5 NuttX/nuttx/libs/libc/libc.a(dq_rem.o)
 .debug_abbrev  0x000000000000cd18      0x11f NuttX/nuttx/libs/libc/libc.a(sem_getvalue.o)
 .debug_abbrev  0x000000000000ce37       0xf4 NuttX/nuttx/libs/libc/libc.a(sem_setprotocol.o)
 .debug_abbrev  0x000000000000cf2b       0xa3 NuttX/nuttx/libs/libc/libc.a(sig_addset.o)
 .debug_abbrev  0x000000000000cfce       0xa3 NuttX/nuttx/libs/libc/libc.a(sig_delset.o)
 .debug_abbrev  0x000000000000d071       0x78 NuttX/nuttx/libs/libc/libc.a(sig_emptyset.o)
 .debug_abbrev  0x000000000000d0e9       0x9d NuttX/nuttx/libs/libc/libc.a(sig_ismember.o)
 .debug_abbrev  0x000000000000d186       0x9d NuttX/nuttx/libs/libc/libc.a(lib_memset.o)
 .debug_abbrev  0x000000000000d223       0x8e NuttX/nuttx/libs/libc/libc.a(lib_strlen.o)
 .debug_abbrev  0x000000000000d2b1       0xb5 NuttX/nuttx/libs/libc/libc.a(lib_calendar2utc.o)
 .debug_abbrev  0x000000000000d366       0x99 NuttX/nuttx/libs/libc/libc.a(lib_daysbeforemonth.o)
 .debug_abbrev  0x000000000000d3ff       0x53 NuttX/nuttx/libs/libc/libc.a(lib_isleapyear.o)
 .debug_abbrev  0x000000000000d452      0x12b NuttX/nuttx/drivers/libdrivers.a(syslog_initialize.o)
 .debug_abbrev  0x000000000000d57d      0x128 NuttX/nuttx/drivers/libdrivers.a(syslog_consolechannel.o)
 .debug_abbrev  0x000000000000d6a5      0x320 NuttX/nuttx/drivers/libdrivers.a(syslog_device.o)
 .debug_abbrev  0x000000000000d9c5      0x151 NuttX/nuttx/fs/libfs.a(fs_initialize.o)
 .debug_abbrev  0x000000000000db16      0x294 NuttX/nuttx/fs/libfs.a(fs_files.o)
 .debug_abbrev  0x000000000000ddaa      0x16b NuttX/nuttx/fs/libfs.a(fs_inodeaddref.o)
 .debug_abbrev  0x000000000000df15      0x198 NuttX/nuttx/fs/libfs.a(fs_inoderelease.o)
 .debug_abbrev  0x000000000000e0ad      0x1b7 NuttX/nuttx/fs/libfs.a(fs_fileopen.o)
 .debug_abbrev  0x000000000000e264      0x209 NuttX/nuttx/fs/libfs.a(fs_filedetach.o)
 .debug_abbrev  0x000000000000e46d      0x1a3 NuttX/nuttx/fs/libfs.a(fs_close.o)
 .debug_abbrev  0x000000000000e610      0x1a3 NuttX/nuttx/fs/libfs.a(fs_dupfd2.o)
 .debug_abbrev  0x000000000000e7b3      0x17d NuttX/nuttx/fs/libfs.a(fs_getfilep.o)
 .debug_abbrev  0x000000000000e930      0x26e NuttX/nuttx/fs/libfs.a(fs_open.o)
 .debug_abbrev  0x000000000000eb9e      0x1d0 NuttX/nuttx/fs/libfs.a(fs_write.o)
 .debug_abbrev  0x000000000000ed6e      0x1a1 NuttX/nuttx/fs/libfs.a(fs_inodefind.o)
 .debug_abbrev  0x000000000000ef0f      0x177 NuttX/nuttx/fs/libfs.a(fs_inodefree.o)
 .debug_abbrev  0x000000000000f086       0xff NuttX/nuttx/mm/libmm.a(umm_initialize.o)
 .debug_abbrev  0x000000000000f185       0xf9 NuttX/nuttx/mm/libmm.a(umm_sem.o)
 .debug_abbrev  0x000000000000f27e       0xff NuttX/nuttx/mm/libmm.a(umm_free.o)
 .debug_abbrev  0x000000000000f37d      0x101 NuttX/nuttx/mm/libmm.a(umm_malloc.o)
 .debug_abbrev  0x000000000000f47e      0x101 NuttX/nuttx/mm/libmm.a(umm_heapmember.o)
 .debug_abbrev  0x000000000000f57f      0x13d NuttX/nuttx/mm/libmm.a(mm_initialize.o)
 .debug_abbrev  0x000000000000f6bc      0x135 NuttX/nuttx/mm/libmm.a(mm_free.o)
 .debug_abbrev  0x000000000000f7f1       0xe5 NuttX/nuttx/mm/libmm.a(mm_heapmember.o)
 .debug_abbrev  0x000000000000f8d6      0x192 NuttX/nuttx/sched/libsched.a(sched_getfiles.o)
 .debug_abbrev  0x000000000000fa68      0x1f2 NuttX/nuttx/sched/libsched.a(sched_addreadytorun.o)
 .debug_abbrev  0x000000000000fc5a      0x1e1 NuttX/nuttx/sched/libsched.a(sched_removereadytorun.o)
 .debug_abbrev  0x000000000000fe3b      0x1bf NuttX/nuttx/sched/libsched.a(sched_addprioritized.o)
 .debug_abbrev  0x000000000000fffa      0x1bb NuttX/nuttx/sched/libsched.a(sched_mergepending.o)
 .debug_abbrev  0x00000000000101b5      0x1f2 NuttX/nuttx/sched/libsched.a(sched_addblocked.o)
 .debug_abbrev  0x00000000000103a7      0x1d4 NuttX/nuttx/sched/libsched.a(sched_removeblocked.o)
 .debug_abbrev  0x000000000001057b      0x19c NuttX/nuttx/sched/libsched.a(sched_processtimer.o)
 .debug_abbrev  0x0000000000010717       0xe5 NuttX/nuttx/sched/libsched.a(sem_destroy.o)
 .debug_abbrev  0x00000000000107fc      0x1f4 NuttX/nuttx/sched/libsched.a(task_exit.o)
 .debug_abbrev  0x00000000000109f0      0x2fa NuttX/nuttx/sched/libsched.a(task_terminate.o)
 .debug_abbrev  0x0000000000010cea       0x87 NuttX/nuttx/libs/libc/libc.a(dq_addlast.o)
 .debug_abbrev  0x0000000000010d71       0xd9 NuttX/nuttx/libs/libc/libc.a(lib_strdup.o)
 .debug_abbrev  0x0000000000010e4a      0x3ac src/modules/px4iofirmware/libpx4iofirmware.a(px4io.c.obj)
 .debug_abbrev  0x00000000000111f6      0x2ae src/modules/px4iofirmware/libpx4iofirmware.a(registers.c.obj)
 .debug_abbrev  0x00000000000114a4      0x216 src/modules/px4iofirmware/libpx4iofirmware.a(safety.c.obj)
 .debug_abbrev  0x00000000000116ba      0x32c src/modules/px4iofirmware/libpx4iofirmware.a(serial.c.obj)
 .debug_abbrev  0x00000000000119e6      0x1c0 src/modules/px4iofirmware/libpx4iofirmware.a(adc.c.obj)
 .debug_abbrev  0x0000000000011ba6      0x2f8 src/modules/px4iofirmware/libpx4iofirmware.a(controls.c.obj)
 .debug_abbrev  0x0000000000011e9e      0x7a7 src/modules/px4iofirmware/libpx4iofirmware.a(mixer.cpp.obj)
 .debug_abbrev  0x0000000000012645       0x88 NuttX/apps/libapps.a(gnu_cxxinitialize.o)
 .debug_abbrev  0x00000000000126cd      0x196 platforms/nuttx/src/px4/stm/stm32f1/io_pins/libarch_io_pins.a(pwm_servo.c.obj)
 .debug_abbrev  0x0000000000012863      0x419 platforms/nuttx/src/px4/stm/stm32f1/io_pins/libarch_io_pins.a(io_timer.c.obj)
 .debug_abbrev  0x0000000000012c7c      0x696 src/lib/mixer/libmixer.a(MixerGroup.cpp.obj)
 .debug_abbrev  0x0000000000013312      0x641 src/lib/mixer/HelicopterMixer/libHelicopterMixer.a(HelicopterMixer.cpp.obj)
 .debug_abbrev  0x0000000000013953      0x839 src/lib/mixer/MultirotorMixer/libMultirotorMixer.a(MultirotorMixer.cpp.obj)
 .debug_abbrev  0x000000000001418c      0x520 src/lib/mixer/NullMixer/libNullMixer.a(NullMixer.cpp.obj)
 .debug_abbrev  0x00000000000146ac      0x76e src/lib/mixer/SimpleMixer/libSimpleMixer.a(SimpleMixer.cpp.obj)
 .debug_abbrev  0x0000000000014e1a      0x492 src/lib/mixer/MixerBase/libMixerBase.a(Mixer.cpp.obj)
 .debug_abbrev  0x00000000000152ac      0x29f src/lib/rc/librc.a(st24.cpp.obj)
 .debug_abbrev  0x000000000001554b      0x318 src/lib/rc/librc.a(sumd.cpp.obj)
 .debug_abbrev  0x0000000000015863      0x43d src/lib/rc/librc.a(sbus.cpp.obj)
 .debug_abbrev  0x0000000000015ca0      0x5f6 src/lib/rc/librc.a(dsm.cpp.obj)
 .debug_abbrev  0x0000000000016296      0x1a9 src/lib/rc/librc.a(common_rc.cpp.obj)
 .debug_abbrev  0x000000000001643f      0x2c3 src/lib/output_limit/liboutput_limit.a(output_limit.cpp.obj)
 .debug_abbrev  0x0000000000016702       0x82 NuttX/nuttx/arch/arm/src/libarch.a(up_systemreset.o)
 .debug_abbrev  0x0000000000016784       0x9b NuttX/nuttx/arch/arm/src/libarch.a(up_udelay.o)
 .debug_abbrev  0x000000000001681f       0xe8 boards/px4/io-v2/src/libdrivers_board.a(init.c.obj)
 .debug_abbrev  0x0000000000016907      0x1c0 boards/px4/io-v2/src/libdrivers_board.a(timer_config.cpp.obj)
 .debug_abbrev  0x0000000000016ac7      0x413 platforms/nuttx/src/px4/stm/stm32f1/hrt/libarch_hrt.a(hrt.c.obj)
 .debug_abbrev  0x0000000000016eda      0x1b3 NuttX/nuttx/libs/libxx/libxx.a(libxx_eabi_atexit.o)
 .debug_abbrev  0x000000000001708d      0x1b1 NuttX/nuttx/libs/libxx/libxx.a(libxx_cxa_atexit.o)
 .debug_abbrev  0x000000000001723e      0x199 NuttX/nuttx/libs/libxx/libxx.a(libxx_delete.o)
 .debug_abbrev  0x00000000000173d7      0x199 NuttX/nuttx/libs/libxx/libxx.a(libxx_deletea.o)
 .debug_abbrev  0x0000000000017570      0x1a8 NuttX/nuttx/libs/libxx/libxx.a(libxx_new.o)
 .debug_abbrev  0x0000000000017718      0x1a8 NuttX/nuttx/libs/libxx/libxx.a(libxx_newa.o)
 .debug_abbrev  0x00000000000178c0       0xf2 NuttX/nuttx/libs/libc/libc.a(lib_crc32.o)
 .debug_abbrev  0x00000000000179b2       0xe9 NuttX/nuttx/libs/libc/libc.a(lib_printf.o)
 .debug_abbrev  0x0000000000017a9b      0x18f NuttX/nuttx/libs/libc/libc.a(lib_vsnprintf.o)
 .debug_abbrev  0x0000000000017c2a      0x119 NuttX/nuttx/libs/libc/libc.a(lib_memoutstream.o)
 .debug_abbrev  0x0000000000017d43       0xee NuttX/nuttx/libs/libc/libc.a(lib_nulloutstream.o)
 .debug_abbrev  0x0000000000017e31       0xf8 NuttX/nuttx/libs/libc/libc.a(lib_sscanf.o)
 .debug_abbrev  0x0000000000017f29      0x14e NuttX/nuttx/libs/libc/libc.a(lib_vsscanf.o)
 .debug_abbrev  0x0000000000018077      0x233 NuttX/nuttx/libs/libc/libc.a(lib_libvscanf.o)
 .debug_abbrev  0x00000000000182aa       0xc9 NuttX/nuttx/libs/libc/libc.a(lib_libnoflush.o)
 .debug_abbrev  0x0000000000018373      0x292 NuttX/nuttx/libs/libc/libc.a(lib_libvsprintf.o)
 .debug_abbrev  0x0000000000018605       0x92 NuttX/nuttx/libs/libc/libc.a(lib_ultoa_invert.o)
 .debug_abbrev  0x0000000000018697       0xe8 NuttX/nuttx/libs/libc/libc.a(lib_strtol.o)
 .debug_abbrev  0x000000000001877f       0xee NuttX/nuttx/libs/libc/libc.a(lib_strtoul.o)
 .debug_abbrev  0x000000000001886d       0xc1 NuttX/nuttx/libs/libc/libc.a(lib_checkbase.o)
 .debug_abbrev  0x000000000001892e       0xb0 NuttX/nuttx/libs/libc/libc.a(lib_isbasedigit.o)
 .debug_abbrev  0x00000000000189de       0x9a NuttX/nuttx/libs/libc/libc.a(lib_memchr.o)
 .debug_abbrev  0x0000000000018a78       0xb1 NuttX/nuttx/libs/libc/libc.a(lib_memmove.o)
 .debug_abbrev  0x0000000000018b29       0xcd NuttX/nuttx/libs/libc/libc.a(lib_skipspace.o)
 .debug_abbrev  0x0000000000018bf6       0x74 NuttX/nuttx/libs/libc/libc.a(lib_strchr.o)
 .debug_abbrev  0x0000000000018c6a       0x74 NuttX/nuttx/libs/libc/libc.a(lib_strcmp.o)
 .debug_abbrev  0x0000000000018cde       0x9d NuttX/nuttx/libs/libc/libc.a(lib_strnlen.o)
 .debug_abbrev  0x0000000000018d7b       0x9d NuttX/nuttx/libs/libc/libc.a(lib_strncpy.o)
 .debug_abbrev  0x0000000000018e18       0xfe NuttX/nuttx/libs/libc/libc.a(lib_syslog.o)
 .debug_abbrev  0x0000000000018f16      0x178 NuttX/nuttx/libs/libc/libc.a(lib_setlogmask.o)
 .debug_abbrev  0x000000000001908e       0xd5 NuttX/nuttx/libs/libc/libc.a(lib_tcgetattr.o)
 .debug_abbrev  0x0000000000019163       0xdc NuttX/nuttx/libs/libc/libc.a(lib_tcsetattr.o)
 .debug_abbrev  0x000000000001923f      0x119 NuttX/nuttx/libs/libc/libc.a(lib_meminstream.o)
 .debug_abbrev  0x0000000000019358      0x159 NuttX/nuttx/drivers/libdrivers.a(vsyslog.o)
 .debug_abbrev  0x00000000000194b1      0x190 NuttX/nuttx/drivers/libdrivers.a(syslog_stream.o)
 .debug_abbrev  0x0000000000019641      0x164 NuttX/nuttx/drivers/libdrivers.a(syslog_emergstream.o)
 .debug_abbrev  0x00000000000197a5      0x117 NuttX/nuttx/drivers/libdrivers.a(syslog_putc.o)
 .debug_abbrev  0x00000000000198bc       0xdf NuttX/nuttx/drivers/libdrivers.a(syslog_force.o)
 .debug_abbrev  0x000000000001999b      0x1f4 NuttX/nuttx/fs/libfs.a(fs_ioctl.o)
 .debug_abbrev  0x0000000000019b8f      0x1e3 NuttX/nuttx/fs/libfs.a(fs_read.o)
 .debug_abbrev  0x0000000000019d72       0xf7 NuttX/nuttx/mm/libmm.a(umm_mallinfo.o)
 .debug_abbrev  0x0000000000019e69      0x113 NuttX/nuttx/mm/libmm.a(mm_mallinfo.o)

.debug_info     0x0000000000000000    0x6a640
 *(.debug_info)
 .debug_info    0x0000000000000000      0x291 NuttX/nuttx/arch/arm/src/libarch.a(stm32_start.o)
 .debug_info    0x0000000000000291      0x346 NuttX/nuttx/arch/arm/src/libarch.a(stm32_rcc.o)
 .debug_info    0x00000000000005d7      0x449 NuttX/nuttx/arch/arm/src/libarch.a(stm32_gpio.o)
 .debug_info    0x0000000000000a20      0x1ea NuttX/nuttx/arch/arm/src/libarch.a(stm32_lowputc.o)
 .debug_info    0x0000000000000c0a     0x2289 NuttX/nuttx/arch/arm/src/libarch.a(stm32_serial.o)
 .debug_info    0x0000000000002e93      0x258 NuttX/nuttx/arch/arm/src/libarch.a(up_modifyreg32.o)
 .debug_info    0x00000000000030eb      0x154 NuttX/nuttx/arch/arm/src/libarch.a(up_vectors.o)
 .debug_info    0x000000000000323f       0x26 NuttX/nuttx/arch/arm/src/libarch.a(up_exception.o)
 .debug_info    0x0000000000003265      0x4c2 NuttX/nuttx/arch/arm/src/libarch.a(stm32_irq.o)
 .debug_info    0x0000000000003727     0x1413 NuttX/nuttx/arch/arm/src/libarch.a(stm32_dma.o)
 .debug_info    0x0000000000004b3a      0x2af NuttX/nuttx/arch/arm/src/libarch.a(up_hardfault.o)
 .debug_info    0x0000000000004de9      0x21a NuttX/nuttx/arch/arm/src/libarch.a(up_svcall.o)
 .debug_info    0x0000000000005003      0x235 NuttX/nuttx/arch/arm/src/libarch.a(up_doirq.o)
 .debug_info    0x0000000000005238      0xda6 NuttX/nuttx/arch/arm/src/libarch.a(up_assert.o)
 .debug_info    0x0000000000005fde      0x184 NuttX/nuttx/arch/arm/src/libarch.a(up_interruptcontext.o)
 .debug_info    0x0000000000006162      0x1ee NuttX/nuttx/libs/libc/libc.a(sem_init.o)
 .debug_info    0x0000000000006350      0x114 NuttX/nuttx/libs/libc/libc.a(lib_abort.o)
 .debug_info    0x0000000000006464       0xd0 NuttX/nuttx/libs/libc/libc.a(lib_strcpy.o)
 .debug_info    0x0000000000006534      0x10c NuttX/nuttx/libs/libc/libc.a(lib_memcpy.o)
 .debug_info    0x0000000000006640      0x167 NuttX/nuttx/libs/libc/libc.a(lib_cfgetspeed.o)
 .debug_info    0x00000000000067a7      0x16f NuttX/nuttx/libs/libc/libc.a(lib_cfsetspeed.o)
 .debug_info    0x0000000000006916     0x1d62 NuttX/nuttx/drivers/libdrivers.a(serial.o)
 .debug_info    0x0000000000008678      0x7c2 NuttX/nuttx/drivers/libdrivers.a(serial_io.o)
 .debug_info    0x0000000000008e3a      0x198 NuttX/nuttx/drivers/libdrivers.a(syslog_flush.o)
 .debug_info    0x0000000000008fd2      0x244 NuttX/nuttx/drivers/libdrivers.a(syslog_channel.o)
 .debug_info    0x0000000000009216      0x59b NuttX/nuttx/fs/libfs.a(fs_registerdriver.o)
 .debug_info    0x00000000000097b1      0x60a NuttX/nuttx/fs/libfs.a(fs_inode.o)
 .debug_info    0x0000000000009dbb      0x7f3 NuttX/nuttx/fs/libfs.a(fs_inodereserve.o)
 .debug_info    0x000000000000a5ae      0x6ca NuttX/nuttx/fs/libfs.a(fs_inodesearch.o)
 .debug_info    0x000000000000ac78      0x252 NuttX/nuttx/mm/libmm.a(umm_zalloc.o)
 .debug_info    0x000000000000aeca      0x206 NuttX/nuttx/mm/libmm.a(umm_globals.o)
 .debug_info    0x000000000000b0d0      0x2a4 NuttX/nuttx/mm/libmm.a(mm_zalloc.o)
 .debug_info    0x000000000000b374      0x365 NuttX/nuttx/mm/libmm.a(mm_malloc.o)
 .debug_info    0x000000000000b6d9      0x3ef NuttX/nuttx/mm/libmm.a(mm_sem.o)
 .debug_info    0x000000000000bac8      0x280 NuttX/nuttx/mm/libmm.a(mm_addfreechunk.o)
 .debug_info    0x000000000000bd48      0x238 NuttX/nuttx/mm/libmm.a(mm_size2ndx.o)
 .debug_info    0x000000000000bf80      0x24d NuttX/nuttx/sched/libsched.a(clock_initialize.o)
 .debug_info    0x000000000000c1cd      0x15a NuttX/nuttx/sched/libsched.a(clock_ticks2time.o)
 .debug_info    0x000000000000c327      0xb3c NuttX/nuttx/sched/libsched.a(errno_getptr.o)
 .debug_info    0x000000000000ce63     0x1002 NuttX/nuttx/sched/libsched.a(nx_start.o)
 .debug_info    0x000000000000de65      0x1d0 NuttX/nuttx/sched/libsched.a(nx_bringup.o)
 .debug_info    0x000000000000e035      0x303 NuttX/nuttx/sched/libsched.a(irq_attach.o)
 .debug_info    0x000000000000e338      0xb99 NuttX/nuttx/sched/libsched.a(irq_dispatch.o)
 .debug_info    0x000000000000eed1      0x28f NuttX/nuttx/sched/libsched.a(irq_unexpectedisr.o)
 .debug_info    0x000000000000f160      0xc63 NuttX/nuttx/sched/libsched.a(sched_garbage.o)
 .debug_info    0x000000000000fdc3      0xac5 NuttX/nuttx/sched/libsched.a(sched_idletask.o)
 .debug_info    0x0000000000010888      0xcee NuttX/nuttx/sched/libsched.a(sem_wait.o)
 .debug_info    0x0000000000011576      0xc53 NuttX/nuttx/sched/libsched.a(sem_trywait.o)
 .debug_info    0x00000000000121c9      0xc6f NuttX/nuttx/sched/libsched.a(sem_post.o)
 .debug_info    0x0000000000012e38      0x2d8 NuttX/nuttx/sched/libsched.a(sem_reset.o)
 .debug_info    0x0000000000013110      0x190 NuttX/nuttx/sched/libsched.a(sig_usleep.o)
 .debug_info    0x00000000000132a0      0xee3 NuttX/nuttx/sched/libsched.a(task_create.o)
 .debug_info    0x0000000000014183      0xf53 NuttX/nuttx/sched/libsched.a(task_setup.o)
 .debug_info    0x00000000000150d6      0x973 NuttX/nuttx/sched/libsched.a(task_activate.o)
 .debug_info    0x0000000000015a49      0xb52 NuttX/nuttx/sched/libsched.a(task_start.o)
 .debug_info    0x000000000001659b      0xafe NuttX/nuttx/sched/libsched.a(task_getpid.o)
 .debug_info    0x0000000000017099      0xb0a NuttX/nuttx/sched/libsched.a(exit.o)
 .debug_info    0x0000000000017ba3      0xb6e NuttX/nuttx/sched/libsched.a(group_create.o)
 .debug_info    0x0000000000018711      0xa22 NuttX/nuttx/sched/libsched.a(group_setupidlefiles.o)
 .debug_info    0x0000000000019133      0xb11 NuttX/nuttx/sched/libsched.a(group_setuptaskfiles.o)
 .debug_info    0x0000000000019c44      0x17c NuttX/nuttx/sched/libsched.a(irq_initialize.o)
 .debug_info    0x0000000000019dc0      0xb92 NuttX/nuttx/sched/libsched.a(sched_releasetcb.o)
 .debug_info    0x000000000001a952      0xad6 NuttX/nuttx/sched/libsched.a(sched_lock.o)
 .debug_info    0x000000000001b428      0xc7d NuttX/nuttx/sched/libsched.a(sched_unlock.o)
 .debug_info    0x000000000001c0a5      0xd37 NuttX/nuttx/sched/libsched.a(sig_procmask.o)
 .debug_info    0x000000000001cddc      0xc68 NuttX/nuttx/sched/libsched.a(sig_unmaskpendingsignal.o)
 .debug_info    0x000000000001da44      0xb44 NuttX/nuttx/sched/libsched.a(sig_removependingsignal.o)
 .debug_info    0x000000000001e588      0x5c0 NuttX/nuttx/sched/libsched.a(sig_releasependingsignal.o)
 .debug_info    0x000000000001eb48      0x370 NuttX/nuttx/sched/libsched.a(sig_lowest.o)
 .debug_info    0x000000000001eeb8     0x152e NuttX/nuttx/sched/libsched.a(sig_dispatch.o)
 .debug_info    0x00000000000203e6      0xcd4 NuttX/nuttx/sched/libsched.a(sig_deliver.o)
 .debug_info    0x00000000000210ba      0x5a0 NuttX/nuttx/sched/libsched.a(sig_nanosleep.o)
 .debug_info    0x000000000002165a      0xb6d NuttX/nuttx/sched/libsched.a(task_exithook.o)
 .debug_info    0x00000000000221c7      0xb17 NuttX/nuttx/sched/libsched.a(task_recover.o)
 .debug_info    0x0000000000022cde      0x9a0 NuttX/nuttx/sched/libsched.a(wd_recover.o)
 .debug_info    0x000000000002367e      0x17d NuttX/nuttx/sched/libsched.a(clock_time2ticks.o)
 .debug_info    0x00000000000237fb      0xa14 NuttX/nuttx/sched/libsched.a(group_leave.o)
 .debug_info    0x000000000002420f      0xc6f NuttX/nuttx/sched/libsched.a(sched_free.o)
 .debug_info    0x0000000000024e7e      0xbe8 NuttX/nuttx/sched/libsched.a(sched_gettcb.o)
 .debug_info    0x0000000000025a66      0x9ab NuttX/nuttx/sched/libsched.a(sem_recover.o)
 .debug_info    0x0000000000026411      0x9dd NuttX/nuttx/sched/libsched.a(sem_waitirq.o)
 .debug_info    0x0000000000026dee      0x8f9 NuttX/nuttx/sched/libsched.a(sig_initialize.o)
 .debug_info    0x00000000000276e7      0xcf5 NuttX/nuttx/sched/libsched.a(sig_pending.o)
 .debug_info    0x00000000000283dc     0x1003 NuttX/nuttx/sched/libsched.a(sig_timedwait.o)
 .debug_info    0x00000000000293df      0x7d7 NuttX/nuttx/sched/libsched.a(sig_findaction.o)
 .debug_info    0x0000000000029bb6      0x5e9 NuttX/nuttx/sched/libsched.a(sig_allocpendingsigaction.o)
 .debug_info    0x000000000002a19f      0x619 NuttX/nuttx/sched/libsched.a(sig_releasependingsigaction.o)
 .debug_info    0x000000000002a7b8      0xc11 NuttX/nuttx/sched/libsched.a(sig_cleanup.o)
 .debug_info    0x000000000002b3c9      0x554 NuttX/nuttx/sched/libsched.a(wd_create.o)
 .debug_info    0x000000000002b91d      0xd8a NuttX/nuttx/sched/libsched.a(wd_start.o)
 .debug_info    0x000000000002c6a7      0xc50 NuttX/nuttx/sched/libsched.a(wd_cancel.o)
 .debug_info    0x000000000002d2f7      0x56b NuttX/nuttx/sched/libsched.a(wd_delete.o)
 .debug_info    0x000000000002d862      0xe1b NuttX/nuttx/sched/libsched.a(sig_action.o)
 .debug_info    0x000000000002e67d      0x2b0 NuttX/nuttx/sched/libsched.a(wd_initialize.o)
 .debug_info    0x000000000002e92d      0x36f NuttX/nuttx/arch/arm/src/libarch.a(stm32_allocateheap.o)
 .debug_info    0x000000000002ec9c      0x1b6 NuttX/nuttx/arch/arm/src/libarch.a(stm32_idle.o)
 .debug_info    0x000000000002ee52      0xc66 NuttX/nuttx/arch/arm/src/libarch.a(up_blocktask.o)
 .debug_info    0x000000000002fab8      0x15d NuttX/nuttx/arch/arm/src/libarch.a(up_copyfullstate.o)
 .debug_info    0x000000000002fc15      0xb56 NuttX/nuttx/arch/arm/src/libarch.a(up_createstack.o)
 .debug_info    0x000000000003076b      0xca5 NuttX/nuttx/arch/arm/src/libarch.a(up_exit.o)
 .debug_info    0x0000000000031410      0x303 NuttX/nuttx/arch/arm/src/libarch.a(up_initialize.o)
 .debug_info    0x0000000000031713      0x906 NuttX/nuttx/arch/arm/src/libarch.a(up_initialstate.o)
 .debug_info    0x0000000000032019      0xba6 NuttX/nuttx/arch/arm/src/libarch.a(up_releasepending.o)
 .debug_info    0x0000000000032bbf      0xa06 NuttX/nuttx/arch/arm/src/libarch.a(up_releasestack.o)
 .debug_info    0x00000000000335c5      0xd1f NuttX/nuttx/arch/arm/src/libarch.a(up_schedulesigaction.o)
 .debug_info    0x00000000000342e4      0xd57 NuttX/nuttx/arch/arm/src/libarch.a(up_sigdeliver.o)
 .debug_info    0x000000000003503b      0x8e3 NuttX/nuttx/arch/arm/src/libarch.a(up_stackframe.o)
 .debug_info    0x000000000003591e      0xc1b NuttX/nuttx/arch/arm/src/libarch.a(up_unblocktask.o)
 .debug_info    0x0000000000036539       0x26 NuttX/nuttx/arch/arm/src/libarch.a(up_fullcontextrestore.o)
 .debug_info    0x000000000003655f       0x26 NuttX/nuttx/arch/arm/src/libarch.a(up_switchcontext.o)
 .debug_info    0x0000000000036585      0x2db NuttX/nuttx/arch/arm/src/libarch.a(stm32_timerisr.o)
 .debug_info    0x0000000000036860      0x110 NuttX/nuttx/libs/libc/libc.a(sq_addlast.o)
 .debug_info    0x0000000000036970      0x110 NuttX/nuttx/libs/libc/libc.a(sq_addfirst.o)
 .debug_info    0x0000000000036a80      0x13f NuttX/nuttx/libs/libc/libc.a(sq_addafter.o)
 .debug_info    0x0000000000036bbf      0x141 NuttX/nuttx/libs/libc/libc.a(sq_rem.o)
 .debug_info    0x0000000000036d00      0x116 NuttX/nuttx/libs/libc/libc.a(sq_remfirst.o)
 .debug_info    0x0000000000036e16      0x125 NuttX/nuttx/libs/libc/libc.a(sq_remafter.o)
 .debug_info    0x0000000000036f3b      0x11c NuttX/nuttx/libs/libc/libc.a(dq_addfirst.o)
 .debug_info    0x0000000000037057      0x138 NuttX/nuttx/libs/libc/libc.a(dq_rem.o)
 .debug_info    0x000000000003718f      0x1ac NuttX/nuttx/libs/libc/libc.a(sem_getvalue.o)
 .debug_info    0x000000000003733b      0x1a9 NuttX/nuttx/libs/libc/libc.a(sem_setprotocol.o)
 .debug_info    0x00000000000374e4       0xf7 NuttX/nuttx/libs/libc/libc.a(sig_addset.o)
 .debug_info    0x00000000000375db       0xf7 NuttX/nuttx/libs/libc/libc.a(sig_delset.o)
 .debug_info    0x00000000000376d2       0xd3 NuttX/nuttx/libs/libc/libc.a(sig_emptyset.o)
 .debug_info    0x00000000000377a5       0xf4 NuttX/nuttx/libs/libc/libc.a(sig_ismember.o)
 .debug_info    0x0000000000037899       0xee NuttX/nuttx/libs/libc/libc.a(lib_memset.o)
 .debug_info    0x0000000000037987       0xdc NuttX/nuttx/libs/libc/libc.a(lib_strlen.o)
 .debug_info    0x0000000000037a63      0x132 NuttX/nuttx/libs/libc/libc.a(lib_calendar2utc.o)
 .debug_info    0x0000000000037b95      0x10c NuttX/nuttx/libs/libc/libc.a(lib_daysbeforemonth.o)
 .debug_info    0x0000000000037ca1       0xa6 NuttX/nuttx/libs/libc/libc.a(lib_isleapyear.o)
 .debug_info    0x0000000000037d47      0x259 NuttX/nuttx/drivers/libdrivers.a(syslog_initialize.o)
 .debug_info    0x0000000000037fa0      0x272 NuttX/nuttx/drivers/libdrivers.a(syslog_consolechannel.o)
 .debug_info    0x0000000000038212      0xad9 NuttX/nuttx/drivers/libdrivers.a(syslog_device.o)
 .debug_info    0x0000000000038ceb      0x4f9 NuttX/nuttx/fs/libfs.a(fs_initialize.o)
 .debug_info    0x00000000000391e4      0x983 NuttX/nuttx/fs/libfs.a(fs_files.o)
 .debug_info    0x0000000000039b67      0x51b NuttX/nuttx/fs/libfs.a(fs_inodeaddref.o)
 .debug_info    0x000000000003a082      0x545 NuttX/nuttx/fs/libfs.a(fs_inoderelease.o)
 .debug_info    0x000000000003a5c7      0x5dd NuttX/nuttx/fs/libfs.a(fs_fileopen.o)
 .debug_info    0x000000000003aba4      0x615 NuttX/nuttx/fs/libfs.a(fs_filedetach.o)
 .debug_info    0x000000000003b1b9      0x556 NuttX/nuttx/fs/libfs.a(fs_close.o)
 .debug_info    0x000000000003b70f      0x5a7 NuttX/nuttx/fs/libfs.a(fs_dupfd2.o)
 .debug_info    0x000000000003bcb6      0x56e NuttX/nuttx/fs/libfs.a(fs_getfilep.o)
 .debug_info    0x000000000003c224      0x7ef NuttX/nuttx/fs/libfs.a(fs_open.o)
 .debug_info    0x000000000003ca13      0x676 NuttX/nuttx/fs/libfs.a(fs_write.o)
 .debug_info    0x000000000003d089      0x5b9 NuttX/nuttx/fs/libfs.a(fs_inodefind.o)
 .debug_info    0x000000000003d642      0x521 NuttX/nuttx/fs/libfs.a(fs_inodefree.o)
 .debug_info    0x000000000003db63      0x25e NuttX/nuttx/mm/libmm.a(umm_initialize.o)
 .debug_info    0x000000000003ddc1      0x25f NuttX/nuttx/mm/libmm.a(umm_sem.o)
 .debug_info    0x000000000003e020      0x24e NuttX/nuttx/mm/libmm.a(umm_free.o)
 .debug_info    0x000000000003e26e      0x27c NuttX/nuttx/mm/libmm.a(umm_malloc.o)
 .debug_info    0x000000000003e4ea      0x253 NuttX/nuttx/mm/libmm.a(umm_heapmember.o)
 .debug_info    0x000000000003e73d      0x365 NuttX/nuttx/mm/libmm.a(mm_initialize.o)
 .debug_info    0x000000000003eaa2      0x2e7 NuttX/nuttx/mm/libmm.a(mm_free.o)
 .debug_info    0x000000000003ed89      0x249 NuttX/nuttx/mm/libmm.a(mm_heapmember.o)
 .debug_info    0x000000000003efd2      0xad3 NuttX/nuttx/sched/libsched.a(sched_getfiles.o)
 .debug_info    0x000000000003faa5      0xbb9 NuttX/nuttx/sched/libsched.a(sched_addreadytorun.o)
 .debug_info    0x000000000004065e      0xbb2 NuttX/nuttx/sched/libsched.a(sched_removereadytorun.o)
 .debug_info    0x0000000000041210      0xb0c NuttX/nuttx/sched/libsched.a(sched_addprioritized.o)
 .debug_info    0x0000000000041d1c      0xba1 NuttX/nuttx/sched/libsched.a(sched_mergepending.o)
 .debug_info    0x00000000000428bd      0xb60 NuttX/nuttx/sched/libsched.a(sched_addblocked.o)
 .debug_info    0x000000000004341d      0xb32 NuttX/nuttx/sched/libsched.a(sched_removeblocked.o)
 .debug_info    0x0000000000043f4f      0xb31 NuttX/nuttx/sched/libsched.a(sched_processtimer.o)
 .debug_info    0x0000000000044a80      0x1b4 NuttX/nuttx/sched/libsched.a(sem_destroy.o)
 .debug_info    0x0000000000044c34      0xbce NuttX/nuttx/sched/libsched.a(task_exit.o)
 .debug_info    0x0000000000045802      0xd32 NuttX/nuttx/sched/libsched.a(task_terminate.o)
 .debug_info    0x0000000000046534      0x11c NuttX/nuttx/libs/libc/libc.a(dq_addlast.o)
 .debug_info    0x0000000000046650      0x179 NuttX/nuttx/libs/libc/libc.a(lib_strdup.o)
 .debug_info    0x00000000000467c9     0x124c src/modules/px4iofirmware/libpx4iofirmware.a(px4io.c.obj)
 .debug_info    0x0000000000047a15      0xbe1 src/modules/px4iofirmware/libpx4iofirmware.a(registers.c.obj)
 .debug_info    0x00000000000485f6      0x78f src/modules/px4iofirmware/libpx4iofirmware.a(safety.c.obj)
 .debug_info    0x0000000000048d85      0x998 src/modules/px4iofirmware/libpx4iofirmware.a(serial.c.obj)
 .debug_info    0x000000000004971d      0x63c src/modules/px4iofirmware/libpx4iofirmware.a(adc.c.obj)
 .debug_info    0x0000000000049d59      0xe59 src/modules/px4iofirmware/libpx4iofirmware.a(controls.c.obj)
 .debug_info    0x000000000004abb2     0x257d src/modules/px4iofirmware/libpx4iofirmware.a(mixer.cpp.obj)
 .debug_info    0x000000000004d12f       0xf2 NuttX/apps/libapps.a(gnu_cxxinitialize.o)
 .debug_info    0x000000000004d221      0x852 platforms/nuttx/src/px4/stm/stm32f1/io_pins/libarch_io_pins.a(pwm_servo.c.obj)
 .debug_info    0x000000000004da73     0x1a2d platforms/nuttx/src/px4/stm/stm32f1/io_pins/libarch_io_pins.a(io_timer.c.obj)
 .debug_info    0x000000000004f4a0     0x2443 src/lib/mixer/libmixer.a(MixerGroup.cpp.obj)
 .debug_info    0x00000000000518e3     0x1ea2 src/lib/mixer/HelicopterMixer/libHelicopterMixer.a(HelicopterMixer.cpp.obj)
 .debug_info    0x0000000000053785     0x34d3 src/lib/mixer/MultirotorMixer/libMultirotorMixer.a(MultirotorMixer.cpp.obj)
 .debug_info    0x0000000000056c58     0x16de src/lib/mixer/NullMixer/libNullMixer.a(NullMixer.cpp.obj)
 .debug_info    0x0000000000058336     0x1f6c src/lib/mixer/SimpleMixer/libSimpleMixer.a(SimpleMixer.cpp.obj)
 .debug_info    0x000000000005a2a2     0x1258 src/lib/mixer/MixerBase/libMixerBase.a(Mixer.cpp.obj)
 .debug_info    0x000000000005b4fa      0xb4e src/lib/rc/librc.a(st24.cpp.obj)
 .debug_info    0x000000000005c048      0xc9c src/lib/rc/librc.a(sumd.cpp.obj)
 .debug_info    0x000000000005cce4     0x11ad src/lib/rc/librc.a(sbus.cpp.obj)
 .debug_info    0x000000000005de91     0x1ad2 src/lib/rc/librc.a(dsm.cpp.obj)
 .debug_info    0x000000000005f963      0x882 src/lib/rc/librc.a(common_rc.cpp.obj)
 .debug_info    0x00000000000601e5      0x8f1 src/lib/output_limit/liboutput_limit.a(output_limit.cpp.obj)
 .debug_info    0x0000000000060ad6      0x105 NuttX/nuttx/arch/arm/src/libarch.a(up_systemreset.o)
 .debug_info    0x0000000000060bdb      0x123 NuttX/nuttx/arch/arm/src/libarch.a(up_udelay.o)
 .debug_info    0x0000000000060cfe      0x54b boards/px4/io-v2/src/libdrivers_board.a(init.c.obj)
 .debug_info    0x0000000000061249      0xa2e boards/px4/io-v2/src/libdrivers_board.a(timer_config.cpp.obj)
 .debug_info    0x0000000000061c77     0x1163 platforms/nuttx/src/px4/stm/stm32f1/hrt/libarch_hrt.a(hrt.c.obj)
 .debug_info    0x0000000000062dda      0x615 NuttX/nuttx/libs/libxx/libxx.a(libxx_eabi_atexit.o)
 .debug_info    0x00000000000633ef      0x5f0 NuttX/nuttx/libs/libxx/libxx.a(libxx_cxa_atexit.o)
 .debug_info    0x00000000000639df      0x5be NuttX/nuttx/libs/libxx/libxx.a(libxx_delete.o)
 .debug_info    0x0000000000063f9d      0x5be NuttX/nuttx/libs/libxx/libxx.a(libxx_deletea.o)
 .debug_info    0x000000000006455b      0x76e NuttX/nuttx/libs/libxx/libxx.a(libxx_new.o)
 .debug_info    0x0000000000064cc9      0x76e NuttX/nuttx/libs/libxx/libxx.a(libxx_newa.o)
 .debug_info    0x0000000000065437      0x1a3 NuttX/nuttx/libs/libc/libc.a(lib_crc32.o)
 .debug_info    0x00000000000655da      0x189 NuttX/nuttx/libs/libc/libc.a(lib_printf.o)
 .debug_info    0x0000000000065763      0x2fa NuttX/nuttx/libs/libc/libc.a(lib_vsnprintf.o)
 .debug_info    0x0000000000065a5d      0x22e NuttX/nuttx/libs/libc/libc.a(lib_memoutstream.o)
 .debug_info    0x0000000000065c8b      0x1ab NuttX/nuttx/libs/libc/libc.a(lib_nulloutstream.o)
 .debug_info    0x0000000000065e36      0x197 NuttX/nuttx/libs/libc/libc.a(lib_sscanf.o)
 .debug_info    0x0000000000065fcd      0x277 NuttX/nuttx/libs/libc/libc.a(lib_vsscanf.o)
 .debug_info    0x0000000000066244      0x69b NuttX/nuttx/libs/libc/libc.a(lib_libvscanf.o)
 .debug_info    0x00000000000668df      0x182 NuttX/nuttx/libs/libc/libc.a(lib_libnoflush.o)
 .debug_info    0x0000000000066a61      0x5e2 NuttX/nuttx/libs/libc/libc.a(lib_libvsprintf.o)
 .debug_info    0x0000000000067043       0xa8 NuttX/nuttx/libs/libc/libc.a(lib_ultoa_invert.o)
 .debug_info    0x00000000000670eb      0x1e9 NuttX/nuttx/libs/libc/libc.a(lib_strtol.o)
 .debug_info    0x00000000000672d4      0x1fe NuttX/nuttx/libs/libc/libc.a(lib_strtoul.o)
 .debug_info    0x00000000000674d2      0x15d NuttX/nuttx/libs/libc/libc.a(lib_checkbase.o)
 .debug_info    0x000000000006762f      0x14c NuttX/nuttx/libs/libc/libc.a(lib_isbasedigit.o)
 .debug_info    0x000000000006777b       0xfe NuttX/nuttx/libs/libc/libc.a(lib_memchr.o)
 .debug_info    0x0000000000067879      0x10c NuttX/nuttx/libs/libc/libc.a(lib_memmove.o)
 .debug_info    0x0000000000067985      0x156 NuttX/nuttx/libs/libc/libc.a(lib_skipspace.o)
 .debug_info    0x0000000000067adb       0xbd NuttX/nuttx/libs/libc/libc.a(lib_strchr.o)
 .debug_info    0x0000000000067b98       0xc8 NuttX/nuttx/libs/libc/libc.a(lib_strcmp.o)
 .debug_info    0x0000000000067c60       0xeb NuttX/nuttx/libs/libc/libc.a(lib_strnlen.o)
 .debug_info    0x0000000000067d4b      0x10c NuttX/nuttx/libs/libc/libc.a(lib_strncpy.o)
 .debug_info    0x0000000000067e57      0x19f NuttX/nuttx/libs/libc/libc.a(lib_syslog.o)
 .debug_info    0x0000000000067ff6      0x1e2 NuttX/nuttx/libs/libc/libc.a(lib_setlogmask.o)
 .debug_info    0x00000000000681d8      0x19a NuttX/nuttx/libs/libc/libc.a(lib_tcgetattr.o)
 .debug_info    0x0000000000068372      0x1ae NuttX/nuttx/libs/libc/libc.a(lib_tcsetattr.o)
 .debug_info    0x0000000000068520      0x213 NuttX/nuttx/libs/libc/libc.a(lib_meminstream.o)
 .debug_info    0x0000000000068733      0x29c NuttX/nuttx/drivers/libdrivers.a(vsyslog.o)
 .debug_info    0x00000000000689cf      0x33f NuttX/nuttx/drivers/libdrivers.a(syslog_stream.o)
 .debug_info    0x0000000000068d0e      0x2e6 NuttX/nuttx/drivers/libdrivers.a(syslog_emergstream.o)
 .debug_info    0x0000000000068ff4      0x24f NuttX/nuttx/drivers/libdrivers.a(syslog_putc.o)
 .debug_info    0x0000000000069243      0x1b3 NuttX/nuttx/drivers/libdrivers.a(syslog_force.o)
 .debug_info    0x00000000000693f6      0x60f NuttX/nuttx/fs/libfs.a(fs_ioctl.o)
 .debug_info    0x0000000000069a05      0x685 NuttX/nuttx/fs/libfs.a(fs_read.o)
 .debug_info    0x000000000006a08a      0x297 NuttX/nuttx/mm/libmm.a(umm_mallinfo.o)
 .debug_info    0x000000000006a321      0x31f NuttX/nuttx/mm/libmm.a(mm_mallinfo.o)

.debug_line     0x0000000000000000    0x304c4
 *(.debug_line)
 .debug_line    0x0000000000000000      0x328 NuttX/nuttx/arch/arm/src/libarch.a(stm32_start.o)
 .debug_line    0x0000000000000328      0x3c5 NuttX/nuttx/arch/arm/src/libarch.a(stm32_rcc.o)
 .debug_line    0x00000000000006ed      0x2f7 NuttX/nuttx/arch/arm/src/libarch.a(stm32_gpio.o)
 .debug_line    0x00000000000009e4      0x2a5 NuttX/nuttx/arch/arm/src/libarch.a(stm32_lowputc.o)
 .debug_line    0x0000000000000c89      0xa49 NuttX/nuttx/arch/arm/src/libarch.a(stm32_serial.o)
 .debug_line    0x00000000000016d2      0x2d5 NuttX/nuttx/arch/arm/src/libarch.a(up_modifyreg32.o)
 .debug_line    0x00000000000019a7      0x230 NuttX/nuttx/arch/arm/src/libarch.a(up_vectors.o)
 .debug_line    0x0000000000001bd7       0x72 NuttX/nuttx/arch/arm/src/libarch.a(up_exception.o)
 .debug_line    0x0000000000001c49      0x491 NuttX/nuttx/arch/arm/src/libarch.a(stm32_irq.o)
 .debug_line    0x00000000000020da      0x6f6 NuttX/nuttx/arch/arm/src/libarch.a(stm32_dma.o)
 .debug_line    0x00000000000027d0      0x359 NuttX/nuttx/arch/arm/src/libarch.a(up_hardfault.o)
 .debug_line    0x0000000000002b29      0x2ec NuttX/nuttx/arch/arm/src/libarch.a(up_svcall.o)
 .debug_line    0x0000000000002e15      0x360 NuttX/nuttx/arch/arm/src/libarch.a(up_doirq.o)
 .debug_line    0x0000000000003175      0x6d2 NuttX/nuttx/arch/arm/src/libarch.a(up_assert.o)
 .debug_line    0x0000000000003847      0x259 NuttX/nuttx/arch/arm/src/libarch.a(up_interruptcontext.o)
 .debug_line    0x0000000000003aa0      0x27d NuttX/nuttx/libs/libc/libc.a(sem_init.o)
 .debug_line    0x0000000000003d1d      0x242 NuttX/nuttx/libs/libc/libc.a(lib_abort.o)
 .debug_line    0x0000000000003f5f       0xbf NuttX/nuttx/libs/libc/libc.a(lib_strcpy.o)
 .debug_line    0x000000000000401e      0x1c3 NuttX/nuttx/libs/libc/libc.a(lib_memcpy.o)
 .debug_line    0x00000000000041e1      0x147 NuttX/nuttx/libs/libc/libc.a(lib_cfgetspeed.o)
 .debug_line    0x0000000000004328      0x148 NuttX/nuttx/libs/libc/libc.a(lib_cfsetspeed.o)
 .debug_line    0x0000000000004470      0x89f NuttX/nuttx/drivers/libdrivers.a(serial.o)
 .debug_line    0x0000000000004d0f      0x331 NuttX/nuttx/drivers/libdrivers.a(serial_io.o)
 .debug_line    0x0000000000005040      0x241 NuttX/nuttx/drivers/libdrivers.a(syslog_flush.o)
 .debug_line    0x0000000000005281      0x2dd NuttX/nuttx/drivers/libdrivers.a(syslog_channel.o)
 .debug_line    0x000000000000555e      0x365 NuttX/nuttx/fs/libfs.a(fs_registerdriver.o)
 .debug_line    0x00000000000058c3      0x3a3 NuttX/nuttx/fs/libfs.a(fs_inode.o)
 .debug_line    0x0000000000005c66      0x3e1 NuttX/nuttx/fs/libfs.a(fs_inodereserve.o)
 .debug_line    0x0000000000006047      0x3cc NuttX/nuttx/fs/libfs.a(fs_inodesearch.o)
 .debug_line    0x0000000000006413      0x248 NuttX/nuttx/mm/libmm.a(umm_zalloc.o)
 .debug_line    0x000000000000665b      0x210 NuttX/nuttx/mm/libmm.a(umm_globals.o)
 .debug_line    0x000000000000686b      0x249 NuttX/nuttx/mm/libmm.a(mm_zalloc.o)
 .debug_line    0x0000000000006ab4      0x27a NuttX/nuttx/mm/libmm.a(mm_malloc.o)
 .debug_line    0x0000000000006d2e      0x337 NuttX/nuttx/mm/libmm.a(mm_sem.o)
 .debug_line    0x0000000000007065      0x25a NuttX/nuttx/mm/libmm.a(mm_addfreechunk.o)
 .debug_line    0x00000000000072bf      0x246 NuttX/nuttx/mm/libmm.a(mm_size2ndx.o)
 .debug_line    0x0000000000007505      0x2a0 NuttX/nuttx/sched/libsched.a(clock_initialize.o)
 .debug_line    0x00000000000077a5      0x250 NuttX/nuttx/sched/libsched.a(clock_ticks2time.o)
 .debug_line    0x00000000000079f5      0x42c NuttX/nuttx/sched/libsched.a(errno_getptr.o)
 .debug_line    0x0000000000007e21      0x5fd NuttX/nuttx/sched/libsched.a(nx_start.o)
 .debug_line    0x000000000000841e      0x251 NuttX/nuttx/sched/libsched.a(nx_bringup.o)
 .debug_line    0x000000000000866f      0x30f NuttX/nuttx/sched/libsched.a(irq_attach.o)
 .debug_line    0x000000000000897e      0x456 NuttX/nuttx/sched/libsched.a(irq_dispatch.o)
 .debug_line    0x0000000000008dd4      0x2ea NuttX/nuttx/sched/libsched.a(irq_unexpectedisr.o)
 .debug_line    0x00000000000090be      0x462 NuttX/nuttx/sched/libsched.a(sched_garbage.o)
 .debug_line    0x0000000000009520      0x424 NuttX/nuttx/sched/libsched.a(sched_idletask.o)
 .debug_line    0x0000000000009944      0x48c NuttX/nuttx/sched/libsched.a(sem_wait.o)
 .debug_line    0x0000000000009dd0      0x468 NuttX/nuttx/sched/libsched.a(sem_trywait.o)
 .debug_line    0x000000000000a238      0x470 NuttX/nuttx/sched/libsched.a(sem_post.o)
 .debug_line    0x000000000000a6a8      0x30d NuttX/nuttx/sched/libsched.a(sem_reset.o)
 .debug_line    0x000000000000a9b5      0x253 NuttX/nuttx/sched/libsched.a(sig_usleep.o)
 .debug_line    0x000000000000ac08      0x4c0 NuttX/nuttx/sched/libsched.a(task_create.o)
 .debug_line    0x000000000000b0c8      0x4ec NuttX/nuttx/sched/libsched.a(task_setup.o)
 .debug_line    0x000000000000b5b4      0x3a8 NuttX/nuttx/sched/libsched.a(task_activate.o)
 .debug_line    0x000000000000b95c      0x43a NuttX/nuttx/sched/libsched.a(task_start.o)
 .debug_line    0x000000000000bd96      0x40c NuttX/nuttx/sched/libsched.a(task_getpid.o)
 .debug_line    0x000000000000c1a2      0x421 NuttX/nuttx/sched/libsched.a(exit.o)
 .debug_line    0x000000000000c5c3      0x43b NuttX/nuttx/sched/libsched.a(group_create.o)
 .debug_line    0x000000000000c9fe      0x40c NuttX/nuttx/sched/libsched.a(group_setupidlefiles.o)
 .debug_line    0x000000000000ce0a      0x414 NuttX/nuttx/sched/libsched.a(group_setuptaskfiles.o)
 .debug_line    0x000000000000d21e      0x270 NuttX/nuttx/sched/libsched.a(irq_initialize.o)
 .debug_line    0x000000000000d48e      0x460 NuttX/nuttx/sched/libsched.a(sched_releasetcb.o)
 .debug_line    0x000000000000d8ee      0x428 NuttX/nuttx/sched/libsched.a(sched_lock.o)
 .debug_line    0x000000000000dd16      0x45b NuttX/nuttx/sched/libsched.a(sched_unlock.o)
 .debug_line    0x000000000000e171      0x485 NuttX/nuttx/sched/libsched.a(sig_procmask.o)
 .debug_line    0x000000000000e5f6      0x44b NuttX/nuttx/sched/libsched.a(sig_unmaskpendingsignal.o)
 .debug_line    0x000000000000ea41      0x43e NuttX/nuttx/sched/libsched.a(sig_removependingsignal.o)
 .debug_line    0x000000000000ee7f      0x3bb NuttX/nuttx/sched/libsched.a(sig_releasependingsignal.o)
 .debug_line    0x000000000000f23a      0x2f3 NuttX/nuttx/sched/libsched.a(sig_lowest.o)
 .debug_line    0x000000000000f52d      0x552 NuttX/nuttx/sched/libsched.a(sig_dispatch.o)
 .debug_line    0x000000000000fa7f      0x49a NuttX/nuttx/sched/libsched.a(sig_deliver.o)
 .debug_line    0x000000000000ff19      0x386 NuttX/nuttx/sched/libsched.a(sig_nanosleep.o)
 .debug_line    0x000000000001029f      0x44d NuttX/nuttx/sched/libsched.a(task_exithook.o)
 .debug_line    0x00000000000106ec      0x43a NuttX/nuttx/sched/libsched.a(task_recover.o)
 .debug_line    0x0000000000010b26      0x3a5 NuttX/nuttx/sched/libsched.a(wd_recover.o)
 .debug_line    0x0000000000010ecb      0x253 NuttX/nuttx/sched/libsched.a(clock_time2ticks.o)
 .debug_line    0x000000000001111e      0x42a NuttX/nuttx/sched/libsched.a(group_leave.o)
 .debug_line    0x0000000000011548      0x463 NuttX/nuttx/sched/libsched.a(sched_free.o)
 .debug_line    0x00000000000119ab      0x43d NuttX/nuttx/sched/libsched.a(sched_gettcb.o)
 .debug_line    0x0000000000011de8      0x39b NuttX/nuttx/sched/libsched.a(sem_recover.o)
 .debug_line    0x0000000000012183      0x3a8 NuttX/nuttx/sched/libsched.a(sem_waitirq.o)
 .debug_line    0x000000000001252b      0x353 NuttX/nuttx/sched/libsched.a(sig_initialize.o)
 .debug_line    0x000000000001287e      0x465 NuttX/nuttx/sched/libsched.a(sig_pending.o)
 .debug_line    0x0000000000012ce3      0x4df NuttX/nuttx/sched/libsched.a(sig_timedwait.o)
 .debug_line    0x00000000000131c2      0x38f NuttX/nuttx/sched/libsched.a(sig_findaction.o)
 .debug_line    0x0000000000013551      0x3b6 NuttX/nuttx/sched/libsched.a(sig_allocpendingsigaction.o)
 .debug_line    0x0000000000013907      0x3bd NuttX/nuttx/sched/libsched.a(sig_releasependingsigaction.o)
 .debug_line    0x0000000000013cc4      0x429 NuttX/nuttx/sched/libsched.a(sig_cleanup.o)
 .debug_line    0x00000000000140ed      0x3b1 NuttX/nuttx/sched/libsched.a(wd_create.o)
 .debug_line    0x000000000001449e      0x529 NuttX/nuttx/sched/libsched.a(wd_start.o)
 .debug_line    0x00000000000149c7      0x457 NuttX/nuttx/sched/libsched.a(wd_cancel.o)
 .debug_line    0x0000000000014e1e      0x39a NuttX/nuttx/sched/libsched.a(wd_delete.o)
 .debug_line    0x00000000000151b8      0x493 NuttX/nuttx/sched/libsched.a(sig_action.o)
 .debug_line    0x000000000001564b      0x25e NuttX/nuttx/sched/libsched.a(wd_initialize.o)
 .debug_line    0x00000000000158a9      0x3ed NuttX/nuttx/arch/arm/src/libarch.a(stm32_allocateheap.o)
 .debug_line    0x0000000000015c96      0x359 NuttX/nuttx/arch/arm/src/libarch.a(stm32_idle.o)
 .debug_line    0x0000000000015fef      0x51b NuttX/nuttx/arch/arm/src/libarch.a(up_blocktask.o)
 .debug_line    0x000000000001650a      0x1d7 NuttX/nuttx/arch/arm/src/libarch.a(up_copyfullstate.o)
 .debug_line    0x00000000000166e1      0x572 NuttX/nuttx/arch/arm/src/libarch.a(up_createstack.o)
 .debug_line    0x0000000000016c53      0x590 NuttX/nuttx/arch/arm/src/libarch.a(up_exit.o)
 .debug_line    0x00000000000171e3      0x46d NuttX/nuttx/arch/arm/src/libarch.a(up_initialize.o)
 .debug_line    0x0000000000017650      0x42a NuttX/nuttx/arch/arm/src/libarch.a(up_initialstate.o)
 .debug_line    0x0000000000017a7a      0x518 NuttX/nuttx/arch/arm/src/libarch.a(up_releasepending.o)
 .debug_line    0x0000000000017f92      0x428 NuttX/nuttx/arch/arm/src/libarch.a(up_releasestack.o)
 .debug_line    0x00000000000183ba      0x5c7 NuttX/nuttx/arch/arm/src/libarch.a(up_schedulesigaction.o)
 .debug_line    0x0000000000018981      0x5da NuttX/nuttx/arch/arm/src/libarch.a(up_sigdeliver.o)
 .debug_line    0x0000000000018f5b      0x3c5 NuttX/nuttx/arch/arm/src/libarch.a(up_stackframe.o)
 .debug_line    0x0000000000019320      0x59c NuttX/nuttx/arch/arm/src/libarch.a(up_unblocktask.o)
 .debug_line    0x00000000000198bc       0x57 NuttX/nuttx/arch/arm/src/libarch.a(up_fullcontextrestore.o)
 .debug_line    0x0000000000019913       0x53 NuttX/nuttx/arch/arm/src/libarch.a(up_switchcontext.o)
 .debug_line    0x0000000000019966      0x410 NuttX/nuttx/arch/arm/src/libarch.a(stm32_timerisr.o)
 .debug_line    0x0000000000019d76       0xbd NuttX/nuttx/libs/libc/libc.a(sq_addlast.o)
 .debug_line    0x0000000000019e33       0xbd NuttX/nuttx/libs/libc/libc.a(sq_addfirst.o)
 .debug_line    0x0000000000019ef0       0xc5 NuttX/nuttx/libs/libc/libc.a(sq_addafter.o)
 .debug_line    0x0000000000019fb5       0xc7 NuttX/nuttx/libs/libc/libc.a(sq_rem.o)
 .debug_line    0x000000000001a07c       0xbf NuttX/nuttx/libs/libc/libc.a(sq_remfirst.o)
 .debug_line    0x000000000001a13b       0xc9 NuttX/nuttx/libs/libc/libc.a(sq_remafter.o)
 .debug_line    0x000000000001a204       0xbf NuttX/nuttx/libs/libc/libc.a(dq_addfirst.o)
 .debug_line    0x000000000001a2c3       0xc1 NuttX/nuttx/libs/libc/libc.a(dq_rem.o)
 .debug_line    0x000000000001a384      0x279 NuttX/nuttx/libs/libc/libc.a(sem_getvalue.o)
 .debug_line    0x000000000001a5fd      0x272 NuttX/nuttx/libs/libc/libc.a(sem_setprotocol.o)
 .debug_line    0x000000000001a86f      0x155 NuttX/nuttx/libs/libc/libc.a(sig_addset.o)
 .debug_line    0x000000000001a9c4      0x155 NuttX/nuttx/libs/libc/libc.a(sig_delset.o)
 .debug_line    0x000000000001ab19      0x143 NuttX/nuttx/libs/libc/libc.a(sig_emptyset.o)
 .debug_line    0x000000000001ac5c      0x14a NuttX/nuttx/libs/libc/libc.a(sig_ismember.o)
 .debug_line    0x000000000001ada6      0x1c8 NuttX/nuttx/libs/libc/libc.a(lib_memset.o)
 .debug_line    0x000000000001af6e      0x1be NuttX/nuttx/libs/libc/libc.a(lib_strlen.o)
 .debug_line    0x000000000001b12c      0x1c7 NuttX/nuttx/libs/libc/libc.a(lib_calendar2utc.o)
 .debug_line    0x000000000001b2f3      0x1c2 NuttX/nuttx/libs/libc/libc.a(lib_daysbeforemonth.o)
 .debug_line    0x000000000001b4b5       0xcf NuttX/nuttx/libs/libc/libc.a(lib_isleapyear.o)
 .debug_line    0x000000000001b584      0x2d1 NuttX/nuttx/drivers/libdrivers.a(syslog_initialize.o)
 .debug_line    0x000000000001b855      0x2d3 NuttX/nuttx/drivers/libdrivers.a(syslog_consolechannel.o)
 .debug_line    0x000000000001bb28      0x539 NuttX/nuttx/drivers/libdrivers.a(syslog_device.o)
 .debug_line    0x000000000001c061      0x346 NuttX/nuttx/fs/libfs.a(fs_initialize.o)
 .debug_line    0x000000000001c3a7      0x485 NuttX/nuttx/fs/libfs.a(fs_files.o)
 .debug_line    0x000000000001c82c      0x354 NuttX/nuttx/fs/libfs.a(fs_inodeaddref.o)
 .debug_line    0x000000000001cb80      0x364 NuttX/nuttx/fs/libfs.a(fs_inoderelease.o)
 .debug_line    0x000000000001cee4      0x3bf NuttX/nuttx/fs/libfs.a(fs_fileopen.o)
 .debug_line    0x000000000001d2a3      0x390 NuttX/nuttx/fs/libfs.a(fs_filedetach.o)
 .debug_line    0x000000000001d633      0x369 NuttX/nuttx/fs/libfs.a(fs_close.o)
 .debug_line    0x000000000001d99c      0x36e NuttX/nuttx/fs/libfs.a(fs_dupfd2.o)
 .debug_line    0x000000000001dd0a      0x36b NuttX/nuttx/fs/libfs.a(fs_getfilep.o)
 .debug_line    0x000000000001e075      0x447 NuttX/nuttx/fs/libfs.a(fs_open.o)
 .debug_line    0x000000000001e4bc      0x39a NuttX/nuttx/fs/libfs.a(fs_write.o)
 .debug_line    0x000000000001e856      0x355 NuttX/nuttx/fs/libfs.a(fs_inodefind.o)
 .debug_line    0x000000000001ebab      0x363 NuttX/nuttx/fs/libfs.a(fs_inodefree.o)
 .debug_line    0x000000000001ef0e      0x23e NuttX/nuttx/mm/libmm.a(umm_initialize.o)
 .debug_line    0x000000000001f14c      0x248 NuttX/nuttx/mm/libmm.a(umm_sem.o)
 .debug_line    0x000000000001f394      0x243 NuttX/nuttx/mm/libmm.a(umm_free.o)
 .debug_line    0x000000000001f5d7      0x254 NuttX/nuttx/mm/libmm.a(umm_malloc.o)
 .debug_line    0x000000000001f82b      0x23e NuttX/nuttx/mm/libmm.a(umm_heapmember.o)
 .debug_line    0x000000000001fa69      0x2a1 NuttX/nuttx/mm/libmm.a(mm_initialize.o)
 .debug_line    0x000000000001fd0a      0x25c NuttX/nuttx/mm/libmm.a(mm_free.o)
 .debug_line    0x000000000001ff66      0x247 NuttX/nuttx/mm/libmm.a(mm_heapmember.o)
 .debug_line    0x00000000000201ad      0x40d NuttX/nuttx/sched/libsched.a(sched_getfiles.o)
 .debug_line    0x00000000000205ba      0x43f NuttX/nuttx/sched/libsched.a(sched_addreadytorun.o)
 .debug_line    0x00000000000209f9      0x43f NuttX/nuttx/sched/libsched.a(sched_removereadytorun.o)
 .debug_line    0x0000000000020e38      0x443 NuttX/nuttx/sched/libsched.a(sched_addprioritized.o)
 .debug_line    0x000000000002127b      0x460 NuttX/nuttx/sched/libsched.a(sched_mergepending.o)
 .debug_line    0x00000000000216db      0x41d NuttX/nuttx/sched/libsched.a(sched_addblocked.o)
 .debug_line    0x0000000000021af8      0x41e NuttX/nuttx/sched/libsched.a(sched_removeblocked.o)
 .debug_line    0x0000000000021f16      0x44e NuttX/nuttx/sched/libsched.a(sched_processtimer.o)
 .debug_line    0x0000000000022364      0x27e NuttX/nuttx/sched/libsched.a(sem_destroy.o)
 .debug_line    0x00000000000225e2      0x449 NuttX/nuttx/sched/libsched.a(task_exit.o)
 .debug_line    0x0000000000022a2b      0x45d NuttX/nuttx/sched/libsched.a(task_terminate.o)
 .debug_line    0x0000000000022e88       0xbe NuttX/nuttx/libs/libc/libc.a(dq_addlast.o)
 .debug_line    0x0000000000022f46      0x250 NuttX/nuttx/libs/libc/libc.a(lib_strdup.o)
 .debug_line    0x0000000000023196      0x4df src/modules/px4iofirmware/libpx4iofirmware.a(px4io.c.obj)
 .debug_line    0x0000000000023675      0x4c5 src/modules/px4iofirmware/libpx4iofirmware.a(registers.c.obj)
 .debug_line    0x0000000000023b3a      0x265 src/modules/px4iofirmware/libpx4iofirmware.a(safety.c.obj)
 .debug_line    0x0000000000023d9f      0x30f src/modules/px4iofirmware/libpx4iofirmware.a(serial.c.obj)
 .debug_line    0x00000000000240ae      0x234 src/modules/px4iofirmware/libpx4iofirmware.a(adc.c.obj)
 .debug_line    0x00000000000242e2      0x512 src/modules/px4iofirmware/libpx4iofirmware.a(controls.c.obj)
 .debug_line    0x00000000000247f4      0x853 src/modules/px4iofirmware/libpx4iofirmware.a(mixer.cpp.obj)
 .debug_line    0x0000000000025047      0x152 NuttX/apps/libapps.a(gnu_cxxinitialize.o)
 .debug_line    0x0000000000025199      0x371 platforms/nuttx/src/px4/stm/stm32f1/io_pins/libarch_io_pins.a(pwm_servo.c.obj)
 .debug_line    0x000000000002550a      0x720 platforms/nuttx/src/px4/stm/stm32f1/io_pins/libarch_io_pins.a(io_timer.c.obj)
 .debug_line    0x0000000000025c2a      0x5aa src/lib/mixer/libmixer.a(MixerGroup.cpp.obj)
 .debug_line    0x00000000000261d4      0x5b7 src/lib/mixer/HelicopterMixer/libHelicopterMixer.a(HelicopterMixer.cpp.obj)
 .debug_line    0x000000000002678b      0x71a src/lib/mixer/MultirotorMixer/libMultirotorMixer.a(MultirotorMixer.cpp.obj)
 .debug_line    0x0000000000026ea5      0x42c src/lib/mixer/NullMixer/libNullMixer.a(NullMixer.cpp.obj)
 .debug_line    0x00000000000272d1      0x5a1 src/lib/mixer/SimpleMixer/libSimpleMixer.a(SimpleMixer.cpp.obj)
 .debug_line    0x0000000000027872      0x394 src/lib/mixer/MixerBase/libMixerBase.a(Mixer.cpp.obj)
 .debug_line    0x0000000000027c06      0x331 src/lib/rc/librc.a(st24.cpp.obj)
 .debug_line    0x0000000000027f37      0x362 src/lib/rc/librc.a(sumd.cpp.obj)
 .debug_line    0x0000000000028299      0x41e src/lib/rc/librc.a(sbus.cpp.obj)
 .debug_line    0x00000000000286b7      0x5df src/lib/rc/librc.a(dsm.cpp.obj)
 .debug_line    0x0000000000028c96      0x238 src/lib/rc/librc.a(common_rc.cpp.obj)
 .debug_line    0x0000000000028ece      0x326 src/lib/output_limit/liboutput_limit.a(output_limit.cpp.obj)
 .debug_line    0x00000000000291f4      0x248 NuttX/nuttx/arch/arm/src/libarch.a(up_systemreset.o)
 .debug_line    0x000000000002943c      0x293 NuttX/nuttx/arch/arm/src/libarch.a(up_udelay.o)
 .debug_line    0x00000000000296cf      0x18a boards/px4/io-v2/src/libdrivers_board.a(init.c.obj)
 .debug_line    0x0000000000029859      0x29d boards/px4/io-v2/src/libdrivers_board.a(timer_config.cpp.obj)
 .debug_line    0x0000000000029af6      0x4a9 platforms/nuttx/src/px4/stm/stm32f1/hrt/libarch_hrt.a(hrt.c.obj)
 .debug_line    0x0000000000029f9f      0x251 NuttX/nuttx/libs/libxx/libxx.a(libxx_eabi_atexit.o)
 .debug_line    0x000000000002a1f0      0x251 NuttX/nuttx/libs/libxx/libxx.a(libxx_cxa_atexit.o)
 .debug_line    0x000000000002a441      0x24a NuttX/nuttx/libs/libxx/libxx.a(libxx_delete.o)
 .debug_line    0x000000000002a68b      0x24b NuttX/nuttx/libs/libxx/libxx.a(libxx_deletea.o)
 .debug_line    0x000000000002a8d6      0x255 NuttX/nuttx/libs/libxx/libxx.a(libxx_new.o)
 .debug_line    0x000000000002ab2b      0x256 NuttX/nuttx/libs/libxx/libxx.a(libxx_newa.o)
 .debug_line    0x000000000002ad81      0x1d2 NuttX/nuttx/libs/libc/libc.a(lib_crc32.o)
 .debug_line    0x000000000002af53      0x329 NuttX/nuttx/libs/libc/libc.a(lib_printf.o)
 .debug_line    0x000000000002b27c      0x2be NuttX/nuttx/libs/libc/libc.a(lib_vsnprintf.o)
 .debug_line    0x000000000002b53a      0x269 NuttX/nuttx/libs/libc/libc.a(lib_memoutstream.o)
 .debug_line    0x000000000002b7a3      0x25c NuttX/nuttx/libs/libc/libc.a(lib_nulloutstream.o)
 .debug_line    0x000000000002b9ff      0x2a6 NuttX/nuttx/libs/libc/libc.a(lib_sscanf.o)
 .debug_line    0x000000000002bca5      0x2b3 NuttX/nuttx/libs/libc/libc.a(lib_vsscanf.o)
 .debug_line    0x000000000002bf58      0x573 NuttX/nuttx/libs/libc/libc.a(lib_libvscanf.o)
 .debug_line    0x000000000002c4cb      0x245 NuttX/nuttx/libs/libc/libc.a(lib_libnoflush.o)
 .debug_line    0x000000000002c710      0x3f8 NuttX/nuttx/libs/libc/libc.a(lib_libvsprintf.o)
 .debug_line    0x000000000002cb08       0x5a NuttX/nuttx/libs/libc/libc.a(lib_ultoa_invert.o)
 .debug_line    0x000000000002cb62      0x282 NuttX/nuttx/libs/libc/libc.a(lib_strtol.o)
 .debug_line    0x000000000002cde4      0x293 NuttX/nuttx/libs/libc/libc.a(lib_strtoul.o)
 .debug_line    0x000000000002d077      0x271 NuttX/nuttx/libs/libc/libc.a(lib_checkbase.o)
 .debug_line    0x000000000002d2e8      0x263 NuttX/nuttx/libs/libc/libc.a(lib_isbasedigit.o)
 .debug_line    0x000000000002d54b      0x1c3 NuttX/nuttx/libs/libc/libc.a(lib_memchr.o)
 .debug_line    0x000000000002d70e      0x1c6 NuttX/nuttx/libs/libc/libc.a(lib_memmove.o)
 .debug_line    0x000000000002d8d4      0x252 NuttX/nuttx/libs/libc/libc.a(lib_skipspace.o)
 .debug_line    0x000000000002db26       0xbd NuttX/nuttx/libs/libc/libc.a(lib_strchr.o)
 .debug_line    0x000000000002dbe3       0xc2 NuttX/nuttx/libs/libc/libc.a(lib_strcmp.o)
 .debug_line    0x000000000002dca5      0x1c7 NuttX/nuttx/libs/libc/libc.a(lib_strnlen.o)
 .debug_line    0x000000000002de6c      0x1ce NuttX/nuttx/libs/libc/libc.a(lib_strncpy.o)
 .debug_line    0x000000000002e03a      0x258 NuttX/nuttx/libs/libc/libc.a(lib_syslog.o)
 .debug_line    0x000000000002e292      0x201 NuttX/nuttx/libs/libc/libc.a(lib_setlogmask.o)
 .debug_line    0x000000000002e493      0x1bf NuttX/nuttx/libs/libc/libc.a(lib_tcgetattr.o)
 .debug_line    0x000000000002e652      0x1c1 NuttX/nuttx/libs/libc/libc.a(lib_tcsetattr.o)
 .debug_line    0x000000000002e813      0x260 NuttX/nuttx/libs/libc/libc.a(lib_meminstream.o)
 .debug_line    0x000000000002ea73      0x33e NuttX/nuttx/drivers/libdrivers.a(vsyslog.o)
 .debug_line    0x000000000002edb1      0x2f8 NuttX/nuttx/drivers/libdrivers.a(syslog_stream.o)
 .debug_line    0x000000000002f0a9      0x2f4 NuttX/nuttx/drivers/libdrivers.a(syslog_emergstream.o)
 .debug_line    0x000000000002f39d      0x2ed NuttX/nuttx/drivers/libdrivers.a(syslog_putc.o)
 .debug_line    0x000000000002f68a      0x241 NuttX/nuttx/drivers/libdrivers.a(syslog_force.o)
 .debug_line    0x000000000002f8cb      0x396 NuttX/nuttx/fs/libfs.a(fs_ioctl.o)
 .debug_line    0x000000000002fc61      0x3ab NuttX/nuttx/fs/libfs.a(fs_read.o)
 .debug_line    0x000000000003000c      0x24f NuttX/nuttx/mm/libmm.a(umm_mallinfo.o)
 .debug_line    0x000000000003025b      0x269 NuttX/nuttx/mm/libmm.a(mm_mallinfo.o)

.debug_pubnames
 *(.debug_pubnames)

.debug_aranges  0x0000000000000000     0x2648
 *(.debug_aranges)
 .debug_aranges
                0x0000000000000000       0x28 NuttX/nuttx/arch/arm/src/libarch.a(stm32_start.o)
 .debug_aranges
                0x0000000000000028       0x20 NuttX/nuttx/arch/arm/src/libarch.a(stm32_rcc.o)
 .debug_aranges
                0x0000000000000048       0x40 NuttX/nuttx/arch/arm/src/libarch.a(stm32_gpio.o)
 .debug_aranges
                0x0000000000000088       0x28 NuttX/nuttx/arch/arm/src/libarch.a(stm32_lowputc.o)
 .debug_aranges
                0x00000000000000b0       0xf0 NuttX/nuttx/arch/arm/src/libarch.a(stm32_serial.o)
 .debug_aranges
                0x00000000000001a0       0x20 NuttX/nuttx/arch/arm/src/libarch.a(up_modifyreg32.o)
 .debug_aranges
                0x00000000000001c0       0x18 NuttX/nuttx/arch/arm/src/libarch.a(up_vectors.o)
 .debug_aranges
                0x00000000000001d8       0x20 NuttX/nuttx/arch/arm/src/libarch.a(up_exception.o)
 .debug_aranges
                0x00000000000001f8       0x40 NuttX/nuttx/arch/arm/src/libarch.a(stm32_irq.o)
 .debug_aranges
                0x0000000000000238       0x60 NuttX/nuttx/arch/arm/src/libarch.a(stm32_dma.o)
 .debug_aranges
                0x0000000000000298       0x20 NuttX/nuttx/arch/arm/src/libarch.a(up_hardfault.o)
 .debug_aranges
                0x00000000000002b8       0x20 NuttX/nuttx/arch/arm/src/libarch.a(up_svcall.o)
 .debug_aranges
                0x00000000000002d8       0x20 NuttX/nuttx/arch/arm/src/libarch.a(up_doirq.o)
 .debug_aranges
                0x00000000000002f8       0x20 NuttX/nuttx/arch/arm/src/libarch.a(up_assert.o)
 .debug_aranges
                0x0000000000000318       0x20 NuttX/nuttx/arch/arm/src/libarch.a(up_interruptcontext.o)
 .debug_aranges
                0x0000000000000338       0x28 NuttX/nuttx/libs/libc/libc.a(sem_init.o)
 .debug_aranges
                0x0000000000000360       0x20 NuttX/nuttx/libs/libc/libc.a(lib_abort.o)
 .debug_aranges
                0x0000000000000380       0x20 NuttX/nuttx/libs/libc/libc.a(lib_strcpy.o)
 .debug_aranges
                0x00000000000003a0       0x20 NuttX/nuttx/libs/libc/libc.a(lib_memcpy.o)
 .debug_aranges
                0x00000000000003c0       0x20 NuttX/nuttx/libs/libc/libc.a(lib_cfgetspeed.o)
 .debug_aranges
                0x00000000000003e0       0x20 NuttX/nuttx/libs/libc/libc.a(lib_cfsetspeed.o)
 .debug_aranges
                0x0000000000000400       0x90 NuttX/nuttx/drivers/libdrivers.a(serial.o)
 .debug_aranges
                0x0000000000000490       0x28 NuttX/nuttx/drivers/libdrivers.a(serial_io.o)
 .debug_aranges
                0x00000000000004b8       0x20 NuttX/nuttx/drivers/libdrivers.a(syslog_flush.o)
 .debug_aranges
                0x00000000000004d8       0x28 NuttX/nuttx/drivers/libdrivers.a(syslog_channel.o)
 .debug_aranges
                0x0000000000000500       0x20 NuttX/nuttx/fs/libfs.a(fs_registerdriver.o)
 .debug_aranges
                0x0000000000000520       0x30 NuttX/nuttx/fs/libfs.a(fs_inode.o)
 .debug_aranges
                0x0000000000000550       0x28 NuttX/nuttx/fs/libfs.a(fs_inodereserve.o)
 .debug_aranges
                0x0000000000000578       0x28 NuttX/nuttx/fs/libfs.a(fs_inodesearch.o)
 .debug_aranges
                0x00000000000005a0       0x20 NuttX/nuttx/mm/libmm.a(umm_zalloc.o)
 .debug_aranges
                0x00000000000005c0       0x18 NuttX/nuttx/mm/libmm.a(umm_globals.o)
 .debug_aranges
                0x00000000000005d8       0x20 NuttX/nuttx/mm/libmm.a(mm_zalloc.o)
 .debug_aranges
                0x00000000000005f8       0x20 NuttX/nuttx/mm/libmm.a(mm_malloc.o)
 .debug_aranges
                0x0000000000000618       0x38 NuttX/nuttx/mm/libmm.a(mm_sem.o)
 .debug_aranges
                0x0000000000000650       0x20 NuttX/nuttx/mm/libmm.a(mm_addfreechunk.o)
 .debug_aranges
                0x0000000000000670       0x20 NuttX/nuttx/mm/libmm.a(mm_size2ndx.o)
 .debug_aranges
                0x0000000000000690       0x30 NuttX/nuttx/sched/libsched.a(clock_initialize.o)
 .debug_aranges
                0x00000000000006c0       0x20 NuttX/nuttx/sched/libsched.a(clock_ticks2time.o)
 .debug_aranges
                0x00000000000006e0       0x20 NuttX/nuttx/sched/libsched.a(errno_getptr.o)
 .debug_aranges
                0x0000000000000700       0x20 NuttX/nuttx/sched/libsched.a(nx_start.o)
 .debug_aranges
                0x0000000000000720       0x20 NuttX/nuttx/sched/libsched.a(nx_bringup.o)
 .debug_aranges
                0x0000000000000740       0x20 NuttX/nuttx/sched/libsched.a(irq_attach.o)
 .debug_aranges
                0x0000000000000760       0x20 NuttX/nuttx/sched/libsched.a(irq_dispatch.o)
 .debug_aranges
                0x0000000000000780       0x20 NuttX/nuttx/sched/libsched.a(irq_unexpectedisr.o)
 .debug_aranges
                0x00000000000007a0       0x28 NuttX/nuttx/sched/libsched.a(sched_garbage.o)
 .debug_aranges
                0x00000000000007c8       0x20 NuttX/nuttx/sched/libsched.a(sched_idletask.o)
 .debug_aranges
                0x00000000000007e8       0x28 NuttX/nuttx/sched/libsched.a(sem_wait.o)
 .debug_aranges
                0x0000000000000810       0x28 NuttX/nuttx/sched/libsched.a(sem_trywait.o)
 .debug_aranges
                0x0000000000000838       0x28 NuttX/nuttx/sched/libsched.a(sem_post.o)
 .debug_aranges
                0x0000000000000860       0x20 NuttX/nuttx/sched/libsched.a(sem_reset.o)
 .debug_aranges
                0x0000000000000880       0x20 NuttX/nuttx/sched/libsched.a(sig_usleep.o)
 .debug_aranges
                0x00000000000008a0       0x38 NuttX/nuttx/sched/libsched.a(task_create.o)
 .debug_aranges
                0x00000000000008d8       0x28 NuttX/nuttx/sched/libsched.a(task_setup.o)
 .debug_aranges
                0x0000000000000900       0x20 NuttX/nuttx/sched/libsched.a(task_activate.o)
 .debug_aranges
                0x0000000000000920       0x20 NuttX/nuttx/sched/libsched.a(task_start.o)
 .debug_aranges
                0x0000000000000940       0x20 NuttX/nuttx/sched/libsched.a(task_getpid.o)
 .debug_aranges
                0x0000000000000960       0x20 NuttX/nuttx/sched/libsched.a(exit.o)
 .debug_aranges
                0x0000000000000980       0x28 NuttX/nuttx/sched/libsched.a(group_create.o)
 .debug_aranges
                0x00000000000009a8       0x20 NuttX/nuttx/sched/libsched.a(group_setupidlefiles.o)
 .debug_aranges
                0x00000000000009c8       0x20 NuttX/nuttx/sched/libsched.a(group_setuptaskfiles.o)
 .debug_aranges
                0x00000000000009e8       0x20 NuttX/nuttx/sched/libsched.a(irq_initialize.o)
 .debug_aranges
                0x0000000000000a08       0x20 NuttX/nuttx/sched/libsched.a(sched_releasetcb.o)
 .debug_aranges
                0x0000000000000a28       0x20 NuttX/nuttx/sched/libsched.a(sched_lock.o)
 .debug_aranges
                0x0000000000000a48       0x20 NuttX/nuttx/sched/libsched.a(sched_unlock.o)
 .debug_aranges
                0x0000000000000a68       0x28 NuttX/nuttx/sched/libsched.a(sig_procmask.o)
 .debug_aranges
                0x0000000000000a90       0x20 NuttX/nuttx/sched/libsched.a(sig_unmaskpendingsignal.o)
 .debug_aranges
                0x0000000000000ab0       0x20 NuttX/nuttx/sched/libsched.a(sig_removependingsignal.o)
 .debug_aranges
                0x0000000000000ad0       0x20 NuttX/nuttx/sched/libsched.a(sig_releasependingsignal.o)
 .debug_aranges
                0x0000000000000af0       0x20 NuttX/nuttx/sched/libsched.a(sig_lowest.o)
 .debug_aranges
                0x0000000000000b10       0x28 NuttX/nuttx/sched/libsched.a(sig_dispatch.o)
 .debug_aranges
                0x0000000000000b38       0x20 NuttX/nuttx/sched/libsched.a(sig_deliver.o)
 .debug_aranges
                0x0000000000000b58       0x28 NuttX/nuttx/sched/libsched.a(sig_nanosleep.o)
 .debug_aranges
                0x0000000000000b80       0x20 NuttX/nuttx/sched/libsched.a(task_exithook.o)
 .debug_aranges
                0x0000000000000ba0       0x20 NuttX/nuttx/sched/libsched.a(task_recover.o)
 .debug_aranges
                0x0000000000000bc0       0x20 NuttX/nuttx/sched/libsched.a(wd_recover.o)
 .debug_aranges
                0x0000000000000be0       0x20 NuttX/nuttx/sched/libsched.a(clock_time2ticks.o)
 .debug_aranges
                0x0000000000000c00       0x20 NuttX/nuttx/sched/libsched.a(group_leave.o)
 .debug_aranges
                0x0000000000000c20       0x28 NuttX/nuttx/sched/libsched.a(sched_free.o)
 .debug_aranges
                0x0000000000000c48       0x20 NuttX/nuttx/sched/libsched.a(sched_gettcb.o)
 .debug_aranges
                0x0000000000000c68       0x20 NuttX/nuttx/sched/libsched.a(sem_recover.o)
 .debug_aranges
                0x0000000000000c88       0x20 NuttX/nuttx/sched/libsched.a(sem_waitirq.o)
 .debug_aranges
                0x0000000000000ca8       0x28 NuttX/nuttx/sched/libsched.a(sig_initialize.o)
 .debug_aranges
                0x0000000000000cd0       0x28 NuttX/nuttx/sched/libsched.a(sig_pending.o)
 .debug_aranges
                0x0000000000000cf8       0x30 NuttX/nuttx/sched/libsched.a(sig_timedwait.o)
 .debug_aranges
                0x0000000000000d28       0x20 NuttX/nuttx/sched/libsched.a(sig_findaction.o)
 .debug_aranges
                0x0000000000000d48       0x20 NuttX/nuttx/sched/libsched.a(sig_allocpendingsigaction.o)
 .debug_aranges
                0x0000000000000d68       0x20 NuttX/nuttx/sched/libsched.a(sig_releasependingsigaction.o)
 .debug_aranges
                0x0000000000000d88       0x28 NuttX/nuttx/sched/libsched.a(sig_cleanup.o)
 .debug_aranges
                0x0000000000000db0       0x20 NuttX/nuttx/sched/libsched.a(wd_create.o)
 .debug_aranges
                0x0000000000000dd0       0x28 NuttX/nuttx/sched/libsched.a(wd_start.o)
 .debug_aranges
                0x0000000000000df8       0x20 NuttX/nuttx/sched/libsched.a(wd_cancel.o)
 .debug_aranges
                0x0000000000000e18       0x20 NuttX/nuttx/sched/libsched.a(wd_delete.o)
 .debug_aranges
                0x0000000000000e38       0x30 NuttX/nuttx/sched/libsched.a(sig_action.o)
 .debug_aranges
                0x0000000000000e68       0x20 NuttX/nuttx/sched/libsched.a(wd_initialize.o)
 .debug_aranges
                0x0000000000000e88       0x20 NuttX/nuttx/arch/arm/src/libarch.a(stm32_allocateheap.o)
 .debug_aranges
                0x0000000000000ea8       0x20 NuttX/nuttx/arch/arm/src/libarch.a(stm32_idle.o)
 .debug_aranges
                0x0000000000000ec8       0x20 NuttX/nuttx/arch/arm/src/libarch.a(up_blocktask.o)
 .debug_aranges
                0x0000000000000ee8       0x20 NuttX/nuttx/arch/arm/src/libarch.a(up_copyfullstate.o)
 .debug_aranges
                0x0000000000000f08       0x28 NuttX/nuttx/arch/arm/src/libarch.a(up_createstack.o)
 .debug_aranges
                0x0000000000000f30       0x20 NuttX/nuttx/arch/arm/src/libarch.a(up_exit.o)
 .debug_aranges
                0x0000000000000f50       0x20 NuttX/nuttx/arch/arm/src/libarch.a(up_initialize.o)
 .debug_aranges
                0x0000000000000f70       0x20 NuttX/nuttx/arch/arm/src/libarch.a(up_initialstate.o)
 .debug_aranges
                0x0000000000000f90       0x20 NuttX/nuttx/arch/arm/src/libarch.a(up_releasepending.o)
 .debug_aranges
                0x0000000000000fb0       0x20 NuttX/nuttx/arch/arm/src/libarch.a(up_releasestack.o)
 .debug_aranges
                0x0000000000000fd0       0x20 NuttX/nuttx/arch/arm/src/libarch.a(up_schedulesigaction.o)
 .debug_aranges
                0x0000000000000ff0       0x20 NuttX/nuttx/arch/arm/src/libarch.a(up_sigdeliver.o)
 .debug_aranges
                0x0000000000001010       0x20 NuttX/nuttx/arch/arm/src/libarch.a(up_stackframe.o)
 .debug_aranges
                0x0000000000001030       0x20 NuttX/nuttx/arch/arm/src/libarch.a(up_unblocktask.o)
 .debug_aranges
                0x0000000000001050       0x20 NuttX/nuttx/arch/arm/src/libarch.a(up_fullcontextrestore.o)
 .debug_aranges
                0x0000000000001070       0x20 NuttX/nuttx/arch/arm/src/libarch.a(up_switchcontext.o)
 .debug_aranges
                0x0000000000001090       0x28 NuttX/nuttx/arch/arm/src/libarch.a(stm32_timerisr.o)
 .debug_aranges
                0x00000000000010b8       0x20 NuttX/nuttx/libs/libc/libc.a(sq_addlast.o)
 .debug_aranges
                0x00000000000010d8       0x20 NuttX/nuttx/libs/libc/libc.a(sq_addfirst.o)
 .debug_aranges
                0x00000000000010f8       0x20 NuttX/nuttx/libs/libc/libc.a(sq_addafter.o)
 .debug_aranges
                0x0000000000001118       0x20 NuttX/nuttx/libs/libc/libc.a(sq_rem.o)
 .debug_aranges
                0x0000000000001138       0x20 NuttX/nuttx/libs/libc/libc.a(sq_remfirst.o)
 .debug_aranges
                0x0000000000001158       0x20 NuttX/nuttx/libs/libc/libc.a(sq_remafter.o)
 .debug_aranges
                0x0000000000001178       0x20 NuttX/nuttx/libs/libc/libc.a(dq_addfirst.o)
 .debug_aranges
                0x0000000000001198       0x20 NuttX/nuttx/libs/libc/libc.a(dq_rem.o)
 .debug_aranges
                0x00000000000011b8       0x28 NuttX/nuttx/libs/libc/libc.a(sem_getvalue.o)
 .debug_aranges
                0x00000000000011e0       0x28 NuttX/nuttx/libs/libc/libc.a(sem_setprotocol.o)
 .debug_aranges
                0x0000000000001208       0x20 NuttX/nuttx/libs/libc/libc.a(sig_addset.o)
 .debug_aranges
                0x0000000000001228       0x20 NuttX/nuttx/libs/libc/libc.a(sig_delset.o)
 .debug_aranges
                0x0000000000001248       0x20 NuttX/nuttx/libs/libc/libc.a(sig_emptyset.o)
 .debug_aranges
                0x0000000000001268       0x20 NuttX/nuttx/libs/libc/libc.a(sig_ismember.o)
 .debug_aranges
                0x0000000000001288       0x20 NuttX/nuttx/libs/libc/libc.a(lib_memset.o)
 .debug_aranges
                0x00000000000012a8       0x20 NuttX/nuttx/libs/libc/libc.a(lib_strlen.o)
 .debug_aranges
                0x00000000000012c8       0x20 NuttX/nuttx/libs/libc/libc.a(lib_calendar2utc.o)
 .debug_aranges
                0x00000000000012e8       0x20 NuttX/nuttx/libs/libc/libc.a(lib_daysbeforemonth.o)
 .debug_aranges
                0x0000000000001308       0x20 NuttX/nuttx/libs/libc/libc.a(lib_isleapyear.o)
 .debug_aranges
                0x0000000000001328       0x20 NuttX/nuttx/drivers/libdrivers.a(syslog_initialize.o)
 .debug_aranges
                0x0000000000001348       0x20 NuttX/nuttx/drivers/libdrivers.a(syslog_consolechannel.o)
 .debug_aranges
                0x0000000000001368       0x48 NuttX/nuttx/drivers/libdrivers.a(syslog_device.o)
 .debug_aranges
                0x00000000000013b0       0x20 NuttX/nuttx/fs/libfs.a(fs_initialize.o)
 .debug_aranges
                0x00000000000013d0       0x60 NuttX/nuttx/fs/libfs.a(fs_files.o)
 .debug_aranges
                0x0000000000001430       0x20 NuttX/nuttx/fs/libfs.a(fs_inodeaddref.o)
 .debug_aranges
                0x0000000000001450       0x20 NuttX/nuttx/fs/libfs.a(fs_inoderelease.o)
 .debug_aranges
                0x0000000000001470       0x20 NuttX/nuttx/fs/libfs.a(fs_fileopen.o)
 .debug_aranges
                0x0000000000001490       0x20 NuttX/nuttx/fs/libfs.a(fs_filedetach.o)
 .debug_aranges
                0x00000000000014b0       0x20 NuttX/nuttx/fs/libfs.a(fs_close.o)
 .debug_aranges
                0x00000000000014d0       0x20 NuttX/nuttx/fs/libfs.a(fs_dupfd2.o)
 .debug_aranges
                0x00000000000014f0       0x20 NuttX/nuttx/fs/libfs.a(fs_getfilep.o)
 .debug_aranges
                0x0000000000001510       0x38 NuttX/nuttx/fs/libfs.a(fs_open.o)
 .debug_aranges
                0x0000000000001548       0x30 NuttX/nuttx/fs/libfs.a(fs_write.o)
 .debug_aranges
                0x0000000000001578       0x20 NuttX/nuttx/fs/libfs.a(fs_inodefind.o)
 .debug_aranges
                0x0000000000001598       0x20 NuttX/nuttx/fs/libfs.a(fs_inodefree.o)
 .debug_aranges
                0x00000000000015b8       0x20 NuttX/nuttx/mm/libmm.a(umm_initialize.o)
 .debug_aranges
                0x00000000000015d8       0x28 NuttX/nuttx/mm/libmm.a(umm_sem.o)
 .debug_aranges
                0x0000000000001600       0x20 NuttX/nuttx/mm/libmm.a(umm_free.o)
 .debug_aranges
                0x0000000000001620       0x20 NuttX/nuttx/mm/libmm.a(umm_malloc.o)
 .debug_aranges
                0x0000000000001640       0x20 NuttX/nuttx/mm/libmm.a(umm_heapmember.o)
 .debug_aranges
                0x0000000000001660       0x28 NuttX/nuttx/mm/libmm.a(mm_initialize.o)
 .debug_aranges
                0x0000000000001688       0x20 NuttX/nuttx/mm/libmm.a(mm_free.o)
 .debug_aranges
                0x00000000000016a8       0x20 NuttX/nuttx/mm/libmm.a(mm_heapmember.o)
 .debug_aranges
                0x00000000000016c8       0x20 NuttX/nuttx/sched/libsched.a(sched_getfiles.o)
 .debug_aranges
                0x00000000000016e8       0x20 NuttX/nuttx/sched/libsched.a(sched_addreadytorun.o)
 .debug_aranges
                0x0000000000001708       0x20 NuttX/nuttx/sched/libsched.a(sched_removereadytorun.o)
 .debug_aranges
                0x0000000000001728       0x20 NuttX/nuttx/sched/libsched.a(sched_addprioritized.o)
 .debug_aranges
                0x0000000000001748       0x20 NuttX/nuttx/sched/libsched.a(sched_mergepending.o)
 .debug_aranges
                0x0000000000001768       0x20 NuttX/nuttx/sched/libsched.a(sched_addblocked.o)
 .debug_aranges
                0x0000000000001788       0x20 NuttX/nuttx/sched/libsched.a(sched_removeblocked.o)
 .debug_aranges
                0x00000000000017a8       0x20 NuttX/nuttx/sched/libsched.a(sched_processtimer.o)
 .debug_aranges
                0x00000000000017c8       0x28 NuttX/nuttx/sched/libsched.a(sem_destroy.o)
 .debug_aranges
                0x00000000000017f0       0x20 NuttX/nuttx/sched/libsched.a(task_exit.o)
 .debug_aranges
                0x0000000000001810       0x20 NuttX/nuttx/sched/libsched.a(task_terminate.o)
 .debug_aranges
                0x0000000000001830       0x20 NuttX/nuttx/libs/libc/libc.a(dq_addlast.o)
 .debug_aranges
                0x0000000000001850       0x20 NuttX/nuttx/libs/libc/libc.a(lib_strdup.o)
 .debug_aranges
                0x0000000000001870       0x48 src/modules/px4iofirmware/libpx4iofirmware.a(px4io.c.obj)
 .debug_aranges
                0x00000000000018b8       0x30 src/modules/px4iofirmware/libpx4iofirmware.a(registers.c.obj)
 .debug_aranges
                0x00000000000018e8       0x38 src/modules/px4iofirmware/libpx4iofirmware.a(safety.c.obj)
 .debug_aranges
                0x0000000000001920       0x38 src/modules/px4iofirmware/libpx4iofirmware.a(serial.c.obj)
 .debug_aranges
                0x0000000000001958       0x28 src/modules/px4iofirmware/libpx4iofirmware.a(adc.c.obj)
 .debug_aranges
                0x0000000000001980       0x28 src/modules/px4iofirmware/libpx4iofirmware.a(controls.c.obj)
 .debug_aranges
                0x00000000000019a8       0x60 src/modules/px4iofirmware/libpx4iofirmware.a(mixer.cpp.obj)
 .debug_aranges
                0x0000000000001a08       0x20 NuttX/apps/libapps.a(gnu_cxxinitialize.o)
 .debug_aranges
                0x0000000000001a28       0x60 platforms/nuttx/src/px4/stm/stm32f1/io_pins/libarch_io_pins.a(pwm_servo.c.obj)
 .debug_aranges
                0x0000000000001a88       0xb8 platforms/nuttx/src/px4/stm/stm32f1/io_pins/libarch_io_pins.a(io_timer.c.obj)
 .debug_aranges
                0x0000000000001b40       0x70 src/lib/mixer/libmixer.a(MixerGroup.cpp.obj)
 .debug_aranges
                0x0000000000001bb0       0x80 src/lib/mixer/HelicopterMixer/libHelicopterMixer.a(HelicopterMixer.cpp.obj)
 .debug_aranges
                0x0000000000001c30       0xa8 src/lib/mixer/MultirotorMixer/libMultirotorMixer.a(MultirotorMixer.cpp.obj)
 .debug_aranges
                0x0000000000001cd8       0x78 src/lib/mixer/NullMixer/libNullMixer.a(NullMixer.cpp.obj)
 .debug_aranges
                0x0000000000001d50       0xa8 src/lib/mixer/SimpleMixer/libSimpleMixer.a(SimpleMixer.cpp.obj)
 .debug_aranges
                0x0000000000001df8       0x40 src/lib/mixer/MixerBase/libMixerBase.a(Mixer.cpp.obj)
 .debug_aranges
                0x0000000000001e38       0x28 src/lib/rc/librc.a(st24.cpp.obj)
 .debug_aranges
                0x0000000000001e60       0x30 src/lib/rc/librc.a(sumd.cpp.obj)
 .debug_aranges
                0x0000000000001e90       0x58 src/lib/rc/librc.a(sbus.cpp.obj)
 .debug_aranges
                0x0000000000001ee8       0x70 src/lib/rc/librc.a(dsm.cpp.obj)
 .debug_aranges
                0x0000000000001f58       0x18 src/lib/rc/librc.a(common_rc.cpp.obj)
 .debug_aranges
                0x0000000000001f70       0x28 src/lib/output_limit/liboutput_limit.a(output_limit.cpp.obj)
 .debug_aranges
                0x0000000000001f98       0x20 NuttX/nuttx/arch/arm/src/libarch.a(up_systemreset.o)
 .debug_aranges
                0x0000000000001fb8       0x20 NuttX/nuttx/arch/arm/src/libarch.a(up_udelay.o)
 .debug_aranges
                0x0000000000001fd8       0x20 boards/px4/io-v2/src/libdrivers_board.a(init.c.obj)
 .debug_aranges
                0x0000000000001ff8       0x18 boards/px4/io-v2/src/libdrivers_board.a(timer_config.cpp.obj)
 .debug_aranges
                0x0000000000002010       0xa0 platforms/nuttx/src/px4/stm/stm32f1/hrt/libarch_hrt.a(hrt.c.obj)
 .debug_aranges
                0x00000000000020b0       0x20 NuttX/nuttx/libs/libxx/libxx.a(libxx_eabi_atexit.o)
 .debug_aranges
                0x00000000000020d0       0x20 NuttX/nuttx/libs/libxx/libxx.a(libxx_cxa_atexit.o)
 .debug_aranges
                0x00000000000020f0       0x20 NuttX/nuttx/libs/libxx/libxx.a(libxx_delete.o)
 .debug_aranges
                0x0000000000002110       0x20 NuttX/nuttx/libs/libxx/libxx.a(libxx_deletea.o)
 .debug_aranges
                0x0000000000002130       0x20 NuttX/nuttx/libs/libxx/libxx.a(libxx_new.o)
 .debug_aranges
                0x0000000000002150       0x20 NuttX/nuttx/libs/libxx/libxx.a(libxx_newa.o)
 .debug_aranges
                0x0000000000002170       0x28 NuttX/nuttx/libs/libc/libc.a(lib_crc32.o)
 .debug_aranges
                0x0000000000002198       0x20 NuttX/nuttx/libs/libc/libc.a(lib_printf.o)
 .debug_aranges
                0x00000000000021b8       0x20 NuttX/nuttx/libs/libc/libc.a(lib_vsnprintf.o)
 .debug_aranges
                0x00000000000021d8       0x28 NuttX/nuttx/libs/libc/libc.a(lib_memoutstream.o)
 .debug_aranges
                0x0000000000002200       0x28 NuttX/nuttx/libs/libc/libc.a(lib_nulloutstream.o)
 .debug_aranges
                0x0000000000002228       0x20 NuttX/nuttx/libs/libc/libc.a(lib_sscanf.o)
 .debug_aranges
                0x0000000000002248       0x20 NuttX/nuttx/libs/libc/libc.a(lib_vsscanf.o)
 .debug_aranges
                0x0000000000002268       0x28 NuttX/nuttx/libs/libc/libc.a(lib_libvscanf.o)
 .debug_aranges
                0x0000000000002290       0x20 NuttX/nuttx/libs/libc/libc.a(lib_libnoflush.o)
 .debug_aranges
                0x00000000000022b0       0x20 NuttX/nuttx/libs/libc/libc.a(lib_libvsprintf.o)
 .debug_aranges
                0x00000000000022d0       0x20 NuttX/nuttx/libs/libc/libc.a(lib_ultoa_invert.o)
 .debug_aranges
                0x00000000000022f0       0x20 NuttX/nuttx/libs/libc/libc.a(lib_strtol.o)
 .debug_aranges
                0x0000000000002310       0x20 NuttX/nuttx/libs/libc/libc.a(lib_strtoul.o)
 .debug_aranges
                0x0000000000002330       0x20 NuttX/nuttx/libs/libc/libc.a(lib_checkbase.o)
 .debug_aranges
                0x0000000000002350       0x20 NuttX/nuttx/libs/libc/libc.a(lib_isbasedigit.o)
 .debug_aranges
                0x0000000000002370       0x20 NuttX/nuttx/libs/libc/libc.a(lib_memchr.o)
 .debug_aranges
                0x0000000000002390       0x20 NuttX/nuttx/libs/libc/libc.a(lib_memmove.o)
 .debug_aranges
                0x00000000000023b0       0x20 NuttX/nuttx/libs/libc/libc.a(lib_skipspace.o)
 .debug_aranges
                0x00000000000023d0       0x20 NuttX/nuttx/libs/libc/libc.a(lib_strchr.o)
 .debug_aranges
                0x00000000000023f0       0x20 NuttX/nuttx/libs/libc/libc.a(lib_strcmp.o)
 .debug_aranges
                0x0000000000002410       0x20 NuttX/nuttx/libs/libc/libc.a(lib_strnlen.o)
 .debug_aranges
                0x0000000000002430       0x20 NuttX/nuttx/libs/libc/libc.a(lib_strncpy.o)
 .debug_aranges
                0x0000000000002450       0x28 NuttX/nuttx/libs/libc/libc.a(lib_syslog.o)
 .debug_aranges
                0x0000000000002478       0x20 NuttX/nuttx/libs/libc/libc.a(lib_setlogmask.o)
 .debug_aranges
                0x0000000000002498       0x20 NuttX/nuttx/libs/libc/libc.a(lib_tcgetattr.o)
 .debug_aranges
                0x00000000000024b8       0x20 NuttX/nuttx/libs/libc/libc.a(lib_tcsetattr.o)
 .debug_aranges
                0x00000000000024d8       0x28 NuttX/nuttx/libs/libc/libc.a(lib_meminstream.o)
 .debug_aranges
                0x0000000000002500       0x20 NuttX/nuttx/drivers/libdrivers.a(vsyslog.o)
 .debug_aranges
                0x0000000000002520       0x28 NuttX/nuttx/drivers/libdrivers.a(syslog_stream.o)
 .debug_aranges
                0x0000000000002548       0x28 NuttX/nuttx/drivers/libdrivers.a(syslog_emergstream.o)
 .debug_aranges
                0x0000000000002570       0x20 NuttX/nuttx/drivers/libdrivers.a(syslog_putc.o)
 .debug_aranges
                0x0000000000002590       0x20 NuttX/nuttx/drivers/libdrivers.a(syslog_force.o)
 .debug_aranges
                0x00000000000025b0       0x28 NuttX/nuttx/fs/libfs.a(fs_ioctl.o)
 .debug_aranges
                0x00000000000025d8       0x30 NuttX/nuttx/fs/libfs.a(fs_read.o)
 .debug_aranges
                0x0000000000002608       0x20 NuttX/nuttx/mm/libmm.a(umm_mallinfo.o)
 .debug_aranges
                0x0000000000002628       0x20 NuttX/nuttx/mm/libmm.a(mm_mallinfo.o)
START GROUP
LOAD NuttX/apps/libapps.a
LOAD NuttX/nuttx/arch/arm/src/libarch.a
LOAD NuttX/nuttx/binfmt/libbinfmt.a
LOAD NuttX/nuttx/libs/libc/libc.a
LOAD NuttX/nuttx/boards/libboards.a
LOAD NuttX/nuttx/libs/libxx/libxx.a
LOAD NuttX/nuttx/drivers/libdrivers.a
LOAD NuttX/nuttx/fs/libfs.a
LOAD NuttX/nuttx/mm/libmm.a
LOAD NuttX/nuttx/sched/libsched.a
END GROUP
LOAD /opt/gcc-arm-none-eabi-7-2017-q4-major/bin/../lib/gcc/arm-none-eabi/7.2.1/../../../../arm-none-eabi/lib/thumb/v7-m/libm.a
LOAD /opt/gcc-arm-none-eabi-7-2017-q4-major/bin/../lib/gcc/arm-none-eabi/7.2.1/thumb/v7-m/libgcc.a
LOAD src/modules/px4iofirmware/libpx4iofirmware.a
LOAD NuttX/apps/libapps.a
LOAD platforms/nuttx/src/px4/stm/stm32f1/io_pins/libarch_io_pins.a
LOAD src/lib/mixer/libmixer.a
LOAD src/lib/mixer/HelicopterMixer/libHelicopterMixer.a
LOAD src/lib/mixer/MultirotorMixer/libMultirotorMixer.a
LOAD src/lib/mixer/NullMixer/libNullMixer.a
LOAD src/lib/mixer/SimpleMixer/libSimpleMixer.a
LOAD src/lib/mixer/MixerBase/libMixerBase.a
LOAD src/lib/rc/librc.a
LOAD src/lib/output_limit/liboutput_limit.a
LOAD NuttX/nuttx/arch/arm/src/libarch.a
LOAD boards/px4/io-v2/src/libdrivers_board.a
LOAD platforms/nuttx/src/px4/stm/stm32f1/hrt/libarch_hrt.a
LOAD src/lib/parameters/libparameters.a
LOAD src/lib/parameters/flashparams/libflashparams.a
LOAD NuttX/nuttx/arch/arm/src/libarch.a
LOAD boards/px4/io-v2/src/libdrivers_board.a
LOAD platforms/nuttx/src/px4/stm/stm32f1/hrt/libarch_hrt.a
LOAD src/lib/parameters/libparameters.a
LOAD src/lib/parameters/flashparams/libflashparams.a
LOAD NuttX/nuttx/libs/libxx/libxx.a
LOAD NuttX/nuttx/libs/libc/libc.a
LOAD NuttX/nuttx/drivers/libdrivers.a
LOAD NuttX/nuttx/fs/libfs.a
LOAD NuttX/nuttx/mm/libmm.a
LOAD NuttX/nuttx/sched/libsched.a
LOAD /opt/gcc-arm-none-eabi-7-2017-q4-major/bin/../lib/gcc/arm-none-eabi/7.2.1/../../../../arm-none-eabi/lib/thumb/v7-m/libm.a
LOAD /opt/gcc-arm-none-eabi-7-2017-q4-major/bin/../lib/gcc/arm-none-eabi/7.2.1/thumb/v7-m/libgcc.a
LOAD src/lib/parameters/tinybson/libtinybson.a
LOAD platforms/common/libpx4_platform.a
LOAD msg/libuorb_msgs.a
OUTPUT(px4_io-v2_default.elf elf32-littlearm)

.debug_loc      0x0000000000000000    0x14493
 .debug_loc     0x0000000000000000       0x4e NuttX/nuttx/arch/arm/src/libarch.a(stm32_start.o)
 .debug_loc     0x000000000000004e       0xde NuttX/nuttx/arch/arm/src/libarch.a(stm32_rcc.o)
 .debug_loc     0x000000000000012c      0x50d NuttX/nuttx/arch/arm/src/libarch.a(stm32_gpio.o)
 .debug_loc     0x0000000000000639       0x7d NuttX/nuttx/arch/arm/src/libarch.a(stm32_lowputc.o)
 .debug_loc     0x00000000000006b6     0x1502 NuttX/nuttx/arch/arm/src/libarch.a(stm32_serial.o)
 .debug_loc     0x0000000000001bb8       0x98 NuttX/nuttx/arch/arm/src/libarch.a(up_modifyreg32.o)
 .debug_loc     0x0000000000001c50      0x220 NuttX/nuttx/arch/arm/src/libarch.a(stm32_irq.o)
 .debug_loc     0x0000000000001e70      0x808 NuttX/nuttx/arch/arm/src/libarch.a(stm32_dma.o)
 .debug_loc     0x0000000000002678       0x78 NuttX/nuttx/arch/arm/src/libarch.a(up_hardfault.o)
 .debug_loc     0x00000000000026f0      0x16d NuttX/nuttx/arch/arm/src/libarch.a(up_svcall.o)
 .debug_loc     0x000000000000285d       0x68 NuttX/nuttx/arch/arm/src/libarch.a(up_doirq.o)
 .debug_loc     0x00000000000028c5       0x57 NuttX/nuttx/arch/arm/src/libarch.a(up_assert.o)
 .debug_loc     0x000000000000291c      0x1a6 NuttX/nuttx/libs/libc/libc.a(sem_init.o)
 .debug_loc     0x0000000000002ac2       0x3e NuttX/nuttx/libs/libc/libc.a(lib_strcpy.o)
 .debug_loc     0x0000000000002b00       0x77 NuttX/nuttx/libs/libc/libc.a(lib_memcpy.o)
 .debug_loc     0x0000000000002b77       0x21 NuttX/nuttx/libs/libc/libc.a(lib_cfgetspeed.o)
 .debug_loc     0x0000000000002b98       0x21 NuttX/nuttx/libs/libc/libc.a(lib_cfsetspeed.o)
 .debug_loc     0x0000000000002bb9      0xe66 NuttX/nuttx/drivers/libdrivers.a(serial.o)
 .debug_loc     0x0000000000003a1f      0x14d NuttX/nuttx/drivers/libdrivers.a(serial_io.o)
 .debug_loc     0x0000000000003b6c       0x3b NuttX/nuttx/drivers/libdrivers.a(syslog_channel.o)
 .debug_loc     0x0000000000003ba7       0xb3 NuttX/nuttx/fs/libfs.a(fs_registerdriver.o)
 .debug_loc     0x0000000000003c5a       0x3e NuttX/nuttx/fs/libfs.a(fs_inode.o)
 .debug_loc     0x0000000000003c98      0x3b8 NuttX/nuttx/fs/libfs.a(fs_inodereserve.o)
 .debug_loc     0x0000000000004050      0x296 NuttX/nuttx/fs/libfs.a(fs_inodesearch.o)
 .debug_loc     0x00000000000042e6       0x2c NuttX/nuttx/mm/libmm.a(umm_zalloc.o)
 .debug_loc     0x0000000000004312       0x5d NuttX/nuttx/mm/libmm.a(mm_zalloc.o)
 .debug_loc     0x000000000000436f      0x11f NuttX/nuttx/mm/libmm.a(mm_malloc.o)
 .debug_loc     0x000000000000448e       0xdf NuttX/nuttx/mm/libmm.a(mm_sem.o)
 .debug_loc     0x000000000000456d       0xb0 NuttX/nuttx/mm/libmm.a(mm_addfreechunk.o)
 .debug_loc     0x000000000000461d       0x62 NuttX/nuttx/mm/libmm.a(mm_size2ndx.o)
 .debug_loc     0x000000000000467f       0x4b NuttX/nuttx/sched/libsched.a(clock_initialize.o)
 .debug_loc     0x00000000000046ca       0x5e NuttX/nuttx/sched/libsched.a(clock_ticks2time.o)
 .debug_loc     0x0000000000004728       0x13 NuttX/nuttx/sched/libsched.a(errno_getptr.o)
 .debug_loc     0x000000000000473b       0x3f NuttX/nuttx/sched/libsched.a(nx_start.o)
 .debug_loc     0x000000000000477a      0x101 NuttX/nuttx/sched/libsched.a(irq_attach.o)
 .debug_loc     0x000000000000487b       0xc2 NuttX/nuttx/sched/libsched.a(irq_dispatch.o)
 .debug_loc     0x000000000000493d       0x78 NuttX/nuttx/sched/libsched.a(irq_unexpectedisr.o)
 .debug_loc     0x00000000000049b5       0x40 NuttX/nuttx/sched/libsched.a(sched_garbage.o)
 .debug_loc     0x00000000000049f5      0x189 NuttX/nuttx/sched/libsched.a(sem_wait.o)
 .debug_loc     0x0000000000004b7e       0xf4 NuttX/nuttx/sched/libsched.a(sem_trywait.o)
 .debug_loc     0x0000000000004c72      0x12d NuttX/nuttx/sched/libsched.a(sem_post.o)
 .debug_loc     0x0000000000004d9f       0x95 NuttX/nuttx/sched/libsched.a(sem_reset.o)
 .debug_loc     0x0000000000004e34       0x70 NuttX/nuttx/sched/libsched.a(sig_usleep.o)
 .debug_loc     0x0000000000004ea4      0x38c NuttX/nuttx/sched/libsched.a(task_create.o)
 .debug_loc     0x0000000000005230      0x54d NuttX/nuttx/sched/libsched.a(task_setup.o)
 .debug_loc     0x000000000000577d       0x4e NuttX/nuttx/sched/libsched.a(task_activate.o)
 .debug_loc     0x00000000000057cb       0x5b NuttX/nuttx/sched/libsched.a(task_start.o)
 .debug_loc     0x0000000000005826       0x1e NuttX/nuttx/sched/libsched.a(task_getpid.o)
 .debug_loc     0x0000000000005844       0x31 NuttX/nuttx/sched/libsched.a(exit.o)
 .debug_loc     0x0000000000005875       0x92 NuttX/nuttx/sched/libsched.a(group_create.o)
 .debug_loc     0x0000000000005907       0x78 NuttX/nuttx/sched/libsched.a(group_setupidlefiles.o)
 .debug_loc     0x000000000000597f       0x44 NuttX/nuttx/sched/libsched.a(group_setuptaskfiles.o)
 .debug_loc     0x00000000000059c3       0x14 NuttX/nuttx/sched/libsched.a(irq_initialize.o)
 .debug_loc     0x00000000000059d7       0x7f NuttX/nuttx/sched/libsched.a(sched_releasetcb.o)
 .debug_loc     0x0000000000005a56       0x13 NuttX/nuttx/sched/libsched.a(sched_lock.o)
 .debug_loc     0x0000000000005a69       0x53 NuttX/nuttx/sched/libsched.a(sched_unlock.o)
 .debug_loc     0x0000000000005abc      0x19c NuttX/nuttx/sched/libsched.a(sig_procmask.o)
 .debug_loc     0x0000000000005c58       0x47 NuttX/nuttx/sched/libsched.a(sig_unmaskpendingsignal.o)
 .debug_loc     0x0000000000005c9f      0x10d NuttX/nuttx/sched/libsched.a(sig_removependingsignal.o)
 .debug_loc     0x0000000000005dac       0x7c NuttX/nuttx/sched/libsched.a(sig_releasependingsignal.o)
 .debug_loc     0x0000000000005e28       0x3d NuttX/nuttx/sched/libsched.a(sig_lowest.o)
 .debug_loc     0x0000000000005e65      0x43f NuttX/nuttx/sched/libsched.a(sig_dispatch.o)
 .debug_loc     0x00000000000062a4       0xbb NuttX/nuttx/sched/libsched.a(sig_deliver.o)
 .debug_loc     0x000000000000635f      0x23e NuttX/nuttx/sched/libsched.a(sig_nanosleep.o)
 .debug_loc     0x000000000000659d       0x60 NuttX/nuttx/sched/libsched.a(task_exithook.o)
 .debug_loc     0x00000000000065fd       0x37 NuttX/nuttx/sched/libsched.a(task_recover.o)
 .debug_loc     0x0000000000006634       0x5e NuttX/nuttx/sched/libsched.a(wd_recover.o)
 .debug_loc     0x0000000000006692       0x9d NuttX/nuttx/sched/libsched.a(clock_time2ticks.o)
 .debug_loc     0x000000000000672f       0x34 NuttX/nuttx/sched/libsched.a(group_leave.o)
 .debug_loc     0x0000000000006763       0x59 NuttX/nuttx/sched/libsched.a(sched_free.o)
 .debug_loc     0x00000000000067bc       0x74 NuttX/nuttx/sched/libsched.a(sched_gettcb.o)
 .debug_loc     0x0000000000006830       0x53 NuttX/nuttx/sched/libsched.a(sem_recover.o)
 .debug_loc     0x0000000000006883       0x95 NuttX/nuttx/sched/libsched.a(sem_waitirq.o)
 .debug_loc     0x0000000000006918      0x1da NuttX/nuttx/sched/libsched.a(sig_initialize.o)
 .debug_loc     0x0000000000006af2       0xf4 NuttX/nuttx/sched/libsched.a(sig_pending.o)
 .debug_loc     0x0000000000006be6      0x252 NuttX/nuttx/sched/libsched.a(sig_timedwait.o)
 .debug_loc     0x0000000000006e38       0x74 NuttX/nuttx/sched/libsched.a(sig_findaction.o)
 .debug_loc     0x0000000000006eac       0x56 NuttX/nuttx/sched/libsched.a(sig_allocpendingsigaction.o)
 .debug_loc     0x0000000000006f02       0x7c NuttX/nuttx/sched/libsched.a(sig_releasependingsigaction.o)
 .debug_loc     0x0000000000006f7e       0xc6 NuttX/nuttx/sched/libsched.a(sig_cleanup.o)
 .debug_loc     0x0000000000007044       0x33 NuttX/nuttx/sched/libsched.a(wd_create.o)
 .debug_loc     0x0000000000007077      0x210 NuttX/nuttx/sched/libsched.a(wd_start.o)
 .debug_loc     0x0000000000007287      0x129 NuttX/nuttx/sched/libsched.a(wd_cancel.o)
 .debug_loc     0x00000000000073b0       0x33 NuttX/nuttx/sched/libsched.a(wd_delete.o)
 .debug_loc     0x00000000000073e3      0x25c NuttX/nuttx/sched/libsched.a(sig_action.o)
 .debug_loc     0x000000000000763f       0x48 NuttX/nuttx/sched/libsched.a(wd_initialize.o)
 .debug_loc     0x0000000000007687       0xd1 NuttX/nuttx/arch/arm/src/libarch.a(up_blocktask.o)
 .debug_loc     0x0000000000007758       0x59 NuttX/nuttx/arch/arm/src/libarch.a(up_copyfullstate.o)
 .debug_loc     0x00000000000077b1      0x123 NuttX/nuttx/arch/arm/src/libarch.a(up_createstack.o)
 .debug_loc     0x00000000000078d4       0x57 NuttX/nuttx/arch/arm/src/libarch.a(up_exit.o)
 .debug_loc     0x000000000000792b       0x4d NuttX/nuttx/arch/arm/src/libarch.a(up_initialstate.o)
 .debug_loc     0x0000000000007978       0x66 NuttX/nuttx/arch/arm/src/libarch.a(up_releasepending.o)
 .debug_loc     0x00000000000079de       0x3f NuttX/nuttx/arch/arm/src/libarch.a(up_releasestack.o)
 .debug_loc     0x0000000000007a1d       0xd7 NuttX/nuttx/arch/arm/src/libarch.a(up_schedulesigaction.o)
 .debug_loc     0x0000000000007af4       0x2a NuttX/nuttx/arch/arm/src/libarch.a(up_sigdeliver.o)
 .debug_loc     0x0000000000007b1e       0x5f NuttX/nuttx/arch/arm/src/libarch.a(up_stackframe.o)
 .debug_loc     0x0000000000007b7d       0x92 NuttX/nuttx/arch/arm/src/libarch.a(up_unblocktask.o)
 .debug_loc     0x0000000000007c0f       0x86 NuttX/nuttx/arch/arm/src/libarch.a(stm32_timerisr.o)
 .debug_loc     0x0000000000007c95       0xa8 NuttX/nuttx/libs/libc/libc.a(sq_addafter.o)
 .debug_loc     0x0000000000007d3d       0x76 NuttX/nuttx/libs/libc/libc.a(sq_rem.o)
 .debug_loc     0x0000000000007db3       0x21 NuttX/nuttx/libs/libc/libc.a(sq_remfirst.o)
 .debug_loc     0x0000000000007dd4       0x42 NuttX/nuttx/libs/libc/libc.a(sq_remafter.o)
 .debug_loc     0x0000000000007e16       0x1e NuttX/nuttx/libs/libc/libc.a(dq_rem.o)
 .debug_loc     0x0000000000007e34       0xb5 NuttX/nuttx/libs/libc/libc.a(sem_getvalue.o)
 .debug_loc     0x0000000000007ee9       0xc5 NuttX/nuttx/libs/libc/libc.a(sem_setprotocol.o)
 .debug_loc     0x0000000000007fae       0x74 NuttX/nuttx/libs/libc/libc.a(sig_addset.o)
 .debug_loc     0x0000000000008022       0x74 NuttX/nuttx/libs/libc/libc.a(sig_delset.o)
 .debug_loc     0x0000000000008096       0x21 NuttX/nuttx/libs/libc/libc.a(sig_emptyset.o)
 .debug_loc     0x00000000000080b7       0x4e NuttX/nuttx/libs/libc/libc.a(sig_ismember.o)
 .debug_loc     0x0000000000008105       0x3e NuttX/nuttx/libs/libc/libc.a(lib_memset.o)
 .debug_loc     0x0000000000008143       0x57 NuttX/nuttx/libs/libc/libc.a(lib_strlen.o)
 .debug_loc     0x000000000000819a       0xef NuttX/nuttx/libs/libc/libc.a(lib_calendar2utc.o)
 .debug_loc     0x0000000000008289       0x21 NuttX/nuttx/libs/libc/libc.a(lib_daysbeforemonth.o)
 .debug_loc     0x00000000000082aa       0x2c NuttX/nuttx/libs/libc/libc.a(lib_isleapyear.o)
 .debug_loc     0x00000000000082d6       0x3a NuttX/nuttx/drivers/libdrivers.a(syslog_initialize.o)
 .debug_loc     0x0000000000008310       0x1e NuttX/nuttx/drivers/libdrivers.a(syslog_consolechannel.o)
 .debug_loc     0x000000000000832e      0x303 NuttX/nuttx/drivers/libdrivers.a(syslog_device.o)
 .debug_loc     0x0000000000008631      0x3bb NuttX/nuttx/fs/libfs.a(fs_files.o)
 .debug_loc     0x00000000000089ec       0x37 NuttX/nuttx/fs/libfs.a(fs_inodeaddref.o)
 .debug_loc     0x0000000000008a23       0x5b NuttX/nuttx/fs/libfs.a(fs_inoderelease.o)
 .debug_loc     0x0000000000008a7e       0xaa NuttX/nuttx/fs/libfs.a(fs_fileopen.o)
 .debug_loc     0x0000000000008b28       0xe0 NuttX/nuttx/fs/libfs.a(fs_filedetach.o)
 .debug_loc     0x0000000000008c08       0x6b NuttX/nuttx/fs/libfs.a(fs_close.o)
 .debug_loc     0x0000000000008c73       0xd1 NuttX/nuttx/fs/libfs.a(fs_dupfd2.o)
 .debug_loc     0x0000000000008d44       0x86 NuttX/nuttx/fs/libfs.a(fs_getfilep.o)
 .debug_loc     0x0000000000008dca      0x229 NuttX/nuttx/fs/libfs.a(fs_open.o)
 .debug_loc     0x0000000000008ff3      0x205 NuttX/nuttx/fs/libfs.a(fs_write.o)
 .debug_loc     0x00000000000091f8       0x4f NuttX/nuttx/fs/libfs.a(fs_inodefind.o)
 .debug_loc     0x0000000000009247       0x42 NuttX/nuttx/fs/libfs.a(fs_inodefree.o)
 .debug_loc     0x0000000000009289       0x58 NuttX/nuttx/mm/libmm.a(umm_initialize.o)
 .debug_loc     0x00000000000092e1       0x2c NuttX/nuttx/mm/libmm.a(umm_free.o)
 .debug_loc     0x000000000000930d       0x2c NuttX/nuttx/mm/libmm.a(umm_malloc.o)
 .debug_loc     0x0000000000009339       0x2c NuttX/nuttx/mm/libmm.a(umm_heapmember.o)
 .debug_loc     0x0000000000009365      0x230 NuttX/nuttx/mm/libmm.a(mm_initialize.o)
 .debug_loc     0x0000000000009595       0xf3 NuttX/nuttx/mm/libmm.a(mm_free.o)
 .debug_loc     0x0000000000009688       0x3a NuttX/nuttx/mm/libmm.a(mm_heapmember.o)
 .debug_loc     0x00000000000096c2       0x1f NuttX/nuttx/sched/libsched.a(sched_getfiles.o)
 .debug_loc     0x00000000000096e1       0x72 NuttX/nuttx/sched/libsched.a(sched_addreadytorun.o)
 .debug_loc     0x0000000000009753       0x67 NuttX/nuttx/sched/libsched.a(sched_removereadytorun.o)
 .debug_loc     0x00000000000097ba       0xdc NuttX/nuttx/sched/libsched.a(sched_addprioritized.o)
 .debug_loc     0x0000000000009896       0x79 NuttX/nuttx/sched/libsched.a(sched_mergepending.o)
 .debug_loc     0x000000000000990f       0x73 NuttX/nuttx/sched/libsched.a(sched_addblocked.o)
 .debug_loc     0x0000000000009982       0x40 NuttX/nuttx/sched/libsched.a(sched_removeblocked.o)
 .debug_loc     0x00000000000099c2       0x94 NuttX/nuttx/sched/libsched.a(sem_destroy.o)
 .debug_loc     0x0000000000009a56       0x4f NuttX/nuttx/sched/libsched.a(task_exit.o)
 .debug_loc     0x0000000000009aa5       0x96 NuttX/nuttx/sched/libsched.a(task_terminate.o)
 .debug_loc     0x0000000000009b3b       0x48 NuttX/nuttx/libs/libc/libc.a(lib_strdup.o)
 .debug_loc     0x0000000000009b83      0x39b src/modules/px4iofirmware/libpx4iofirmware.a(px4io.c.obj)
 .debug_loc     0x0000000000009f1e     0x1137 src/modules/px4iofirmware/libpx4iofirmware.a(registers.c.obj)
 .debug_loc     0x000000000000b055       0x7c src/modules/px4iofirmware/libpx4iofirmware.a(safety.c.obj)
 .debug_loc     0x000000000000b0d1      0x272 src/modules/px4iofirmware/libpx4iofirmware.a(serial.c.obj)
 .debug_loc     0x000000000000b343       0x61 src/modules/px4iofirmware/libpx4iofirmware.a(adc.c.obj)
 .debug_loc     0x000000000000b3a4      0x4f5 src/modules/px4iofirmware/libpx4iofirmware.a(controls.c.obj)
 .debug_loc     0x000000000000b899      0x4b4 src/modules/px4iofirmware/libpx4iofirmware.a(mixer.cpp.obj)
 .debug_loc     0x000000000000bd4d       0x3e NuttX/apps/libapps.a(gnu_cxxinitialize.o)
 .debug_loc     0x000000000000bd8b      0x1d1 platforms/nuttx/src/px4/stm/stm32f1/io_pins/libarch_io_pins.a(pwm_servo.c.obj)
 .debug_loc     0x000000000000bf5c     0x100a platforms/nuttx/src/px4/stm/stm32f1/io_pins/libarch_io_pins.a(io_timer.c.obj)
 .debug_loc     0x000000000000cf66      0x6af src/lib/mixer/libmixer.a(MixerGroup.cpp.obj)
 .debug_loc     0x000000000000d615      0x82e src/lib/mixer/HelicopterMixer/libHelicopterMixer.a(HelicopterMixer.cpp.obj)
 .debug_loc     0x000000000000de43      0xeb3 src/lib/mixer/MultirotorMixer/libMultirotorMixer.a(MultirotorMixer.cpp.obj)
 .debug_loc     0x000000000000ecf6      0x19a src/lib/mixer/NullMixer/libNullMixer.a(NullMixer.cpp.obj)
 .debug_loc     0x000000000000ee90      0x78b src/lib/mixer/SimpleMixer/libSimpleMixer.a(SimpleMixer.cpp.obj)
 .debug_loc     0x000000000000f61b      0x18d src/lib/mixer/MixerBase/libMixerBase.a(Mixer.cpp.obj)
 .debug_loc     0x000000000000f7a8      0x3bc src/lib/rc/librc.a(st24.cpp.obj)
 .debug_loc     0x000000000000fb64      0x42e src/lib/rc/librc.a(sumd.cpp.obj)
 .debug_loc     0x000000000000ff92      0x75f src/lib/rc/librc.a(sbus.cpp.obj)
 .debug_loc     0x00000000000106f1      0xad6 src/lib/rc/librc.a(dsm.cpp.obj)
 .debug_loc     0x00000000000111c7      0x315 src/lib/output_limit/liboutput_limit.a(output_limit.cpp.obj)
 .debug_loc     0x00000000000114dc       0x1e NuttX/nuttx/arch/arm/src/libarch.a(up_systemreset.o)
 .debug_loc     0x00000000000114fa       0x1e NuttX/nuttx/arch/arm/src/libarch.a(up_udelay.o)
 .debug_loc     0x0000000000011518       0x1a boards/px4/io-v2/src/libdrivers_board.a(init.c.obj)
 .debug_loc     0x0000000000011532      0x91c platforms/nuttx/src/px4/stm/stm32f1/hrt/libarch_hrt.a(hrt.c.obj)
 .debug_loc     0x0000000000011e4e       0x79 NuttX/nuttx/libs/libxx/libxx.a(libxx_eabi_atexit.o)
 .debug_loc     0x0000000000011ec7       0x21 NuttX/nuttx/libs/libxx/libxx.a(libxx_cxa_atexit.o)
 .debug_loc     0x0000000000011ee8       0x21 NuttX/nuttx/libs/libxx/libxx.a(libxx_delete.o)
 .debug_loc     0x0000000000011f09       0x21 NuttX/nuttx/libs/libxx/libxx.a(libxx_deletea.o)
 .debug_loc     0x0000000000011f2a       0x4e NuttX/nuttx/libs/libxx/libxx.a(libxx_new.o)
 .debug_loc     0x0000000000011f78       0x4e NuttX/nuttx/libs/libxx/libxx.a(libxx_newa.o)
 .debug_loc     0x0000000000011fc6       0xfb NuttX/nuttx/libs/libc/libc.a(lib_crc32.o)
 .debug_loc     0x00000000000120c1      0x11e NuttX/nuttx/libs/libc/libc.a(lib_vsnprintf.o)
 .debug_loc     0x00000000000121df       0x41 NuttX/nuttx/libs/libc/libc.a(lib_memoutstream.o)
 .debug_loc     0x0000000000012220       0x21 NuttX/nuttx/libs/libc/libc.a(lib_sscanf.o)
 .debug_loc     0x0000000000012241       0x68 NuttX/nuttx/libs/libc/libc.a(lib_vsscanf.o)
 .debug_loc     0x00000000000122a9      0x981 NuttX/nuttx/libs/libc/libc.a(lib_libvscanf.o)
 .debug_loc     0x0000000000012c2a       0x21 NuttX/nuttx/libs/libc/libc.a(lib_libnoflush.o)
 .debug_loc     0x0000000000012c4b      0x6b3 NuttX/nuttx/libs/libc/libc.a(lib_libvsprintf.o)
 .debug_loc     0x00000000000132fe       0xa8 NuttX/nuttx/libs/libc/libc.a(lib_ultoa_invert.o)
 .debug_loc     0x00000000000133a6      0x168 NuttX/nuttx/libs/libc/libc.a(lib_strtol.o)
 .debug_loc     0x000000000001350e      0x199 NuttX/nuttx/libs/libc/libc.a(lib_strtoul.o)
 .debug_loc     0x00000000000136a7       0xda NuttX/nuttx/libs/libc/libc.a(lib_checkbase.o)
 .debug_loc     0x0000000000013781      0x11f NuttX/nuttx/libs/libc/libc.a(lib_isbasedigit.o)
 .debug_loc     0x00000000000138a0       0xb8 NuttX/nuttx/libs/libc/libc.a(lib_memchr.o)
 .debug_loc     0x0000000000013958       0xd3 NuttX/nuttx/libs/libc/libc.a(lib_memmove.o)
 .debug_loc     0x0000000000013a2b       0x47 NuttX/nuttx/libs/libc/libc.a(lib_skipspace.o)
 .debug_loc     0x0000000000013a72       0x3c NuttX/nuttx/libs/libc/libc.a(lib_strchr.o)
 .debug_loc     0x0000000000013aae       0x63 NuttX/nuttx/libs/libc/libc.a(lib_strcmp.o)
 .debug_loc     0x0000000000013b11       0x6a NuttX/nuttx/libs/libc/libc.a(lib_strnlen.o)
 .debug_loc     0x0000000000013b7b       0x77 NuttX/nuttx/libs/libc/libc.a(lib_strncpy.o)
 .debug_loc     0x0000000000013bf2       0x63 NuttX/nuttx/libs/libc/libc.a(lib_syslog.o)
 .debug_loc     0x0000000000013c55       0x36 NuttX/nuttx/libs/libc/libc.a(lib_setlogmask.o)
 .debug_loc     0x0000000000013c8b       0x4d NuttX/nuttx/libs/libc/libc.a(lib_tcgetattr.o)
 .debug_loc     0x0000000000013cd8       0x92 NuttX/nuttx/libs/libc/libc.a(lib_tcsetattr.o)
 .debug_loc     0x0000000000013d6a       0x3e NuttX/nuttx/libs/libc/libc.a(lib_meminstream.o)
 .debug_loc     0x0000000000013da8       0xc1 NuttX/nuttx/drivers/libdrivers.a(vsyslog.o)
 .debug_loc     0x0000000000013e69       0x67 NuttX/nuttx/drivers/libdrivers.a(syslog_stream.o)
 .debug_loc     0x0000000000013ed0       0x67 NuttX/nuttx/drivers/libdrivers.a(syslog_emergstream.o)
 .debug_loc     0x0000000000013f37       0x42 NuttX/nuttx/drivers/libdrivers.a(syslog_putc.o)
 .debug_loc     0x0000000000013f79       0x21 NuttX/nuttx/drivers/libdrivers.a(syslog_force.o)
 .debug_loc     0x0000000000013f9a      0x1d1 NuttX/nuttx/fs/libfs.a(fs_ioctl.o)
 .debug_loc     0x000000000001416b      0x23a NuttX/nuttx/fs/libfs.a(fs_read.o)
 .debug_loc     0x00000000000143a5       0xee NuttX/nuttx/mm/libmm.a(mm_mallinfo.o)

.debug_ranges   0x0000000000000000     0x2e48
 .debug_ranges  0x0000000000000000       0x18 NuttX/nuttx/arch/arm/src/libarch.a(stm32_start.o)
 .debug_ranges  0x0000000000000018       0x40 NuttX/nuttx/arch/arm/src/libarch.a(stm32_rcc.o)
 .debug_ranges  0x0000000000000058       0x30 NuttX/nuttx/arch/arm/src/libarch.a(stm32_gpio.o)
 .debug_ranges  0x0000000000000088       0x18 NuttX/nuttx/arch/arm/src/libarch.a(stm32_lowputc.o)
 .debug_ranges  0x00000000000000a0      0x258 NuttX/nuttx/arch/arm/src/libarch.a(stm32_serial.o)
 .debug_ranges  0x00000000000002f8       0x10 NuttX/nuttx/arch/arm/src/libarch.a(up_modifyreg32.o)
 .debug_ranges  0x0000000000000308       0x50 NuttX/nuttx/arch/arm/src/libarch.a(stm32_irq.o)
 .debug_ranges  0x0000000000000358       0x80 NuttX/nuttx/arch/arm/src/libarch.a(stm32_dma.o)
 .debug_ranges  0x00000000000003d8       0x10 NuttX/nuttx/arch/arm/src/libarch.a(up_hardfault.o)
 .debug_ranges  0x00000000000003e8       0x10 NuttX/nuttx/arch/arm/src/libarch.a(up_svcall.o)
 .debug_ranges  0x00000000000003f8       0x10 NuttX/nuttx/arch/arm/src/libarch.a(up_doirq.o)
 .debug_ranges  0x0000000000000408       0x10 NuttX/nuttx/arch/arm/src/libarch.a(up_assert.o)
 .debug_ranges  0x0000000000000418       0x10 NuttX/nuttx/arch/arm/src/libarch.a(up_interruptcontext.o)
 .debug_ranges  0x0000000000000428       0x18 NuttX/nuttx/libs/libc/libc.a(sem_init.o)
 .debug_ranges  0x0000000000000440       0x10 NuttX/nuttx/libs/libc/libc.a(lib_abort.o)
 .debug_ranges  0x0000000000000450       0x10 NuttX/nuttx/libs/libc/libc.a(lib_strcpy.o)
 .debug_ranges  0x0000000000000460       0x10 NuttX/nuttx/libs/libc/libc.a(lib_memcpy.o)
 .debug_ranges  0x0000000000000470       0x10 NuttX/nuttx/libs/libc/libc.a(lib_cfgetspeed.o)
 .debug_ranges  0x0000000000000480       0x10 NuttX/nuttx/libs/libc/libc.a(lib_cfsetspeed.o)
 .debug_ranges  0x0000000000000490      0x200 NuttX/nuttx/drivers/libdrivers.a(serial.o)
 .debug_ranges  0x0000000000000690       0x30 NuttX/nuttx/drivers/libdrivers.a(serial_io.o)
 .debug_ranges  0x00000000000006c0       0x10 NuttX/nuttx/drivers/libdrivers.a(syslog_flush.o)
 .debug_ranges  0x00000000000006d0       0x18 NuttX/nuttx/drivers/libdrivers.a(syslog_channel.o)
 .debug_ranges  0x00000000000006e8       0x10 NuttX/nuttx/fs/libfs.a(fs_registerdriver.o)
 .debug_ranges  0x00000000000006f8       0x20 NuttX/nuttx/fs/libfs.a(fs_inode.o)
 .debug_ranges  0x0000000000000718       0xa0 NuttX/nuttx/fs/libfs.a(fs_inodereserve.o)
 .debug_ranges  0x00000000000007b8       0x70 NuttX/nuttx/fs/libfs.a(fs_inodesearch.o)
 .debug_ranges  0x0000000000000828       0x10 NuttX/nuttx/mm/libmm.a(umm_zalloc.o)
 .debug_ranges  0x0000000000000838       0x10 NuttX/nuttx/mm/libmm.a(mm_zalloc.o)
 .debug_ranges  0x0000000000000848       0x10 NuttX/nuttx/mm/libmm.a(mm_malloc.o)
 .debug_ranges  0x0000000000000858       0x40 NuttX/nuttx/mm/libmm.a(mm_sem.o)
 .debug_ranges  0x0000000000000898       0x10 NuttX/nuttx/mm/libmm.a(mm_addfreechunk.o)
 .debug_ranges  0x00000000000008a8       0x10 NuttX/nuttx/mm/libmm.a(mm_size2ndx.o)
 .debug_ranges  0x00000000000008b8       0x50 NuttX/nuttx/sched/libsched.a(clock_initialize.o)
 .debug_ranges  0x0000000000000908       0x10 NuttX/nuttx/sched/libsched.a(clock_ticks2time.o)
 .debug_ranges  0x0000000000000918       0x10 NuttX/nuttx/sched/libsched.a(errno_getptr.o)
 .debug_ranges  0x0000000000000928       0x50 NuttX/nuttx/sched/libsched.a(nx_start.o)
 .debug_ranges  0x0000000000000978       0x10 NuttX/nuttx/sched/libsched.a(nx_bringup.o)
 .debug_ranges  0x0000000000000988       0x28 NuttX/nuttx/sched/libsched.a(irq_attach.o)
 .debug_ranges  0x00000000000009b0       0x10 NuttX/nuttx/sched/libsched.a(irq_dispatch.o)
 .debug_ranges  0x00000000000009c0       0x10 NuttX/nuttx/sched/libsched.a(irq_unexpectedisr.o)
 .debug_ranges  0x00000000000009d0       0x60 NuttX/nuttx/sched/libsched.a(sched_garbage.o)
 .debug_ranges  0x0000000000000a30       0x10 NuttX/nuttx/sched/libsched.a(sched_idletask.o)
 .debug_ranges  0x0000000000000a40       0x18 NuttX/nuttx/sched/libsched.a(sem_wait.o)
 .debug_ranges  0x0000000000000a58       0x30 NuttX/nuttx/sched/libsched.a(sem_trywait.o)
 .debug_ranges  0x0000000000000a88       0x18 NuttX/nuttx/sched/libsched.a(sem_post.o)
 .debug_ranges  0x0000000000000aa0       0x10 NuttX/nuttx/sched/libsched.a(sem_reset.o)
 .debug_ranges  0x0000000000000ab0       0x10 NuttX/nuttx/sched/libsched.a(sig_usleep.o)
 .debug_ranges  0x0000000000000ac0       0x28 NuttX/nuttx/sched/libsched.a(task_create.o)
 .debug_ranges  0x0000000000000ae8       0x70 NuttX/nuttx/sched/libsched.a(task_setup.o)
 .debug_ranges  0x0000000000000b58       0x10 NuttX/nuttx/sched/libsched.a(task_activate.o)
 .debug_ranges  0x0000000000000b68       0x10 NuttX/nuttx/sched/libsched.a(task_start.o)
 .debug_ranges  0x0000000000000b78       0x10 NuttX/nuttx/sched/libsched.a(task_getpid.o)
 .debug_ranges  0x0000000000000b88       0x10 NuttX/nuttx/sched/libsched.a(exit.o)
 .debug_ranges  0x0000000000000b98       0x18 NuttX/nuttx/sched/libsched.a(group_create.o)
 .debug_ranges  0x0000000000000bb0       0x10 NuttX/nuttx/sched/libsched.a(group_setupidlefiles.o)
 .debug_ranges  0x0000000000000bc0       0x10 NuttX/nuttx/sched/libsched.a(group_setuptaskfiles.o)
 .debug_ranges  0x0000000000000bd0       0x10 NuttX/nuttx/sched/libsched.a(irq_initialize.o)
 .debug_ranges  0x0000000000000be0       0x10 NuttX/nuttx/sched/libsched.a(sched_releasetcb.o)
 .debug_ranges  0x0000000000000bf0       0x10 NuttX/nuttx/sched/libsched.a(sched_lock.o)
 .debug_ranges  0x0000000000000c00       0x10 NuttX/nuttx/sched/libsched.a(sched_unlock.o)
 .debug_ranges  0x0000000000000c10       0x18 NuttX/nuttx/sched/libsched.a(sig_procmask.o)
 .debug_ranges  0x0000000000000c28       0x10 NuttX/nuttx/sched/libsched.a(sig_unmaskpendingsignal.o)
 .debug_ranges  0x0000000000000c38       0x10 NuttX/nuttx/sched/libsched.a(sig_removependingsignal.o)
 .debug_ranges  0x0000000000000c48       0x10 NuttX/nuttx/sched/libsched.a(sig_releasependingsignal.o)
 .debug_ranges  0x0000000000000c58       0x10 NuttX/nuttx/sched/libsched.a(sig_lowest.o)
 .debug_ranges  0x0000000000000c68       0x78 NuttX/nuttx/sched/libsched.a(sig_dispatch.o)
 .debug_ranges  0x0000000000000ce0       0x58 NuttX/nuttx/sched/libsched.a(sig_deliver.o)
 .debug_ranges  0x0000000000000d38       0x30 NuttX/nuttx/sched/libsched.a(sig_nanosleep.o)
 .debug_ranges  0x0000000000000d68       0x10 NuttX/nuttx/sched/libsched.a(task_exithook.o)
 .debug_ranges  0x0000000000000d78       0x10 NuttX/nuttx/sched/libsched.a(task_recover.o)
 .debug_ranges  0x0000000000000d88       0x10 NuttX/nuttx/sched/libsched.a(wd_recover.o)
 .debug_ranges  0x0000000000000d98       0x10 NuttX/nuttx/sched/libsched.a(clock_time2ticks.o)
 .debug_ranges  0x0000000000000da8       0x10 NuttX/nuttx/sched/libsched.a(group_leave.o)
 .debug_ranges  0x0000000000000db8       0x18 NuttX/nuttx/sched/libsched.a(sched_free.o)
 .debug_ranges  0x0000000000000dd0       0x28 NuttX/nuttx/sched/libsched.a(sched_gettcb.o)
 .debug_ranges  0x0000000000000df8       0x10 NuttX/nuttx/sched/libsched.a(sem_recover.o)
 .debug_ranges  0x0000000000000e08       0x10 NuttX/nuttx/sched/libsched.a(sem_waitirq.o)
 .debug_ranges  0x0000000000000e18       0x30 NuttX/nuttx/sched/libsched.a(sig_initialize.o)
 .debug_ranges  0x0000000000000e48       0x18 NuttX/nuttx/sched/libsched.a(sig_pending.o)
 .debug_ranges  0x0000000000000e60       0x20 NuttX/nuttx/sched/libsched.a(sig_timedwait.o)
 .debug_ranges  0x0000000000000e80       0x10 NuttX/nuttx/sched/libsched.a(sig_findaction.o)
 .debug_ranges  0x0000000000000e90       0x10 NuttX/nuttx/sched/libsched.a(sig_allocpendingsigaction.o)
 .debug_ranges  0x0000000000000ea0       0x10 NuttX/nuttx/sched/libsched.a(sig_releasependingsigaction.o)
 .debug_ranges  0x0000000000000eb0       0x18 NuttX/nuttx/sched/libsched.a(sig_cleanup.o)
 .debug_ranges  0x0000000000000ec8       0x10 NuttX/nuttx/sched/libsched.a(wd_create.o)
 .debug_ranges  0x0000000000000ed8       0x38 NuttX/nuttx/sched/libsched.a(wd_start.o)
 .debug_ranges  0x0000000000000f10       0x10 NuttX/nuttx/sched/libsched.a(wd_cancel.o)
 .debug_ranges  0x0000000000000f20       0x10 NuttX/nuttx/sched/libsched.a(wd_delete.o)
 .debug_ranges  0x0000000000000f30       0x20 NuttX/nuttx/sched/libsched.a(sig_action.o)
 .debug_ranges  0x0000000000000f50       0x10 NuttX/nuttx/sched/libsched.a(wd_initialize.o)
 .debug_ranges  0x0000000000000f60       0x10 NuttX/nuttx/arch/arm/src/libarch.a(stm32_allocateheap.o)
 .debug_ranges  0x0000000000000f70       0x10 NuttX/nuttx/arch/arm/src/libarch.a(stm32_idle.o)
 .debug_ranges  0x0000000000000f80       0x28 NuttX/nuttx/arch/arm/src/libarch.a(up_blocktask.o)
 .debug_ranges  0x0000000000000fa8       0x10 NuttX/nuttx/arch/arm/src/libarch.a(up_copyfullstate.o)
 .debug_ranges  0x0000000000000fb8       0x18 NuttX/nuttx/arch/arm/src/libarch.a(up_createstack.o)
 .debug_ranges  0x0000000000000fd0       0x10 NuttX/nuttx/arch/arm/src/libarch.a(up_exit.o)
 .debug_ranges  0x0000000000000fe0       0x10 NuttX/nuttx/arch/arm/src/libarch.a(up_initialize.o)
 .debug_ranges  0x0000000000000ff0       0x10 NuttX/nuttx/arch/arm/src/libarch.a(up_initialstate.o)
 .debug_ranges  0x0000000000001000       0x28 NuttX/nuttx/arch/arm/src/libarch.a(up_releasepending.o)
 .debug_ranges  0x0000000000001028       0x10 NuttX/nuttx/arch/arm/src/libarch.a(up_releasestack.o)
 .debug_ranges  0x0000000000001038       0x10 NuttX/nuttx/arch/arm/src/libarch.a(up_schedulesigaction.o)
 .debug_ranges  0x0000000000001048       0x10 NuttX/nuttx/arch/arm/src/libarch.a(up_sigdeliver.o)
 .debug_ranges  0x0000000000001058       0x10 NuttX/nuttx/arch/arm/src/libarch.a(up_stackframe.o)
 .debug_ranges  0x0000000000001068       0x28 NuttX/nuttx/arch/arm/src/libarch.a(up_unblocktask.o)
 .debug_ranges  0x0000000000001090       0x18 NuttX/nuttx/arch/arm/src/libarch.a(stm32_timerisr.o)
 .debug_ranges  0x00000000000010a8       0x10 NuttX/nuttx/libs/libc/libc.a(sq_addlast.o)
 .debug_ranges  0x00000000000010b8       0x10 NuttX/nuttx/libs/libc/libc.a(sq_addfirst.o)
 .debug_ranges  0x00000000000010c8       0x10 NuttX/nuttx/libs/libc/libc.a(sq_addafter.o)
 .debug_ranges  0x00000000000010d8       0x10 NuttX/nuttx/libs/libc/libc.a(sq_rem.o)
 .debug_ranges  0x00000000000010e8       0x10 NuttX/nuttx/libs/libc/libc.a(sq_remfirst.o)
 .debug_ranges  0x00000000000010f8       0x10 NuttX/nuttx/libs/libc/libc.a(sq_remafter.o)
 .debug_ranges  0x0000000000001108       0x10 NuttX/nuttx/libs/libc/libc.a(dq_addfirst.o)
 .debug_ranges  0x0000000000001118       0x10 NuttX/nuttx/libs/libc/libc.a(dq_rem.o)
 .debug_ranges  0x0000000000001128       0x18 NuttX/nuttx/libs/libc/libc.a(sem_getvalue.o)
 .debug_ranges  0x0000000000001140       0x18 NuttX/nuttx/libs/libc/libc.a(sem_setprotocol.o)
 .debug_ranges  0x0000000000001158       0x10 NuttX/nuttx/libs/libc/libc.a(sig_addset.o)
 .debug_ranges  0x0000000000001168       0x10 NuttX/nuttx/libs/libc/libc.a(sig_delset.o)
 .debug_ranges  0x0000000000001178       0x10 NuttX/nuttx/libs/libc/libc.a(sig_emptyset.o)
 .debug_ranges  0x0000000000001188       0x10 NuttX/nuttx/libs/libc/libc.a(sig_ismember.o)
 .debug_ranges  0x0000000000001198       0x10 NuttX/nuttx/libs/libc/libc.a(lib_memset.o)
 .debug_ranges  0x00000000000011a8       0x10 NuttX/nuttx/libs/libc/libc.a(lib_strlen.o)
 .debug_ranges  0x00000000000011b8       0x10 NuttX/nuttx/libs/libc/libc.a(lib_calendar2utc.o)
 .debug_ranges  0x00000000000011c8       0x10 NuttX/nuttx/libs/libc/libc.a(lib_daysbeforemonth.o)
 .debug_ranges  0x00000000000011d8       0x10 NuttX/nuttx/libs/libc/libc.a(lib_isleapyear.o)
 .debug_ranges  0x00000000000011e8       0x10 NuttX/nuttx/drivers/libdrivers.a(syslog_initialize.o)
 .debug_ranges  0x00000000000011f8       0x10 NuttX/nuttx/drivers/libdrivers.a(syslog_consolechannel.o)
 .debug_ranges  0x0000000000001208       0x70 NuttX/nuttx/drivers/libdrivers.a(syslog_device.o)
 .debug_ranges  0x0000000000001278       0x10 NuttX/nuttx/fs/libfs.a(fs_initialize.o)
 .debug_ranges  0x0000000000001288       0x50 NuttX/nuttx/fs/libfs.a(fs_files.o)
 .debug_ranges  0x00000000000012d8       0x10 NuttX/nuttx/fs/libfs.a(fs_inodeaddref.o)
 .debug_ranges  0x00000000000012e8       0x10 NuttX/nuttx/fs/libfs.a(fs_inoderelease.o)
 .debug_ranges  0x00000000000012f8       0x10 NuttX/nuttx/fs/libfs.a(fs_fileopen.o)
 .debug_ranges  0x0000000000001308       0x10 NuttX/nuttx/fs/libfs.a(fs_filedetach.o)
 .debug_ranges  0x0000000000001318       0x10 NuttX/nuttx/fs/libfs.a(fs_close.o)
 .debug_ranges  0x0000000000001328       0x10 NuttX/nuttx/fs/libfs.a(fs_dupfd2.o)
 .debug_ranges  0x0000000000001338       0x10 NuttX/nuttx/fs/libfs.a(fs_getfilep.o)
 .debug_ranges  0x0000000000001348       0x28 NuttX/nuttx/fs/libfs.a(fs_open.o)
 .debug_ranges  0x0000000000001370       0x20 NuttX/nuttx/fs/libfs.a(fs_write.o)
 .debug_ranges  0x0000000000001390       0x10 NuttX/nuttx/fs/libfs.a(fs_inodefind.o)
 .debug_ranges  0x00000000000013a0       0x10 NuttX/nuttx/fs/libfs.a(fs_inodefree.o)
 .debug_ranges  0x00000000000013b0       0x10 NuttX/nuttx/mm/libmm.a(umm_initialize.o)
 .debug_ranges  0x00000000000013c0       0x18 NuttX/nuttx/mm/libmm.a(umm_sem.o)
 .debug_ranges  0x00000000000013d8       0x10 NuttX/nuttx/mm/libmm.a(umm_free.o)
 .debug_ranges  0x00000000000013e8       0x10 NuttX/nuttx/mm/libmm.a(umm_malloc.o)
 .debug_ranges  0x00000000000013f8       0x10 NuttX/nuttx/mm/libmm.a(umm_heapmember.o)
 .debug_ranges  0x0000000000001408       0x18 NuttX/nuttx/mm/libmm.a(mm_initialize.o)
 .debug_ranges  0x0000000000001420       0x10 NuttX/nuttx/mm/libmm.a(mm_free.o)
 .debug_ranges  0x0000000000001430       0x10 NuttX/nuttx/mm/libmm.a(mm_heapmember.o)
 .debug_ranges  0x0000000000001440       0x10 NuttX/nuttx/sched/libsched.a(sched_getfiles.o)
 .debug_ranges  0x0000000000001450       0x10 NuttX/nuttx/sched/libsched.a(sched_addreadytorun.o)
 .debug_ranges  0x0000000000001460       0x10 NuttX/nuttx/sched/libsched.a(sched_removereadytorun.o)
 .debug_ranges  0x0000000000001470       0x10 NuttX/nuttx/sched/libsched.a(sched_addprioritized.o)
 .debug_ranges  0x0000000000001480       0x10 NuttX/nuttx/sched/libsched.a(sched_mergepending.o)
 .debug_ranges  0x0000000000001490       0x10 NuttX/nuttx/sched/libsched.a(sched_addblocked.o)
 .debug_ranges  0x00000000000014a0       0x10 NuttX/nuttx/sched/libsched.a(sched_removeblocked.o)
 .debug_ranges  0x00000000000014b0       0x10 NuttX/nuttx/sched/libsched.a(sched_processtimer.o)
 .debug_ranges  0x00000000000014c0       0x18 NuttX/nuttx/sched/libsched.a(sem_destroy.o)
 .debug_ranges  0x00000000000014d8       0x10 NuttX/nuttx/sched/libsched.a(task_exit.o)
 .debug_ranges  0x00000000000014e8       0x10 NuttX/nuttx/sched/libsched.a(task_terminate.o)
 .debug_ranges  0x00000000000014f8       0x10 NuttX/nuttx/libs/libc/libc.a(dq_addlast.o)
 .debug_ranges  0x0000000000001508       0x10 NuttX/nuttx/libs/libc/libc.a(lib_strdup.o)
 .debug_ranges  0x0000000000001518       0xe8 src/modules/px4iofirmware/libpx4iofirmware.a(px4io.c.obj)
 .debug_ranges  0x0000000000001600       0xe0 src/modules/px4iofirmware/libpx4iofirmware.a(registers.c.obj)
 .debug_ranges  0x00000000000016e0       0x28 src/modules/px4iofirmware/libpx4iofirmware.a(safety.c.obj)
 .debug_ranges  0x0000000000001708       0xd0 src/modules/px4iofirmware/libpx4iofirmware.a(serial.c.obj)
 .debug_ranges  0x00000000000017d8       0x18 src/modules/px4iofirmware/libpx4iofirmware.a(adc.c.obj)
 .debug_ranges  0x00000000000017f0      0x1c0 src/modules/px4iofirmware/libpx4iofirmware.a(controls.c.obj)
 .debug_ranges  0x00000000000019b0       0xa0 src/modules/px4iofirmware/libpx4iofirmware.a(mixer.cpp.obj)
 .debug_ranges  0x0000000000001a50       0x28 NuttX/apps/libapps.a(gnu_cxxinitialize.o)
 .debug_ranges  0x0000000000001a78       0x88 platforms/nuttx/src/px4/stm/stm32f1/io_pins/libarch_io_pins.a(pwm_servo.c.obj)
 .debug_ranges  0x0000000000001b00      0x288 platforms/nuttx/src/px4/stm/stm32f1/io_pins/libarch_io_pins.a(io_timer.c.obj)
 .debug_ranges  0x0000000000001d88       0xf0 src/lib/mixer/libmixer.a(MixerGroup.cpp.obj)
 .debug_ranges  0x0000000000001e78      0x168 src/lib/mixer/HelicopterMixer/libHelicopterMixer.a(HelicopterMixer.cpp.obj)
 .debug_ranges  0x0000000000001fe0      0x250 src/lib/mixer/MultirotorMixer/libMultirotorMixer.a(MultirotorMixer.cpp.obj)
 .debug_ranges  0x0000000000002230       0x68 src/lib/mixer/NullMixer/libNullMixer.a(NullMixer.cpp.obj)
 .debug_ranges  0x0000000000002298      0x120 src/lib/mixer/SimpleMixer/libSimpleMixer.a(SimpleMixer.cpp.obj)
 .debug_ranges  0x00000000000023b8       0x30 src/lib/mixer/MixerBase/libMixerBase.a(Mixer.cpp.obj)
 .debug_ranges  0x00000000000023e8       0x78 src/lib/rc/librc.a(st24.cpp.obj)
 .debug_ranges  0x0000000000002460       0x40 src/lib/rc/librc.a(sumd.cpp.obj)
 .debug_ranges  0x00000000000024a0      0x108 src/lib/rc/librc.a(sbus.cpp.obj)
 .debug_ranges  0x00000000000025a8      0x1e0 src/lib/rc/librc.a(dsm.cpp.obj)
 .debug_ranges  0x0000000000002788      0x138 src/lib/output_limit/liboutput_limit.a(output_limit.cpp.obj)
 .debug_ranges  0x00000000000028c0       0x10 NuttX/nuttx/arch/arm/src/libarch.a(up_systemreset.o)
 .debug_ranges  0x00000000000028d0       0x10 NuttX/nuttx/arch/arm/src/libarch.a(up_udelay.o)
 .debug_ranges  0x00000000000028e0       0x10 boards/px4/io-v2/src/libdrivers_board.a(init.c.obj)
 .debug_ranges  0x00000000000028f0      0x138 platforms/nuttx/src/px4/stm/stm32f1/hrt/libarch_hrt.a(hrt.c.obj)
 .debug_ranges  0x0000000000002a28       0x10 NuttX/nuttx/libs/libxx/libxx.a(libxx_eabi_atexit.o)
 .debug_ranges  0x0000000000002a38       0x10 NuttX/nuttx/libs/libxx/libxx.a(libxx_cxa_atexit.o)
 .debug_ranges  0x0000000000002a48       0x10 NuttX/nuttx/libs/libxx/libxx.a(libxx_delete.o)
 .debug_ranges  0x0000000000002a58       0x10 NuttX/nuttx/libs/libxx/libxx.a(libxx_deletea.o)
 .debug_ranges  0x0000000000002a68       0x10 NuttX/nuttx/libs/libxx/libxx.a(libxx_new.o)
 .debug_ranges  0x0000000000002a78       0x10 NuttX/nuttx/libs/libxx/libxx.a(libxx_newa.o)
 .debug_ranges  0x0000000000002a88       0x18 NuttX/nuttx/libs/libc/libc.a(lib_crc32.o)
 .debug_ranges  0x0000000000002aa0       0x10 NuttX/nuttx/libs/libc/libc.a(lib_printf.o)
 .debug_ranges  0x0000000000002ab0       0x10 NuttX/nuttx/libs/libc/libc.a(lib_vsnprintf.o)
 .debug_ranges  0x0000000000002ac0       0x18 NuttX/nuttx/libs/libc/libc.a(lib_memoutstream.o)
 .debug_ranges  0x0000000000002ad8       0x18 NuttX/nuttx/libs/libc/libc.a(lib_nulloutstream.o)
 .debug_ranges  0x0000000000002af0       0x10 NuttX/nuttx/libs/libc/libc.a(lib_sscanf.o)
 .debug_ranges  0x0000000000002b00       0x10 NuttX/nuttx/libs/libc/libc.a(lib_vsscanf.o)
 .debug_ranges  0x0000000000002b10       0x88 NuttX/nuttx/libs/libc/libc.a(lib_libvscanf.o)
 .debug_ranges  0x0000000000002b98       0x10 NuttX/nuttx/libs/libc/libc.a(lib_libnoflush.o)
 .debug_ranges  0x0000000000002ba8       0x68 NuttX/nuttx/libs/libc/libc.a(lib_libvsprintf.o)
 .debug_ranges  0x0000000000002c10       0x28 NuttX/nuttx/libs/libc/libc.a(lib_ultoa_invert.o)
 .debug_ranges  0x0000000000002c38       0x28 NuttX/nuttx/libs/libc/libc.a(lib_strtol.o)
 .debug_ranges  0x0000000000002c60       0x10 NuttX/nuttx/libs/libc/libc.a(lib_strtoul.o)
 .debug_ranges  0x0000000000002c70       0x10 NuttX/nuttx/libs/libc/libc.a(lib_checkbase.o)
 .debug_ranges  0x0000000000002c80       0x10 NuttX/nuttx/libs/libc/libc.a(lib_isbasedigit.o)
 .debug_ranges  0x0000000000002c90       0x10 NuttX/nuttx/libs/libc/libc.a(lib_memchr.o)
 .debug_ranges  0x0000000000002ca0       0x10 NuttX/nuttx/libs/libc/libc.a(lib_memmove.o)
 .debug_ranges  0x0000000000002cb0       0x10 NuttX/nuttx/libs/libc/libc.a(lib_skipspace.o)
 .debug_ranges  0x0000000000002cc0       0x10 NuttX/nuttx/libs/libc/libc.a(lib_strchr.o)
 .debug_ranges  0x0000000000002cd0       0x10 NuttX/nuttx/libs/libc/libc.a(lib_strcmp.o)
 .debug_ranges  0x0000000000002ce0       0x10 NuttX/nuttx/libs/libc/libc.a(lib_strnlen.o)
 .debug_ranges  0x0000000000002cf0       0x10 NuttX/nuttx/libs/libc/libc.a(lib_strncpy.o)
 .debug_ranges  0x0000000000002d00       0x18 NuttX/nuttx/libs/libc/libc.a(lib_syslog.o)
 .debug_ranges  0x0000000000002d18       0x28 NuttX/nuttx/libs/libc/libc.a(lib_setlogmask.o)
 .debug_ranges  0x0000000000002d40       0x10 NuttX/nuttx/libs/libc/libc.a(lib_tcgetattr.o)
 .debug_ranges  0x0000000000002d50       0x10 NuttX/nuttx/libs/libc/libc.a(lib_tcsetattr.o)
 .debug_ranges  0x0000000000002d60       0x18 NuttX/nuttx/libs/libc/libc.a(lib_meminstream.o)
 .debug_ranges  0x0000000000002d78       0x10 NuttX/nuttx/drivers/libdrivers.a(vsyslog.o)
 .debug_ranges  0x0000000000002d88       0x30 NuttX/nuttx/drivers/libdrivers.a(syslog_stream.o)
 .debug_ranges  0x0000000000002db8       0x18 NuttX/nuttx/drivers/libdrivers.a(syslog_emergstream.o)
 .debug_ranges  0x0000000000002dd0       0x10 NuttX/nuttx/drivers/libdrivers.a(syslog_putc.o)
 .debug_ranges  0x0000000000002de0       0x10 NuttX/nuttx/drivers/libdrivers.a(syslog_force.o)
 .debug_ranges  0x0000000000002df0       0x18 NuttX/nuttx/fs/libfs.a(fs_ioctl.o)
 .debug_ranges  0x0000000000002e08       0x20 NuttX/nuttx/fs/libfs.a(fs_read.o)
 .debug_ranges  0x0000000000002e28       0x10 NuttX/nuttx/mm/libmm.a(umm_mallinfo.o)
 .debug_ranges  0x0000000000002e38       0x10 NuttX/nuttx/mm/libmm.a(mm_mallinfo.o)

.debug_str      0x0000000000000000     0x89dc
 .debug_str     0x0000000000000000      0x2c9 NuttX/nuttx/arch/arm/src/libarch.a(stm32_start.o)
                                        0x324 (size before relaxing)
 .debug_str     0x00000000000002c9       0xa6 NuttX/nuttx/arch/arm/src/libarch.a(stm32_rcc.o)
                                        0x333 (size before relaxing)
 .debug_str     0x000000000000036f       0xc4 NuttX/nuttx/arch/arm/src/libarch.a(stm32_gpio.o)
                                        0x319 (size before relaxing)
 .debug_str     0x0000000000000433       0x25 NuttX/nuttx/arch/arm/src/libarch.a(stm32_lowputc.o)
                                        0x2a8 (size before relaxing)
 .debug_str     0x0000000000000458      0x617 NuttX/nuttx/arch/arm/src/libarch.a(stm32_serial.o)
                                        0xaaa (size before relaxing)
 .debug_str     0x0000000000000a6f       0x18 NuttX/nuttx/arch/arm/src/libarch.a(up_modifyreg32.o)
                                        0x2c9 (size before relaxing)
 .debug_str     0x0000000000000a87       0x15 NuttX/nuttx/arch/arm/src/libarch.a(up_vectors.o)
                                        0x269 (size before relaxing)
 .debug_str     0x0000000000000a9c       0x2a NuttX/nuttx/arch/arm/src/libarch.a(up_exception.o)
                                         0x99 (size before relaxing)
 .debug_str     0x0000000000000ac6       0x79 NuttX/nuttx/arch/arm/src/libarch.a(stm32_irq.o)
                                        0x377 (size before relaxing)
 .debug_str     0x0000000000000b3f      0x557 NuttX/nuttx/arch/arm/src/libarch.a(stm32_dma.o)
                                        0xa7b (size before relaxing)
 .debug_str     0x0000000000001096       0x24 NuttX/nuttx/arch/arm/src/libarch.a(up_hardfault.o)
                                        0x2f7 (size before relaxing)
 .debug_str     0x00000000000010ba       0x2f NuttX/nuttx/arch/arm/src/libarch.a(up_svcall.o)
                                        0x2be (size before relaxing)
 .debug_str     0x00000000000010e9       0x33 NuttX/nuttx/arch/arm/src/libarch.a(up_doirq.o)
                                        0x2d2 (size before relaxing)
 .debug_str     0x000000000000111c       0x79 NuttX/nuttx/arch/arm/src/libarch.a(up_assert.o)
                                        0x8d4 (size before relaxing)
 .debug_str     0x0000000000001195       0x1d NuttX/nuttx/arch/arm/src/libarch.a(up_interruptcontext.o)
                                        0x2ad (size before relaxing)
 .debug_str     0x00000000000011b2       0x97 NuttX/nuttx/libs/libc/libc.a(sem_init.o)
                                        0x279 (size before relaxing)
 .debug_str     0x0000000000001249       0x19 NuttX/nuttx/libs/libc/libc.a(lib_abort.o)
                                        0x247 (size before relaxing)
 .debug_str     0x0000000000001262       0x14 NuttX/nuttx/libs/libc/libc.a(lib_strcpy.o)
                                        0x1fb (size before relaxing)
 .debug_str     0x0000000000001276       0x19 NuttX/nuttx/libs/libc/libc.a(lib_memcpy.o)
                                        0x21c (size before relaxing)
 .debug_str     0x000000000000128f       0x19 NuttX/nuttx/libs/libc/libc.a(lib_cfgetspeed.o)
                                        0x279 (size before relaxing)
 .debug_str     0x00000000000012a8       0x19 NuttX/nuttx/libs/libc/libc.a(lib_cfsetspeed.o)
                                        0x27f (size before relaxing)
 .debug_str     0x00000000000012c1      0x204 NuttX/nuttx/drivers/libdrivers.a(serial.o)
                                        0x774 (size before relaxing)
 .debug_str     0x00000000000014c5       0x1b NuttX/nuttx/drivers/libdrivers.a(serial_io.o)
                                        0x4f7 (size before relaxing)
 .debug_str     0x00000000000014e0       0x99 NuttX/nuttx/drivers/libdrivers.a(syslog_flush.o)
                                        0x2b6 (size before relaxing)
 .debug_str     0x0000000000001579       0x2d NuttX/nuttx/drivers/libdrivers.a(syslog_channel.o)
                                        0x325 (size before relaxing)
 .debug_str     0x00000000000015a6       0xbc NuttX/nuttx/fs/libfs.a(fs_registerdriver.o)
                                        0x483 (size before relaxing)
 .debug_str     0x0000000000001662       0x52 NuttX/nuttx/fs/libfs.a(fs_inode.o)
                                        0x4aa (size before relaxing)
 .debug_str     0x00000000000016b4       0x97 NuttX/nuttx/fs/libfs.a(fs_inodereserve.o)
                                        0x4f1 (size before relaxing)
 .debug_str     0x000000000000174b       0x46 NuttX/nuttx/fs/libfs.a(fs_inodesearch.o)
                                        0x4b3 (size before relaxing)
 .debug_str     0x0000000000001791       0x85 NuttX/nuttx/mm/libmm.a(umm_zalloc.o)
                                        0x309 (size before relaxing)
 .debug_str     0x0000000000001816       0x17 NuttX/nuttx/mm/libmm.a(umm_globals.o)
                                        0x2f0 (size before relaxing)
 .debug_str     0x000000000000182d       0x2f NuttX/nuttx/mm/libmm.a(mm_zalloc.o)
                                        0x324 (size before relaxing)
 .debug_str     0x000000000000185c       0x5f NuttX/nuttx/mm/libmm.a(mm_malloc.o)
                                        0x369 (size before relaxing)
 .debug_str     0x00000000000018bb       0x29 NuttX/nuttx/mm/libmm.a(mm_sem.o)
                                        0x3b8 (size before relaxing)
 .debug_str     0x00000000000018e4       0x1a NuttX/nuttx/mm/libmm.a(mm_addfreechunk.o)
                                        0x323 (size before relaxing)
 .debug_str     0x00000000000018fe       0x16 NuttX/nuttx/mm/libmm.a(mm_size2ndx.o)
                                        0x2fb (size before relaxing)
 .debug_str     0x0000000000001914      0x113 NuttX/nuttx/sched/libsched.a(clock_initialize.o)
                                        0x2e1 (size before relaxing)
 .debug_str     0x0000000000001a27       0x21 NuttX/nuttx/sched/libsched.a(clock_ticks2time.o)
                                        0x290 (size before relaxing)
 .debug_str     0x0000000000001a48       0x25 NuttX/nuttx/sched/libsched.a(errno_getptr.o)
                                        0x86e (size before relaxing)
 .debug_str     0x0000000000001a6d      0x2c4 NuttX/nuttx/sched/libsched.a(nx_start.o)
                                        0xb8e (size before relaxing)
 .debug_str     0x0000000000001d31       0x4a NuttX/nuttx/sched/libsched.a(nx_bringup.o)
                                        0x2a1 (size before relaxing)
 .debug_str     0x0000000000001d7b       0x11 NuttX/nuttx/sched/libsched.a(irq_attach.o)
                                        0x2d1 (size before relaxing)
 .debug_str     0x0000000000001d8c       0x13 NuttX/nuttx/sched/libsched.a(irq_dispatch.o)
                                        0x804 (size before relaxing)
 .debug_str     0x0000000000001d9f       0x2b NuttX/nuttx/sched/libsched.a(irq_unexpectedisr.o)
                                        0x2ce (size before relaxing)
 .debug_str     0x0000000000001dca       0x4b NuttX/nuttx/sched/libsched.a(sched_garbage.o)
                                        0x84d (size before relaxing)
 .debug_str     0x0000000000001e15       0x17 NuttX/nuttx/sched/libsched.a(sched_idletask.o)
                                        0x7bf (size before relaxing)
 .debug_str     0x0000000000001e2c       0x4c NuttX/nuttx/sched/libsched.a(sem_wait.o)
                                        0x8dd (size before relaxing)
 .debug_str     0x0000000000001e78       0x26 NuttX/nuttx/sched/libsched.a(sem_trywait.o)
                                        0x80e (size before relaxing)
 .debug_str     0x0000000000001e9e       0x2a NuttX/nuttx/sched/libsched.a(sem_post.o)
                                        0x815 (size before relaxing)
 .debug_str     0x0000000000001ec8       0x2e NuttX/nuttx/sched/libsched.a(sem_reset.o)
                                        0x2f1 (size before relaxing)
 .debug_str     0x0000000000001ef6       0x34 NuttX/nuttx/sched/libsched.a(sig_usleep.o)
                                        0x284 (size before relaxing)
 .debug_str     0x0000000000001f2a       0xb5 NuttX/nuttx/sched/libsched.a(task_create.o)
                                        0x8b2 (size before relaxing)
 .debug_str     0x0000000000001fdf       0xae NuttX/nuttx/sched/libsched.a(task_setup.o)
                                        0x95d (size before relaxing)
 .debug_str     0x000000000000208d       0x15 NuttX/nuttx/sched/libsched.a(task_activate.o)
                                        0x679 (size before relaxing)
 .debug_str     0x00000000000020a2       0x28 NuttX/nuttx/sched/libsched.a(task_start.o)
                                        0x824 (size before relaxing)
 .debug_str     0x00000000000020ca       0x13 NuttX/nuttx/sched/libsched.a(task_getpid.o)
                                        0x845 (size before relaxing)
 .debug_str     0x00000000000020dd       0x1c NuttX/nuttx/sched/libsched.a(exit.o)
                                        0x7b3 (size before relaxing)
 .debug_str     0x00000000000020f9       0x15 NuttX/nuttx/sched/libsched.a(group_create.o)
                                        0x7d7 (size before relaxing)
 .debug_str     0x000000000000210e       0x34 NuttX/nuttx/sched/libsched.a(group_setupidlefiles.o)
                                        0x6fe (size before relaxing)
 .debug_str     0x0000000000002142       0x1d NuttX/nuttx/sched/libsched.a(group_setuptaskfiles.o)
                                        0x7d6 (size before relaxing)
 .debug_str     0x000000000000215f       0x15 NuttX/nuttx/sched/libsched.a(irq_initialize.o)
                                        0x26f (size before relaxing)
 .debug_str     0x0000000000002174       0x55 NuttX/nuttx/sched/libsched.a(sched_releasetcb.o)
                                        0x808 (size before relaxing)
 .debug_str     0x00000000000021c9       0x13 NuttX/nuttx/sched/libsched.a(sched_lock.o)
                                        0x7bd (size before relaxing)
 .debug_str     0x00000000000021dc       0x28 NuttX/nuttx/sched/libsched.a(sched_unlock.o)
                                        0x83e (size before relaxing)
 .debug_str     0x0000000000002204       0x45 NuttX/nuttx/sched/libsched.a(sig_procmask.o)
                                        0x8aa (size before relaxing)
 .debug_str     0x0000000000002249       0xbd NuttX/nuttx/sched/libsched.a(sig_unmaskpendingsignal.o)
                                        0x8ec (size before relaxing)
 .debug_str     0x0000000000002306       0x3d NuttX/nuttx/sched/libsched.a(sig_removependingsignal.o)
                                        0x7d3 (size before relaxing)
 .debug_str     0x0000000000002343       0x6c NuttX/nuttx/sched/libsched.a(sig_releasependingsignal.o)
                                        0x51f (size before relaxing)
 .debug_str     0x00000000000023af       0x20 NuttX/nuttx/sched/libsched.a(sig_lowest.o)
                                        0x3fe (size before relaxing)
 .debug_str     0x00000000000023cf      0x169 NuttX/nuttx/sched/libsched.a(sig_dispatch.o)
                                        0xb2c (size before relaxing)
 .debug_str     0x0000000000002538       0x77 NuttX/nuttx/sched/libsched.a(sig_deliver.o)
                                        0x834 (size before relaxing)
 .debug_str     0x00000000000025af       0xa4 NuttX/nuttx/sched/libsched.a(sig_nanosleep.o)
                                        0x3aa (size before relaxing)
 .debug_str     0x0000000000002653       0x3e NuttX/nuttx/sched/libsched.a(task_exithook.o)
                                        0x848 (size before relaxing)
 .debug_str     0x0000000000002691       0x2d NuttX/nuttx/sched/libsched.a(task_recover.o)
                                        0x7e7 (size before relaxing)
 .debug_str     0x00000000000026be       0x26 NuttX/nuttx/sched/libsched.a(wd_recover.o)
                                        0x69d (size before relaxing)
 .debug_str     0x00000000000026e4       0x2a NuttX/nuttx/sched/libsched.a(clock_time2ticks.o)
                                        0x29f (size before relaxing)
 .debug_str     0x000000000000270e       0x42 NuttX/nuttx/sched/libsched.a(group_leave.o)
                                        0x75c (size before relaxing)
 .debug_str     0x0000000000002750       0x25 NuttX/nuttx/sched/libsched.a(sched_free.o)
                                        0x84a (size before relaxing)
 .debug_str     0x0000000000002775       0x15 NuttX/nuttx/sched/libsched.a(sched_gettcb.o)
                                        0x7f4 (size before relaxing)
 .debug_str     0x000000000000278a       0x18 NuttX/nuttx/sched/libsched.a(sem_recover.o)
                                        0x70d (size before relaxing)
 .debug_str     0x00000000000027a2       0x1d NuttX/nuttx/sched/libsched.a(sem_waitirq.o)
                                        0x72b (size before relaxing)
 .debug_str     0x00000000000027bf      0x105 NuttX/nuttx/sched/libsched.a(sig_initialize.o)
                                        0x652 (size before relaxing)
 .debug_str     0x00000000000028c4       0x35 NuttX/nuttx/sched/libsched.a(sig_pending.o)
                                        0x8a1 (size before relaxing)
 .debug_str     0x00000000000028f9       0x99 NuttX/nuttx/sched/libsched.a(sig_timedwait.o)
                                        0xa77 (size before relaxing)
 .debug_str     0x0000000000002992       0x18 NuttX/nuttx/sched/libsched.a(sig_findaction.o)
                                        0x629 (size before relaxing)
 .debug_str     0x00000000000029aa       0x23 NuttX/nuttx/sched/libsched.a(sig_allocpendingsigaction.o)
                                        0x549 (size before relaxing)
 .debug_str     0x00000000000029cd       0x25 NuttX/nuttx/sched/libsched.a(sig_releasependingsigaction.o)
                                        0x53c (size before relaxing)
 .debug_str     0x00000000000029f2       0x2a NuttX/nuttx/sched/libsched.a(sig_cleanup.o)
                                        0x85b (size before relaxing)
 .debug_str     0x0000000000002a1c       0x16 NuttX/nuttx/sched/libsched.a(wd_create.o)
                                        0x45f (size before relaxing)
 .debug_str     0x0000000000002a32       0x6a NuttX/nuttx/sched/libsched.a(wd_start.o)
                                        0x89b (size before relaxing)
 .debug_str     0x0000000000002a9c       0x11 NuttX/nuttx/sched/libsched.a(wd_cancel.o)
                                        0x831 (size before relaxing)
 .debug_str     0x0000000000002aad       0x11 NuttX/nuttx/sched/libsched.a(wd_delete.o)
                                        0x458 (size before relaxing)
 .debug_str     0x0000000000002abe       0x39 NuttX/nuttx/sched/libsched.a(sig_action.o)
                                        0x915 (size before relaxing)
 .debug_str     0x0000000000002af7       0x1e NuttX/nuttx/sched/libsched.a(wd_initialize.o)
                                        0x315 (size before relaxing)
 .debug_str     0x0000000000002b15       0x1a NuttX/nuttx/arch/arm/src/libarch.a(stm32_allocateheap.o)
                                        0x3d4 (size before relaxing)
 .debug_str     0x0000000000002b2f       0x12 NuttX/nuttx/arch/arm/src/libarch.a(stm32_idle.o)
                                        0x2a9 (size before relaxing)
 .debug_str     0x0000000000002b41       0x93 NuttX/nuttx/arch/arm/src/libarch.a(up_blocktask.o)
                                        0x922 (size before relaxing)
 .debug_str     0x0000000000002bd4       0x1b NuttX/nuttx/arch/arm/src/libarch.a(up_copyfullstate.o)
                                        0x271 (size before relaxing)
 .debug_str     0x0000000000002bef       0x61 NuttX/nuttx/arch/arm/src/libarch.a(up_createstack.o)
                                        0x7cb (size before relaxing)
 .debug_str     0x0000000000002c50       0x33 NuttX/nuttx/arch/arm/src/libarch.a(up_exit.o)
                                        0x876 (size before relaxing)
 .debug_str     0x0000000000002c83       0x64 NuttX/nuttx/arch/arm/src/libarch.a(up_initialize.o)
                                        0x3ab (size before relaxing)
 .debug_str     0x0000000000002ce7       0x1a NuttX/nuttx/arch/arm/src/libarch.a(up_initialstate.o)
                                        0x69b (size before relaxing)
 .debug_str     0x0000000000002d01       0x1c NuttX/nuttx/arch/arm/src/libarch.a(up_releasepending.o)
                                        0x84c (size before relaxing)
 .debug_str     0x0000000000002d1d       0x2d NuttX/nuttx/arch/arm/src/libarch.a(up_releasestack.o)
                                        0x746 (size before relaxing)
 .debug_str     0x0000000000002d4a       0x2d NuttX/nuttx/arch/arm/src/libarch.a(up_schedulesigaction.o)
                                        0x899 (size before relaxing)
 .debug_str     0x0000000000002d77       0x26 NuttX/nuttx/arch/arm/src/libarch.a(up_sigdeliver.o)
                                        0x8be (size before relaxing)
 .debug_str     0x0000000000002d9d       0x2a NuttX/nuttx/arch/arm/src/libarch.a(up_stackframe.o)
                                        0x691 (size before relaxing)
 .debug_str     0x0000000000002dc7       0x41 NuttX/nuttx/arch/arm/src/libarch.a(up_unblocktask.o)
                                        0x885 (size before relaxing)
 .debug_str     0x0000000000002e08       0x24 NuttX/nuttx/arch/arm/src/libarch.a(up_fullcontextrestore.o)
                                         0xa2 (size before relaxing)
 .debug_str     0x0000000000002e2c       0x1f NuttX/nuttx/arch/arm/src/libarch.a(up_switchcontext.o)
                                         0x9d (size before relaxing)
 .debug_str     0x0000000000002e4b       0x3b NuttX/nuttx/arch/arm/src/libarch.a(stm32_timerisr.o)
                                        0x335 (size before relaxing)
 .debug_str     0x0000000000002e86       0x13 NuttX/nuttx/libs/libc/libc.a(sq_addlast.o)
                                        0x240 (size before relaxing)
 .debug_str     0x0000000000002e99       0x14 NuttX/nuttx/libs/libc/libc.a(sq_addfirst.o)
                                        0x242 (size before relaxing)
 .debug_str     0x0000000000002ead       0x14 NuttX/nuttx/libs/libc/libc.a(sq_addafter.o)
                                        0x252 (size before relaxing)
 .debug_str     0x0000000000002ec1        0xf NuttX/nuttx/libs/libc/libc.a(sq_rem.o)
                                        0x249 (size before relaxing)
 .debug_str     0x0000000000002ed0       0x14 NuttX/nuttx/libs/libc/libc.a(sq_remfirst.o)
                                        0x23d (size before relaxing)
 .debug_str     0x0000000000002ee4       0x14 NuttX/nuttx/libs/libc/libc.a(sq_remafter.o)
                                        0x242 (size before relaxing)
 .debug_str     0x0000000000002ef8       0x14 NuttX/nuttx/libs/libc/libc.a(dq_addfirst.o)
                                        0x248 (size before relaxing)
 .debug_str     0x0000000000002f0c        0xf NuttX/nuttx/libs/libc/libc.a(dq_rem.o)
                                        0x248 (size before relaxing)
 .debug_str     0x0000000000002f1b       0x1e NuttX/nuttx/libs/libc/libc.a(sem_getvalue.o)
                                        0x27c (size before relaxing)
 .debug_str     0x0000000000002f39       0x1c NuttX/nuttx/libs/libc/libc.a(sem_setprotocol.o)
                                        0x289 (size before relaxing)
 .debug_str     0x0000000000002f55       0x14 NuttX/nuttx/libs/libc/libc.a(sig_addset.o)
                                        0x232 (size before relaxing)
 .debug_str     0x0000000000002f69       0x14 NuttX/nuttx/libs/libc/libc.a(sig_delset.o)
                                        0x232 (size before relaxing)
 .debug_str     0x0000000000002f7d       0x16 NuttX/nuttx/libs/libc/libc.a(sig_emptyset.o)
                                        0x222 (size before relaxing)
 .debug_str     0x0000000000002f93       0x16 NuttX/nuttx/libs/libc/libc.a(sig_ismember.o)
                                        0x228 (size before relaxing)
 .debug_str     0x0000000000002fa9       0x14 NuttX/nuttx/libs/libc/libc.a(lib_memset.o)
                                        0x212 (size before relaxing)
 .debug_str     0x0000000000002fbd       0x14 NuttX/nuttx/libs/libc/libc.a(lib_strlen.o)
                                        0x212 (size before relaxing)
 .debug_str     0x0000000000002fd1       0x44 NuttX/nuttx/libs/libc/libc.a(lib_calendar2utc.o)
                                        0x260 (size before relaxing)
 .debug_str     0x0000000000003015       0x34 NuttX/nuttx/libs/libc/libc.a(lib_daysbeforemonth.o)
                                        0x256 (size before relaxing)
 .debug_str     0x0000000000003049       0x16 NuttX/nuttx/libs/libc/libc.a(lib_isleapyear.o)
                                        0x210 (size before relaxing)
 .debug_str     0x000000000000305f       0x21 NuttX/nuttx/drivers/libdrivers.a(syslog_initialize.o)
                                        0x36e (size before relaxing)
 .debug_str     0x0000000000003080       0x4e NuttX/nuttx/drivers/libdrivers.a(syslog_consolechannel.o)
                                        0x355 (size before relaxing)
 .debug_str     0x00000000000030ce      0x17a NuttX/nuttx/drivers/libdrivers.a(syslog_device.o)
                                        0x6d0 (size before relaxing)
 .debug_str     0x0000000000003248       0x10 NuttX/nuttx/fs/libfs.a(fs_initialize.o)
                                        0x43d (size before relaxing)
 .debug_str     0x0000000000003258       0xb2 NuttX/nuttx/fs/libfs.a(fs_files.o)
                                        0x55a (size before relaxing)
 .debug_str     0x000000000000330a       0x17 NuttX/nuttx/fs/libfs.a(fs_inodeaddref.o)
                                        0x44e (size before relaxing)
 .debug_str     0x0000000000003321       0x23 NuttX/nuttx/fs/libfs.a(fs_inoderelease.o)
                                        0x460 (size before relaxing)
 .debug_str     0x0000000000003344       0x29 NuttX/nuttx/fs/libfs.a(fs_fileopen.o)
                                        0x479 (size before relaxing)
 .debug_str     0x000000000000336d       0x16 NuttX/nuttx/fs/libfs.a(fs_filedetach.o)
                                        0x48f (size before relaxing)
 .debug_str     0x0000000000003383        0xf NuttX/nuttx/fs/libfs.a(fs_close.o)
                                        0x446 (size before relaxing)
 .debug_str     0x0000000000003392       0x1c NuttX/nuttx/fs/libfs.a(fs_dupfd2.o)
                                        0x45c (size before relaxing)
 .debug_str     0x00000000000033ae       0x12 NuttX/nuttx/fs/libfs.a(fs_getfilep.o)
                                        0x45f (size before relaxing)
 .debug_str     0x00000000000033c0       0x39 NuttX/nuttx/fs/libfs.a(fs_open.o)
                                        0x527 (size before relaxing)
 .debug_str     0x00000000000033f9       0x18 NuttX/nuttx/fs/libfs.a(fs_write.o)
                                        0x458 (size before relaxing)
 .debug_str     0x0000000000003411       0x15 NuttX/nuttx/fs/libfs.a(fs_inodefind.o)
                                        0x489 (size before relaxing)
 .debug_str     0x0000000000003426       0x15 NuttX/nuttx/fs/libfs.a(fs_inodefree.o)
                                        0x438 (size before relaxing)
 .debug_str     0x000000000000343b       0x1a NuttX/nuttx/mm/libmm.a(umm_initialize.o)
                                        0x325 (size before relaxing)
 .debug_str     0x0000000000003455       0x13 NuttX/nuttx/mm/libmm.a(umm_sem.o)
                                        0x330 (size before relaxing)
 .debug_str     0x0000000000003468       0x1c NuttX/nuttx/mm/libmm.a(umm_free.o)
                                        0x303 (size before relaxing)
 .debug_str     0x0000000000003484       0x16 NuttX/nuttx/mm/libmm.a(umm_malloc.o)
                                        0x31e (size before relaxing)
 .debug_str     0x000000000000349a       0x1a NuttX/nuttx/mm/libmm.a(umm_heapmember.o)
                                        0x316 (size before relaxing)
 .debug_str     0x00000000000034b4       0x2e NuttX/nuttx/mm/libmm.a(mm_initialize.o)
                                        0x373 (size before relaxing)
 .debug_str     0x00000000000034e2       0x1c NuttX/nuttx/mm/libmm.a(mm_free.o)
                                        0x343 (size before relaxing)
 .debug_str     0x00000000000034fe       0x18 NuttX/nuttx/mm/libmm.a(mm_heapmember.o)
                                        0x30a (size before relaxing)
 .debug_str     0x0000000000003516       0x17 NuttX/nuttx/sched/libsched.a(sched_getfiles.o)
                                        0x7b0 (size before relaxing)
 .debug_str     0x000000000000352d       0x36 NuttX/nuttx/sched/libsched.a(sched_addreadytorun.o)
                                        0x89b (size before relaxing)
 .debug_str     0x0000000000003563       0x2f NuttX/nuttx/sched/libsched.a(sched_removereadytorun.o)
                                        0x89e (size before relaxing)
 .debug_str     0x0000000000003592       0x1d NuttX/nuttx/sched/libsched.a(sched_addprioritized.o)
                                        0x7bc (size before relaxing)
 .debug_str     0x00000000000035af       0x2c NuttX/nuttx/sched/libsched.a(sched_mergepending.o)
                                        0x890 (size before relaxing)
 .debug_str     0x00000000000035db       0x24 NuttX/nuttx/sched/libsched.a(sched_addblocked.o)
                                        0x887 (size before relaxing)
 .debug_str     0x00000000000035ff       0x1c NuttX/nuttx/sched/libsched.a(sched_removeblocked.o)
                                        0x86b (size before relaxing)
 .debug_str     0x000000000000361b       0x1b NuttX/nuttx/sched/libsched.a(sched_processtimer.o)
                                        0x81b (size before relaxing)
 .debug_str     0x0000000000003636       0x18 NuttX/nuttx/sched/libsched.a(sem_destroy.o)
                                        0x28b (size before relaxing)
 .debug_str     0x000000000000364e       0x22 NuttX/nuttx/sched/libsched.a(task_exit.o)
                                        0x8fb (size before relaxing)
 .debug_str     0x0000000000003670       0x27 NuttX/nuttx/sched/libsched.a(task_terminate.o)
                                        0x953 (size before relaxing)
 .debug_str     0x0000000000003697       0x13 NuttX/nuttx/libs/libc/libc.a(dq_addlast.o)
                                        0x246 (size before relaxing)
 .debug_str     0x00000000000036aa       0x19 NuttX/nuttx/libs/libc/libc.a(lib_strdup.o)
                                        0x25e (size before relaxing)
 .debug_str     0x00000000000036c3      0x76a src/modules/px4iofirmware/libpx4iofirmware.a(px4io.c.obj)
                                        0xa19 (size before relaxing)
 .debug_str     0x0000000000003e2d      0x184 src/modules/px4iofirmware/libpx4iofirmware.a(registers.c.obj)
                                        0x80e (size before relaxing)
 .debug_str     0x0000000000003fb1       0x9b src/modules/px4iofirmware/libpx4iofirmware.a(safety.c.obj)
                                        0x730 (size before relaxing)
 .debug_str     0x000000000000404c       0xb4 src/modules/px4iofirmware/libpx4iofirmware.a(serial.c.obj)
                                        0x780 (size before relaxing)
 .debug_str     0x0000000000004100       0x45 src/modules/px4iofirmware/libpx4iofirmware.a(adc.c.obj)
                                        0x655 (size before relaxing)
 .debug_str     0x0000000000004145      0x299 src/modules/px4iofirmware/libpx4iofirmware.a(controls.c.obj)
                                        0x99d (size before relaxing)
 .debug_str     0x00000000000043de      0xf0e src/modules/px4iofirmware/libpx4iofirmware.a(mixer.cpp.obj)
                                       0x1665 (size before relaxing)
 .debug_str     0x00000000000052ec       0xb0 NuttX/apps/libapps.a(gnu_cxxinitialize.o)
                                        0x22d (size before relaxing)
 .debug_str     0x000000000000539c      0x502 platforms/nuttx/src/px4/stm/stm32f1/io_pins/libarch_io_pins.a(pwm_servo.c.obj)
                                        0x7f3 (size before relaxing)
 .debug_str     0x000000000000589e      0x44a platforms/nuttx/src/px4/stm/stm32f1/io_pins/libarch_io_pins.a(io_timer.c.obj)
                                        0xc39 (size before relaxing)
 .debug_str     0x0000000000005ce8      0x41d src/lib/mixer/libmixer.a(MixerGroup.cpp.obj)
                                       0x12f2 (size before relaxing)
 .debug_str     0x0000000000006105      0x2dc src/lib/mixer/HelicopterMixer/libHelicopterMixer.a(HelicopterMixer.cpp.obj)
                                        0xecc (size before relaxing)
 .debug_str     0x00000000000063e1      0x87a src/lib/mixer/MultirotorMixer/libMultirotorMixer.a(MultirotorMixer.cpp.obj)
                                       0x164f (size before relaxing)
 .debug_str     0x0000000000006c5b      0x102 src/lib/mixer/NullMixer/libNullMixer.a(NullMixer.cpp.obj)
                                        0xc9c (size before relaxing)
 .debug_str     0x0000000000006d5d      0x35e src/lib/mixer/SimpleMixer/libSimpleMixer.a(SimpleMixer.cpp.obj)
                                        0xfa0 (size before relaxing)
 .debug_str     0x00000000000070bb       0x40 src/lib/mixer/MixerBase/libMixerBase.a(Mixer.cpp.obj)
                                        0xa98 (size before relaxing)
 .debug_str     0x00000000000070fb      0x2f3 src/lib/rc/librc.a(st24.cpp.obj)
                                        0x873 (size before relaxing)
 .debug_str     0x00000000000073ee      0x145 src/lib/rc/librc.a(sumd.cpp.obj)
                                        0x827 (size before relaxing)
 .debug_str     0x0000000000007533      0x254 src/lib/rc/librc.a(sbus.cpp.obj)
                                        0xa3d (size before relaxing)
 .debug_str     0x0000000000007787      0x45b src/lib/rc/librc.a(dsm.cpp.obj)
                                        0xce7 (size before relaxing)
 .debug_str     0x0000000000007be2       0x28 src/lib/rc/librc.a(common_rc.cpp.obj)
                                        0x671 (size before relaxing)
 .debug_str     0x0000000000007c0a       0xe4 src/lib/output_limit/liboutput_limit.a(output_limit.cpp.obj)
                                        0x6e2 (size before relaxing)
 .debug_str     0x0000000000007cee       0x19 NuttX/nuttx/arch/arm/src/libarch.a(up_systemreset.o)
                                        0x25b (size before relaxing)
 .debug_str     0x0000000000007d07       0x20 NuttX/nuttx/arch/arm/src/libarch.a(up_udelay.o)
                                        0x261 (size before relaxing)
 .debug_str     0x0000000000007d27       0x31 boards/px4/io-v2/src/libdrivers_board.a(init.c.obj)
                                        0x36e (size before relaxing)
 .debug_str     0x0000000000007d58      0x17c boards/px4/io-v2/src/libdrivers_board.a(timer_config.cpp.obj)
                                        0x8b2 (size before relaxing)
 .debug_str     0x0000000000007ed4      0x212 platforms/nuttx/src/px4/stm/stm32f1/hrt/libarch_hrt.a(hrt.c.obj)
                                        0x79e (size before relaxing)
 .debug_str     0x00000000000080e6      0x1ec NuttX/nuttx/libs/libxx/libxx.a(libxx_eabi_atexit.o)
                                        0x3df (size before relaxing)
 .debug_str     0x00000000000082d2       0x15 NuttX/nuttx/libs/libxx/libxx.a(libxx_cxa_atexit.o)
                                        0x3c8 (size before relaxing)
 .debug_str     0x00000000000082e7       0x11 NuttX/nuttx/libs/libxx/libxx.a(libxx_delete.o)
                                        0x3ad (size before relaxing)
 .debug_str     0x00000000000082f8       0x12 NuttX/nuttx/libs/libxx/libxx.a(libxx_deletea.o)
                                        0x3b1 (size before relaxing)
 .debug_str     0x000000000000830a       0x62 NuttX/nuttx/libs/libxx/libxx.a(libxx_new.o)
                                        0x48a (size before relaxing)
 .debug_str     0x000000000000836c        0xf NuttX/nuttx/libs/libxx/libxx.a(libxx_newa.o)
                                        0x48e (size before relaxing)
 .debug_str     0x000000000000837b       0x2a NuttX/nuttx/libs/libc/libc.a(lib_crc32.o)
                                        0x24f (size before relaxing)
 .debug_str     0x00000000000083a5       0x1e NuttX/nuttx/libs/libc/libc.a(lib_printf.o)
                                        0x274 (size before relaxing)
 .debug_str     0x00000000000083c3       0x87 NuttX/nuttx/libs/libc/libc.a(lib_vsnprintf.o)
                                        0x343 (size before relaxing)
 .debug_str     0x000000000000844a       0x3a NuttX/nuttx/libs/libc/libc.a(lib_memoutstream.o)
                                        0x2f9 (size before relaxing)
 .debug_str     0x0000000000008484       0x2d NuttX/nuttx/libs/libc/libc.a(lib_nulloutstream.o)
                                        0x2ad (size before relaxing)
 .debug_str     0x00000000000084b1       0x1b NuttX/nuttx/libs/libc/libc.a(lib_sscanf.o)
                                        0x271 (size before relaxing)
 .debug_str     0x00000000000084cc       0x60 NuttX/nuttx/libs/libc/libc.a(lib_vsscanf.o)
                                        0x2f4 (size before relaxing)
 .debug_str     0x000000000000852c       0xa3 NuttX/nuttx/libs/libc/libc.a(lib_libvscanf.o)
                                        0x386 (size before relaxing)
 .debug_str     0x00000000000085cf       0x23 NuttX/nuttx/libs/libc/libc.a(lib_libnoflush.o)
                                        0x283 (size before relaxing)
 .debug_str     0x00000000000085f2       0xa3 NuttX/nuttx/libs/libc/libc.a(lib_libvsprintf.o)
                                        0x39e (size before relaxing)
 .debug_str     0x0000000000008695       0x19 NuttX/nuttx/libs/libc/libc.a(lib_ultoa_invert.o)
                                        0x198 (size before relaxing)
 .debug_str     0x00000000000086ae       0x2d NuttX/nuttx/libs/libc/libc.a(lib_strtol.o)
                                        0x291 (size before relaxing)
 .debug_str     0x00000000000086db       0x33 NuttX/nuttx/libs/libc/libc.a(lib_strtoul.o)
                                        0x2a7 (size before relaxing)
 .debug_str     0x000000000000870e       0x1c NuttX/nuttx/libs/libc/libc.a(lib_checkbase.o)
                                        0x268 (size before relaxing)
 .debug_str     0x000000000000872a       0x19 NuttX/nuttx/libs/libc/libc.a(lib_isbasedigit.o)
                                        0x25d (size before relaxing)
 .debug_str     0x0000000000008743       0x14 NuttX/nuttx/libs/libc/libc.a(lib_memchr.o)
                                        0x212 (size before relaxing)
 .debug_str     0x0000000000008757       0x15 NuttX/nuttx/libs/libc/libc.a(lib_memmove.o)
                                        0x21f (size before relaxing)
 .debug_str     0x000000000000876c       0x17 NuttX/nuttx/libs/libc/libc.a(lib_skipspace.o)
                                        0x25b (size before relaxing)
 .debug_str     0x0000000000008783       0x14 NuttX/nuttx/libs/libc/libc.a(lib_strchr.o)
                                        0x1f6 (size before relaxing)
 .debug_str     0x0000000000008797       0x14 NuttX/nuttx/libs/libc/libc.a(lib_strcmp.o)
                                        0x1fd (size before relaxing)
 .debug_str     0x00000000000087ab       0x1c NuttX/nuttx/libs/libc/libc.a(lib_strnlen.o)
                                        0x21b (size before relaxing)
 .debug_str     0x00000000000087c7       0x15 NuttX/nuttx/libs/libc/libc.a(lib_strncpy.o)
                                        0x219 (size before relaxing)
 .debug_str     0x00000000000087dc       0x22 NuttX/nuttx/libs/libc/libc.a(lib_syslog.o)
                                        0x257 (size before relaxing)
 .debug_str     0x00000000000087fe       0x2b NuttX/nuttx/libs/libc/libc.a(lib_setlogmask.o)
                                        0x263 (size before relaxing)
 .debug_str     0x0000000000008829       0x18 NuttX/nuttx/libs/libc/libc.a(lib_tcgetattr.o)
                                        0x27d (size before relaxing)
 .debug_str     0x0000000000008841       0x20 NuttX/nuttx/libs/libc/libc.a(lib_tcsetattr.o)
                                        0x285 (size before relaxing)
 .debug_str     0x0000000000008861       0x29 NuttX/nuttx/libs/libc/libc.a(lib_meminstream.o)
                                        0x2e1 (size before relaxing)
 .debug_str     0x000000000000888a       0x44 NuttX/nuttx/drivers/libdrivers.a(vsyslog.o)
                                        0x312 (size before relaxing)
 .debug_str     0x00000000000088ce       0x35 NuttX/nuttx/drivers/libdrivers.a(syslog_stream.o)
                                        0x382 (size before relaxing)
 .debug_str     0x0000000000008903       0x3a NuttX/nuttx/drivers/libdrivers.a(syslog_emergstream.o)
                                        0x365 (size before relaxing)
 .debug_str     0x000000000000893d       0x15 NuttX/nuttx/drivers/libdrivers.a(syslog_putc.o)
                                        0x326 (size before relaxing)
 .debug_str     0x0000000000008952       0x16 NuttX/nuttx/drivers/libdrivers.a(syslog_force.o)
                                        0x2b6 (size before relaxing)
 .debug_str     0x0000000000008968       0x1a NuttX/nuttx/fs/libfs.a(fs_ioctl.o)
                                        0x457 (size before relaxing)
 .debug_str     0x0000000000008982       0x20 NuttX/nuttx/fs/libfs.a(fs_read.o)
                                        0x455 (size before relaxing)
 .debug_str     0x00000000000089a2       0x24 NuttX/nuttx/mm/libmm.a(umm_mallinfo.o)
                                        0x33d (size before relaxing)
 .debug_str     0x00000000000089c6       0x16 NuttX/nuttx/mm/libmm.a(mm_mallinfo.o)
                                        0x367 (size before relaxing)

.debug_frame    0x0000000000000000     0x49ec
 .debug_frame   0x0000000000000000       0x38 NuttX/nuttx/arch/arm/src/libarch.a(stm32_start.o)
 .debug_frame   0x0000000000000038       0x34 NuttX/nuttx/arch/arm/src/libarch.a(stm32_rcc.o)
 .debug_frame   0x000000000000006c       0x74 NuttX/nuttx/arch/arm/src/libarch.a(stm32_gpio.o)
 .debug_frame   0x00000000000000e0       0x38 NuttX/nuttx/arch/arm/src/libarch.a(stm32_lowputc.o)
 .debug_frame   0x0000000000000118      0x2b0 NuttX/nuttx/arch/arm/src/libarch.a(stm32_serial.o)
 .debug_frame   0x00000000000003c8       0x28 NuttX/nuttx/arch/arm/src/libarch.a(up_modifyreg32.o)
 .debug_frame   0x00000000000003f0       0x8c NuttX/nuttx/arch/arm/src/libarch.a(stm32_irq.o)
 .debug_frame   0x000000000000047c       0xd0 NuttX/nuttx/arch/arm/src/libarch.a(stm32_dma.o)
 .debug_frame   0x000000000000054c       0x28 NuttX/nuttx/arch/arm/src/libarch.a(up_hardfault.o)
 .debug_frame   0x0000000000000574       0x28 NuttX/nuttx/arch/arm/src/libarch.a(up_svcall.o)
 .debug_frame   0x000000000000059c       0x30 NuttX/nuttx/arch/arm/src/libarch.a(up_doirq.o)
 .debug_frame   0x00000000000005cc       0x28 NuttX/nuttx/arch/arm/src/libarch.a(up_assert.o)
 .debug_frame   0x00000000000005f4       0x20 NuttX/nuttx/arch/arm/src/libarch.a(up_interruptcontext.o)
 .debug_frame   0x0000000000000614       0x38 NuttX/nuttx/libs/libc/libc.a(sem_init.o)
 .debug_frame   0x000000000000064c       0x28 NuttX/nuttx/libs/libc/libc.a(lib_abort.o)
 .debug_frame   0x0000000000000674       0x20 NuttX/nuttx/libs/libc/libc.a(lib_strcpy.o)
 .debug_frame   0x0000000000000694       0x28 NuttX/nuttx/libs/libc/libc.a(lib_memcpy.o)
 .debug_frame   0x00000000000006bc       0x20 NuttX/nuttx/libs/libc/libc.a(lib_cfgetspeed.o)
 .debug_frame   0x00000000000006dc       0x20 NuttX/nuttx/libs/libc/libc.a(lib_cfsetspeed.o)
 .debug_frame   0x00000000000006fc      0x214 NuttX/nuttx/drivers/libdrivers.a(serial.o)
 .debug_frame   0x0000000000000910       0x64 NuttX/nuttx/drivers/libdrivers.a(serial_io.o)
 .debug_frame   0x0000000000000974       0x20 NuttX/nuttx/drivers/libdrivers.a(syslog_flush.o)
 .debug_frame   0x0000000000000994       0x30 NuttX/nuttx/drivers/libdrivers.a(syslog_channel.o)
 .debug_frame   0x00000000000009c4       0x30 NuttX/nuttx/fs/libfs.a(fs_registerdriver.o)
 .debug_frame   0x00000000000009f4       0x54 NuttX/nuttx/fs/libfs.a(fs_inode.o)
 .debug_frame   0x0000000000000a48       0x54 NuttX/nuttx/fs/libfs.a(fs_inodereserve.o)
 .debug_frame   0x0000000000000a9c       0x40 NuttX/nuttx/fs/libfs.a(fs_inodesearch.o)
 .debug_frame   0x0000000000000adc       0x20 NuttX/nuttx/mm/libmm.a(umm_zalloc.o)
 .debug_frame   0x0000000000000afc       0x2c NuttX/nuttx/mm/libmm.a(mm_zalloc.o)
 .debug_frame   0x0000000000000b28       0x2c NuttX/nuttx/mm/libmm.a(mm_malloc.o)
 .debug_frame   0x0000000000000b54       0x70 NuttX/nuttx/mm/libmm.a(mm_sem.o)
 .debug_frame   0x0000000000000bc4       0x2c NuttX/nuttx/mm/libmm.a(mm_addfreechunk.o)
 .debug_frame   0x0000000000000bf0       0x20 NuttX/nuttx/mm/libmm.a(mm_size2ndx.o)
 .debug_frame   0x0000000000000c10       0x58 NuttX/nuttx/sched/libsched.a(clock_initialize.o)
 .debug_frame   0x0000000000000c68       0x20 NuttX/nuttx/sched/libsched.a(clock_ticks2time.o)
 .debug_frame   0x0000000000000c88       0x28 NuttX/nuttx/sched/libsched.a(errno_getptr.o)
 .debug_frame   0x0000000000000cb0       0x28 NuttX/nuttx/sched/libsched.a(nx_start.o)
 .debug_frame   0x0000000000000cd8       0x2c NuttX/nuttx/sched/libsched.a(nx_bringup.o)
 .debug_frame   0x0000000000000d04       0x2c NuttX/nuttx/sched/libsched.a(irq_attach.o)
 .debug_frame   0x0000000000000d30       0x28 NuttX/nuttx/sched/libsched.a(irq_dispatch.o)
 .debug_frame   0x0000000000000d58       0x28 NuttX/nuttx/sched/libsched.a(irq_unexpectedisr.o)
 .debug_frame   0x0000000000000d80       0x3c NuttX/nuttx/sched/libsched.a(sched_garbage.o)
 .debug_frame   0x0000000000000dbc       0x20 NuttX/nuttx/sched/libsched.a(sched_idletask.o)
 .debug_frame   0x0000000000000ddc       0x44 NuttX/nuttx/sched/libsched.a(sem_wait.o)
 .debug_frame   0x0000000000000e20       0x38 NuttX/nuttx/sched/libsched.a(sem_trywait.o)
 .debug_frame   0x0000000000000e58       0x40 NuttX/nuttx/sched/libsched.a(sem_post.o)
 .debug_frame   0x0000000000000e98       0x2c NuttX/nuttx/sched/libsched.a(sem_reset.o)
 .debug_frame   0x0000000000000ec4       0x28 NuttX/nuttx/sched/libsched.a(sig_usleep.o)
 .debug_frame   0x0000000000000eec       0x8c NuttX/nuttx/sched/libsched.a(task_create.o)
 .debug_frame   0x0000000000000f78       0x5c NuttX/nuttx/sched/libsched.a(task_setup.o)
 .debug_frame   0x0000000000000fd4       0x28 NuttX/nuttx/sched/libsched.a(task_activate.o)
 .debug_frame   0x0000000000000ffc       0x28 NuttX/nuttx/sched/libsched.a(task_start.o)
 .debug_frame   0x0000000000001024       0x20 NuttX/nuttx/sched/libsched.a(task_getpid.o)
 .debug_frame   0x0000000000001044       0x28 NuttX/nuttx/sched/libsched.a(exit.o)
 .debug_frame   0x000000000000106c       0x38 NuttX/nuttx/sched/libsched.a(group_create.o)
 .debug_frame   0x00000000000010a4       0x28 NuttX/nuttx/sched/libsched.a(group_setupidlefiles.o)
 .debug_frame   0x00000000000010cc       0x28 NuttX/nuttx/sched/libsched.a(group_setuptaskfiles.o)
 .debug_frame   0x00000000000010f4       0x28 NuttX/nuttx/sched/libsched.a(irq_initialize.o)
 .debug_frame   0x000000000000111c       0x28 NuttX/nuttx/sched/libsched.a(sched_releasetcb.o)
 .debug_frame   0x0000000000001144       0x28 NuttX/nuttx/sched/libsched.a(sched_lock.o)
 .debug_frame   0x000000000000116c       0x2c NuttX/nuttx/sched/libsched.a(sched_unlock.o)
 .debug_frame   0x0000000000001198       0x48 NuttX/nuttx/sched/libsched.a(sig_procmask.o)
 .debug_frame   0x00000000000011e0       0x30 NuttX/nuttx/sched/libsched.a(sig_unmaskpendingsignal.o)
 .debug_frame   0x0000000000001210       0x2c NuttX/nuttx/sched/libsched.a(sig_removependingsignal.o)
 .debug_frame   0x000000000000123c       0x2c NuttX/nuttx/sched/libsched.a(sig_releasependingsignal.o)
 .debug_frame   0x0000000000001268       0x2c NuttX/nuttx/sched/libsched.a(sig_lowest.o)
 .debug_frame   0x0000000000001294       0x50 NuttX/nuttx/sched/libsched.a(sig_dispatch.o)
 .debug_frame   0x00000000000012e4       0x3c NuttX/nuttx/sched/libsched.a(sig_deliver.o)
 .debug_frame   0x0000000000001320       0x5c NuttX/nuttx/sched/libsched.a(sig_nanosleep.o)
 .debug_frame   0x000000000000137c       0x28 NuttX/nuttx/sched/libsched.a(task_exithook.o)
 .debug_frame   0x00000000000013a4       0x2c NuttX/nuttx/sched/libsched.a(task_recover.o)
 .debug_frame   0x00000000000013d0       0x2c NuttX/nuttx/sched/libsched.a(wd_recover.o)
 .debug_frame   0x00000000000013fc       0x30 NuttX/nuttx/sched/libsched.a(clock_time2ticks.o)
 .debug_frame   0x000000000000142c       0x2c NuttX/nuttx/sched/libsched.a(group_leave.o)
 .debug_frame   0x0000000000001458       0x44 NuttX/nuttx/sched/libsched.a(sched_free.o)
 .debug_frame   0x000000000000149c       0x28 NuttX/nuttx/sched/libsched.a(sched_gettcb.o)
 .debug_frame   0x00000000000014c4       0x20 NuttX/nuttx/sched/libsched.a(sem_recover.o)
 .debug_frame   0x00000000000014e4       0x2c NuttX/nuttx/sched/libsched.a(sem_waitirq.o)
 .debug_frame   0x0000000000001510       0x4c NuttX/nuttx/sched/libsched.a(sig_initialize.o)
 .debug_frame   0x000000000000155c       0x4c NuttX/nuttx/sched/libsched.a(sig_pending.o)
 .debug_frame   0x00000000000015a8       0x68 NuttX/nuttx/sched/libsched.a(sig_timedwait.o)
 .debug_frame   0x0000000000001610       0x2c NuttX/nuttx/sched/libsched.a(sig_findaction.o)
 .debug_frame   0x000000000000163c       0x30 NuttX/nuttx/sched/libsched.a(sig_allocpendingsigaction.o)
 .debug_frame   0x000000000000166c       0x2c NuttX/nuttx/sched/libsched.a(sig_releasependingsigaction.o)
 .debug_frame   0x0000000000001698       0x48 NuttX/nuttx/sched/libsched.a(sig_cleanup.o)
 .debug_frame   0x00000000000016e0       0x2c NuttX/nuttx/sched/libsched.a(wd_create.o)
 .debug_frame   0x000000000000170c       0x64 NuttX/nuttx/sched/libsched.a(wd_start.o)
 .debug_frame   0x0000000000001770       0x2c NuttX/nuttx/sched/libsched.a(wd_cancel.o)
 .debug_frame   0x000000000000179c       0x2c NuttX/nuttx/sched/libsched.a(wd_delete.o)
 .debug_frame   0x00000000000017c8       0x58 NuttX/nuttx/sched/libsched.a(sig_action.o)
 .debug_frame   0x0000000000001820       0x28 NuttX/nuttx/sched/libsched.a(wd_initialize.o)
 .debug_frame   0x0000000000001848       0x20 NuttX/nuttx/arch/arm/src/libarch.a(stm32_allocateheap.o)
 .debug_frame   0x0000000000001868       0x20 NuttX/nuttx/arch/arm/src/libarch.a(stm32_idle.o)
 .debug_frame   0x0000000000001888       0x38 NuttX/nuttx/arch/arm/src/libarch.a(up_blocktask.o)
 .debug_frame   0x00000000000018c0       0x20 NuttX/nuttx/arch/arm/src/libarch.a(up_copyfullstate.o)
 .debug_frame   0x00000000000018e0       0x3c NuttX/nuttx/arch/arm/src/libarch.a(up_createstack.o)
 .debug_frame   0x000000000000191c       0x28 NuttX/nuttx/arch/arm/src/libarch.a(up_exit.o)
 .debug_frame   0x0000000000001944       0x2c NuttX/nuttx/arch/arm/src/libarch.a(up_initialize.o)
 .debug_frame   0x0000000000001970       0x28 NuttX/nuttx/arch/arm/src/libarch.a(up_initialstate.o)
 .debug_frame   0x0000000000001998       0x34 NuttX/nuttx/arch/arm/src/libarch.a(up_releasepending.o)
 .debug_frame   0x00000000000019cc       0x28 NuttX/nuttx/arch/arm/src/libarch.a(up_releasestack.o)
 .debug_frame   0x00000000000019f4       0x2c NuttX/nuttx/arch/arm/src/libarch.a(up_schedulesigaction.o)
 .debug_frame   0x0000000000001a20       0x2c NuttX/nuttx/arch/arm/src/libarch.a(up_sigdeliver.o)
 .debug_frame   0x0000000000001a4c       0x20 NuttX/nuttx/arch/arm/src/libarch.a(up_stackframe.o)
 .debug_frame   0x0000000000001a6c       0x34 NuttX/nuttx/arch/arm/src/libarch.a(up_unblocktask.o)
 .debug_frame   0x0000000000001aa0       0x44 NuttX/nuttx/arch/arm/src/libarch.a(stm32_timerisr.o)
 .debug_frame   0x0000000000001ae4       0x20 NuttX/nuttx/libs/libc/libc.a(sq_addlast.o)
 .debug_frame   0x0000000000001b04       0x20 NuttX/nuttx/libs/libc/libc.a(sq_addfirst.o)
 .debug_frame   0x0000000000001b24       0x20 NuttX/nuttx/libs/libc/libc.a(sq_addafter.o)
 .debug_frame   0x0000000000001b44       0x20 NuttX/nuttx/libs/libc/libc.a(sq_rem.o)
 .debug_frame   0x0000000000001b64       0x20 NuttX/nuttx/libs/libc/libc.a(sq_remfirst.o)
 .debug_frame   0x0000000000001b84       0x20 NuttX/nuttx/libs/libc/libc.a(sq_remafter.o)
 .debug_frame   0x0000000000001ba4       0x20 NuttX/nuttx/libs/libc/libc.a(dq_addfirst.o)
 .debug_frame   0x0000000000001bc4       0x20 NuttX/nuttx/libs/libc/libc.a(dq_rem.o)
 .debug_frame   0x0000000000001be4       0x38 NuttX/nuttx/libs/libc/libc.a(sem_getvalue.o)
 .debug_frame   0x0000000000001c1c       0x38 NuttX/nuttx/libs/libc/libc.a(sem_setprotocol.o)
 .debug_frame   0x0000000000001c54       0x28 NuttX/nuttx/libs/libc/libc.a(sig_addset.o)
 .debug_frame   0x0000000000001c7c       0x28 NuttX/nuttx/libs/libc/libc.a(sig_delset.o)
 .debug_frame   0x0000000000001ca4       0x20 NuttX/nuttx/libs/libc/libc.a(sig_emptyset.o)
 .debug_frame   0x0000000000001cc4       0x20 NuttX/nuttx/libs/libc/libc.a(sig_ismember.o)
 .debug_frame   0x0000000000001ce4       0x20 NuttX/nuttx/libs/libc/libc.a(lib_memset.o)
 .debug_frame   0x0000000000001d04       0x20 NuttX/nuttx/libs/libc/libc.a(lib_strlen.o)
 .debug_frame   0x0000000000001d24       0x2c NuttX/nuttx/libs/libc/libc.a(lib_calendar2utc.o)
 .debug_frame   0x0000000000001d50       0x20 NuttX/nuttx/libs/libc/libc.a(lib_daysbeforemonth.o)
 .debug_frame   0x0000000000001d70       0x20 NuttX/nuttx/libs/libc/libc.a(lib_isleapyear.o)
 .debug_frame   0x0000000000001d90       0x20 NuttX/nuttx/drivers/libdrivers.a(syslog_initialize.o)
 .debug_frame   0x0000000000001db0       0x30 NuttX/nuttx/drivers/libdrivers.a(syslog_consolechannel.o)
 .debug_frame   0x0000000000001de0       0xc0 NuttX/nuttx/drivers/libdrivers.a(syslog_device.o)
 .debug_frame   0x0000000000001ea0       0x20 NuttX/nuttx/fs/libfs.a(fs_initialize.o)
 .debug_frame   0x0000000000001ec0      0x104 NuttX/nuttx/fs/libfs.a(fs_files.o)
 .debug_frame   0x0000000000001fc4       0x30 NuttX/nuttx/fs/libfs.a(fs_inodeaddref.o)
 .debug_frame   0x0000000000001ff4       0x38 NuttX/nuttx/fs/libfs.a(fs_inoderelease.o)
 .debug_frame   0x000000000000202c       0x44 NuttX/nuttx/fs/libfs.a(fs_fileopen.o)
 .debug_frame   0x0000000000002070       0x2c NuttX/nuttx/fs/libfs.a(fs_filedetach.o)
 .debug_frame   0x000000000000209c       0x28 NuttX/nuttx/fs/libfs.a(fs_close.o)
 .debug_frame   0x00000000000020c4       0x34 NuttX/nuttx/fs/libfs.a(fs_dupfd2.o)
 .debug_frame   0x00000000000020f8       0x2c NuttX/nuttx/fs/libfs.a(fs_getfilep.o)
 .debug_frame   0x0000000000002124       0xa4 NuttX/nuttx/fs/libfs.a(fs_open.o)
 .debug_frame   0x00000000000021c8       0x68 NuttX/nuttx/fs/libfs.a(fs_write.o)
 .debug_frame   0x0000000000002230       0x2c NuttX/nuttx/fs/libfs.a(fs_inodefind.o)
 .debug_frame   0x000000000000225c       0x30 NuttX/nuttx/fs/libfs.a(fs_inodefree.o)
 .debug_frame   0x000000000000228c       0x20 NuttX/nuttx/mm/libmm.a(umm_initialize.o)
 .debug_frame   0x00000000000022ac       0x30 NuttX/nuttx/mm/libmm.a(umm_sem.o)
 .debug_frame   0x00000000000022dc       0x20 NuttX/nuttx/mm/libmm.a(umm_free.o)
 .debug_frame   0x00000000000022fc       0x20 NuttX/nuttx/mm/libmm.a(umm_malloc.o)
 .debug_frame   0x000000000000231c       0x20 NuttX/nuttx/mm/libmm.a(umm_heapmember.o)
 .debug_frame   0x000000000000233c       0x58 NuttX/nuttx/mm/libmm.a(mm_initialize.o)
 .debug_frame   0x0000000000002394       0x38 NuttX/nuttx/mm/libmm.a(mm_free.o)
 .debug_frame   0x00000000000023cc       0x20 NuttX/nuttx/mm/libmm.a(mm_heapmember.o)
 .debug_frame   0x00000000000023ec       0x20 NuttX/nuttx/sched/libsched.a(sched_getfiles.o)
 .debug_frame   0x000000000000240c       0x28 NuttX/nuttx/sched/libsched.a(sched_addreadytorun.o)
 .debug_frame   0x0000000000002434       0x2c NuttX/nuttx/sched/libsched.a(sched_removereadytorun.o)
 .debug_frame   0x0000000000002460       0x28 NuttX/nuttx/sched/libsched.a(sched_addprioritized.o)
 .debug_frame   0x0000000000002488       0x30 NuttX/nuttx/sched/libsched.a(sched_mergepending.o)
 .debug_frame   0x00000000000024b8       0x2c NuttX/nuttx/sched/libsched.a(sched_addblocked.o)
 .debug_frame   0x00000000000024e4       0x28 NuttX/nuttx/sched/libsched.a(sched_removeblocked.o)
 .debug_frame   0x000000000000250c       0x2c NuttX/nuttx/sched/libsched.a(sched_processtimer.o)
 .debug_frame   0x0000000000002538       0x38 NuttX/nuttx/sched/libsched.a(sem_destroy.o)
 .debug_frame   0x0000000000002570       0x2c NuttX/nuttx/sched/libsched.a(task_exit.o)
 .debug_frame   0x000000000000259c       0x38 NuttX/nuttx/sched/libsched.a(task_terminate.o)
 .debug_frame   0x00000000000025d4       0x20 NuttX/nuttx/libs/libc/libc.a(dq_addlast.o)
 .debug_frame   0x00000000000025f4       0x2c NuttX/nuttx/libs/libc/libc.a(lib_strdup.o)
 .debug_frame   0x0000000000002620       0x44 /opt/gcc-arm-none-eabi-7-2017-q4-major/bin/../lib/gcc/arm-none-eabi/7.2.1/thumb/v7-m/libgcc.a(_aeabi_ldivmod.o)
 .debug_frame   0x0000000000002664       0x2c /opt/gcc-arm-none-eabi-7-2017-q4-major/bin/../lib/gcc/arm-none-eabi/7.2.1/thumb/v7-m/libgcc.a(_aeabi_uldivmod.o)
 .debug_frame   0x0000000000002690       0x34 /opt/gcc-arm-none-eabi-7-2017-q4-major/bin/../lib/gcc/arm-none-eabi/7.2.1/thumb/v7-m/libgcc.a(_udivmoddi4.o)
 .debug_frame   0x00000000000026c4       0xbc src/modules/px4iofirmware/libpx4iofirmware.a(px4io.c.obj)
 .debug_frame   0x0000000000002780       0x94 src/modules/px4iofirmware/libpx4iofirmware.a(registers.c.obj)
 .debug_frame   0x0000000000002814       0x6c src/modules/px4iofirmware/libpx4iofirmware.a(safety.c.obj)
 .debug_frame   0x0000000000002880       0x98 src/modules/px4iofirmware/libpx4iofirmware.a(serial.c.obj)
 .debug_frame   0x0000000000002918       0x48 src/modules/px4iofirmware/libpx4iofirmware.a(adc.c.obj)
 .debug_frame   0x0000000000002960       0x5c src/modules/px4iofirmware/libpx4iofirmware.a(controls.c.obj)
 .debug_frame   0x00000000000029bc      0x138 src/modules/px4iofirmware/libpx4iofirmware.a(mixer.cpp.obj)
 .debug_frame   0x0000000000002af4       0x30 NuttX/apps/libapps.a(gnu_cxxinitialize.o)
 .debug_frame   0x0000000000002b24       0xe4 platforms/nuttx/src/px4/stm/stm32f1/io_pins/libarch_io_pins.a(pwm_servo.c.obj)
 .debug_frame   0x0000000000002c08      0x298 platforms/nuttx/src/px4/stm/stm32f1/io_pins/libarch_io_pins.a(io_timer.c.obj)
 .debug_frame   0x0000000000002ea0      0x15c src/lib/mixer/libmixer.a(MixerGroup.cpp.obj)
 .debug_frame   0x0000000000002ffc      0x140 src/lib/mixer/HelicopterMixer/libHelicopterMixer.a(HelicopterMixer.cpp.obj)
 .debug_frame   0x000000000000313c      0x1fc src/lib/mixer/MultirotorMixer/libMultirotorMixer.a(MultirotorMixer.cpp.obj)
 .debug_frame   0x0000000000003338       0xe4 src/lib/mixer/NullMixer/libNullMixer.a(NullMixer.cpp.obj)
 .debug_frame   0x000000000000341c      0x1e8 src/lib/mixer/SimpleMixer/libSimpleMixer.a(SimpleMixer.cpp.obj)
 .debug_frame   0x0000000000003604       0x84 src/lib/mixer/MixerBase/libMixerBase.a(Mixer.cpp.obj)
 .debug_frame   0x0000000000003688       0x50 src/lib/rc/librc.a(st24.cpp.obj)
 .debug_frame   0x00000000000036d8       0x60 src/lib/rc/librc.a(sumd.cpp.obj)
 .debug_frame   0x0000000000003738      0x104 src/lib/rc/librc.a(sbus.cpp.obj)
 .debug_frame   0x000000000000383c      0x170 src/lib/rc/librc.a(dsm.cpp.obj)
 .debug_frame   0x00000000000039ac       0x5c src/lib/output_limit/liboutput_limit.a(output_limit.cpp.obj)
 .debug_frame   0x0000000000003a08       0x20 NuttX/nuttx/arch/arm/src/libarch.a(up_systemreset.o)
 .debug_frame   0x0000000000003a28       0x2c NuttX/nuttx/arch/arm/src/libarch.a(up_udelay.o)
 .debug_frame   0x0000000000003a54       0x30 boards/px4/io-v2/src/libdrivers_board.a(init.c.obj)
 .debug_frame   0x0000000000003a84      0x210 platforms/nuttx/src/px4/stm/stm32f1/hrt/libarch_hrt.a(hrt.c.obj)
 .debug_frame   0x0000000000003c94       0x20 NuttX/nuttx/libs/libxx/libxx.a(libxx_eabi_atexit.o)
 .debug_frame   0x0000000000003cb4       0x20 NuttX/nuttx/libs/libxx/libxx.a(libxx_cxa_atexit.o)
 .debug_frame   0x0000000000003cd4       0x20 NuttX/nuttx/libs/libxx/libxx.a(libxx_delete.o)
 .debug_frame   0x0000000000003cf4       0x20 NuttX/nuttx/libs/libxx/libxx.a(libxx_deletea.o)
 .debug_frame   0x0000000000003d14       0x20 NuttX/nuttx/libs/libxx/libxx.a(libxx_new.o)
 .debug_frame   0x0000000000003d34       0x20 NuttX/nuttx/libs/libxx/libxx.a(libxx_newa.o)
 .debug_frame   0x0000000000003d54       0x3c NuttX/nuttx/libs/libc/libc.a(lib_crc32.o)
 .debug_frame   0x0000000000003d90       0x40 NuttX/nuttx/libs/libc/libc.a(lib_printf.o)
 .debug_frame   0x0000000000003dd0       0x34 NuttX/nuttx/libs/libc/libc.a(lib_vsnprintf.o)
 .debug_frame   0x0000000000003e04       0x30 NuttX/nuttx/libs/libc/libc.a(lib_memoutstream.o)
 .debug_frame   0x0000000000003e34       0x30 NuttX/nuttx/libs/libc/libc.a(lib_nulloutstream.o)
 .debug_frame   0x0000000000003e64       0x3c NuttX/nuttx/libs/libc/libc.a(lib_sscanf.o)
 .debug_frame   0x0000000000003ea0       0x30 NuttX/nuttx/libs/libc/libc.a(lib_vsscanf.o)
 .debug_frame   0x0000000000003ed0       0x54 NuttX/nuttx/libs/libc/libc.a(lib_libvscanf.o)
 .debug_frame   0x0000000000003f24       0x20 NuttX/nuttx/libs/libc/libc.a(lib_libnoflush.o)
 .debug_frame   0x0000000000003f44       0x40 NuttX/nuttx/libs/libc/libc.a(lib_libvsprintf.o)
 .debug_frame   0x0000000000003f84       0x2c NuttX/nuttx/libs/libc/libc.a(lib_ultoa_invert.o)
 .debug_frame   0x0000000000003fb0       0x30 NuttX/nuttx/libs/libc/libc.a(lib_strtol.o)
 .debug_frame   0x0000000000003fe0       0x38 NuttX/nuttx/libs/libc/libc.a(lib_strtoul.o)
 .debug_frame   0x0000000000004018       0x2c NuttX/nuttx/libs/libc/libc.a(lib_checkbase.o)
 .debug_frame   0x0000000000004044       0x20 NuttX/nuttx/libs/libc/libc.a(lib_isbasedigit.o)
 .debug_frame   0x0000000000004064       0x28 NuttX/nuttx/libs/libc/libc.a(lib_memchr.o)
 .debug_frame   0x000000000000408c       0x28 NuttX/nuttx/libs/libc/libc.a(lib_memmove.o)
 .debug_frame   0x00000000000040b4       0x20 NuttX/nuttx/libs/libc/libc.a(lib_skipspace.o)
 .debug_frame   0x00000000000040d4       0x20 NuttX/nuttx/libs/libc/libc.a(lib_strchr.o)
 .debug_frame   0x00000000000040f4       0x20 NuttX/nuttx/libs/libc/libc.a(lib_strcmp.o)
 .debug_frame   0x0000000000004114       0x28 NuttX/nuttx/libs/libc/libc.a(lib_strnlen.o)
 .debug_frame   0x000000000000413c       0x28 NuttX/nuttx/libs/libc/libc.a(lib_strncpy.o)
 .debug_frame   0x0000000000004164       0x54 NuttX/nuttx/libs/libc/libc.a(lib_syslog.o)
 .debug_frame   0x00000000000041b8       0x20 NuttX/nuttx/libs/libc/libc.a(lib_setlogmask.o)
 .debug_frame   0x00000000000041d8       0x20 NuttX/nuttx/libs/libc/libc.a(lib_tcgetattr.o)
 .debug_frame   0x00000000000041f8       0x20 NuttX/nuttx/libs/libc/libc.a(lib_tcsetattr.o)
 .debug_frame   0x0000000000004218       0x30 NuttX/nuttx/libs/libc/libc.a(lib_meminstream.o)
 .debug_frame   0x0000000000004248       0x34 NuttX/nuttx/drivers/libdrivers.a(vsyslog.o)
 .debug_frame   0x000000000000427c       0x3c NuttX/nuttx/drivers/libdrivers.a(syslog_stream.o)
 .debug_frame   0x00000000000042b8       0x3c NuttX/nuttx/drivers/libdrivers.a(syslog_emergstream.o)
 .debug_frame   0x00000000000042f4       0x38 NuttX/nuttx/drivers/libdrivers.a(syslog_putc.o)
 .debug_frame   0x000000000000432c       0x20 NuttX/nuttx/drivers/libdrivers.a(syslog_force.o)
 .debug_frame   0x000000000000434c       0x40 NuttX/nuttx/fs/libfs.a(fs_ioctl.o)
 .debug_frame   0x000000000000438c       0x6c NuttX/nuttx/fs/libfs.a(fs_read.o)
 .debug_frame   0x00000000000043f8       0x34 NuttX/nuttx/mm/libmm.a(umm_mallinfo.o)
 .debug_frame   0x000000000000442c       0x34 NuttX/nuttx/mm/libmm.a(mm_mallinfo.o)
 .debug_frame   0x0000000000004460       0x34 /opt/gcc-arm-none-eabi-7-2017-q4-major/bin/../lib/gcc/arm-none-eabi/7.2.1/../../../../arm-none-eabi/lib/thumb/v7-m/libm.a(lib_a-sf_cos.o)
 .debug_frame   0x0000000000004494       0x30 /opt/gcc-arm-none-eabi-7-2017-q4-major/bin/../lib/gcc/arm-none-eabi/7.2.1/../../../../arm-none-eabi/lib/thumb/v7-m/libm.a(lib_a-sf_floor.o)
 .debug_frame   0x00000000000044c4       0x28 /opt/gcc-arm-none-eabi-7-2017-q4-major/bin/../lib/gcc/arm-none-eabi/7.2.1/../../../../arm-none-eabi/lib/thumb/v7-m/libm.a(lib_a-sf_round.o)
 .debug_frame   0x00000000000044ec       0x34 /opt/gcc-arm-none-eabi-7-2017-q4-major/bin/../lib/gcc/arm-none-eabi/7.2.1/../../../../arm-none-eabi/lib/thumb/v7-m/libm.a(lib_a-sf_sin.o)
 .debug_frame   0x0000000000004520       0x3c /opt/gcc-arm-none-eabi-7-2017-q4-major/bin/../lib/gcc/arm-none-eabi/7.2.1/../../../../arm-none-eabi/lib/thumb/v7-m/libm.a(lib_a-wf_sqrt.o)
 .debug_frame   0x000000000000455c       0x48 /opt/gcc-arm-none-eabi-7-2017-q4-major/bin/../lib/gcc/arm-none-eabi/7.2.1/../../../../arm-none-eabi/lib/thumb/v7-m/libm.a(lib_a-ef_rem_pio2.o)
 .debug_frame   0x00000000000045a4       0x30 /opt/gcc-arm-none-eabi-7-2017-q4-major/bin/../lib/gcc/arm-none-eabi/7.2.1/../../../../arm-none-eabi/lib/thumb/v7-m/libm.a(lib_a-ef_sqrt.o)
 .debug_frame   0x00000000000045d4       0x34 /opt/gcc-arm-none-eabi-7-2017-q4-major/bin/../lib/gcc/arm-none-eabi/7.2.1/../../../../arm-none-eabi/lib/thumb/v7-m/libm.a(lib_a-kf_cos.o)
 .debug_frame   0x0000000000004608       0x50 /opt/gcc-arm-none-eabi-7-2017-q4-major/bin/../lib/gcc/arm-none-eabi/7.2.1/../../../../arm-none-eabi/lib/thumb/v7-m/libm.a(lib_a-kf_rem_pio2.o)
 .debug_frame   0x0000000000004658       0x34 /opt/gcc-arm-none-eabi-7-2017-q4-major/bin/../lib/gcc/arm-none-eabi/7.2.1/../../../../arm-none-eabi/lib/thumb/v7-m/libm.a(lib_a-kf_sin.o)
 .debug_frame   0x000000000000468c       0x20 /opt/gcc-arm-none-eabi-7-2017-q4-major/bin/../lib/gcc/arm-none-eabi/7.2.1/../../../../arm-none-eabi/lib/thumb/v7-m/libm.a(lib_a-s_matherr.o)
 .debug_frame   0x00000000000046ac       0x20 /opt/gcc-arm-none-eabi-7-2017-q4-major/bin/../lib/gcc/arm-none-eabi/7.2.1/../../../../arm-none-eabi/lib/thumb/v7-m/libm.a(lib_a-sf_fabs.o)
 .debug_frame   0x00000000000046cc       0x28 /opt/gcc-arm-none-eabi-7-2017-q4-major/bin/../lib/gcc/arm-none-eabi/7.2.1/../../../../arm-none-eabi/lib/thumb/v7-m/libm.a(lib_a-sf_scalbn.o)
 .debug_frame   0x00000000000046f4       0x20 /opt/gcc-arm-none-eabi-7-2017-q4-major/bin/../lib/gcc/arm-none-eabi/7.2.1/../../../../arm-none-eabi/lib/thumb/v7-m/libm.a(lib_a-sf_copysign.o)
 .debug_frame   0x0000000000004714       0xac /opt/gcc-arm-none-eabi-7-2017-q4-major/bin/../lib/gcc/arm-none-eabi/7.2.1/thumb/v7-m/libgcc.a(_arm_addsubdf3.o)
 .debug_frame   0x00000000000047c0       0x50 /opt/gcc-arm-none-eabi-7-2017-q4-major/bin/../lib/gcc/arm-none-eabi/7.2.1/thumb/v7-m/libgcc.a(_arm_muldivdf3.o)
 .debug_frame   0x0000000000004810       0x24 /opt/gcc-arm-none-eabi-7-2017-q4-major/bin/../lib/gcc/arm-none-eabi/7.2.1/thumb/v7-m/libgcc.a(_arm_truncdfsf2.o)
 .debug_frame   0x0000000000004834       0x4c /opt/gcc-arm-none-eabi-7-2017-q4-major/bin/../lib/gcc/arm-none-eabi/7.2.1/thumb/v7-m/libgcc.a(_arm_addsubsf3.o)
 .debug_frame   0x0000000000004880       0x38 /opt/gcc-arm-none-eabi-7-2017-q4-major/bin/../lib/gcc/arm-none-eabi/7.2.1/thumb/v7-m/libgcc.a(_arm_muldivsf3.o)
 .debug_frame   0x00000000000048b8       0xc8 /opt/gcc-arm-none-eabi-7-2017-q4-major/bin/../lib/gcc/arm-none-eabi/7.2.1/thumb/v7-m/libgcc.a(_arm_cmpsf2.o)
 .debug_frame   0x0000000000004980       0x24 /opt/gcc-arm-none-eabi-7-2017-q4-major/bin/../lib/gcc/arm-none-eabi/7.2.1/thumb/v7-m/libgcc.a(_arm_unordsf2.o)
 .debug_frame   0x00000000000049a4       0x24 /opt/gcc-arm-none-eabi-7-2017-q4-major/bin/../lib/gcc/arm-none-eabi/7.2.1/thumb/v7-m/libgcc.a(_arm_fixsfsi.o)
 .debug_frame   0x00000000000049c8       0x24 /opt/gcc-arm-none-eabi-7-2017-q4-major/bin/../lib/gcc/arm-none-eabi/7.2.1/thumb/v7-m/libgcc.a(_arm_fixunssfsi.o)
